ARM Linker, 5.03 [Build 24] [MDK-ARM Professional]

==============================================================================

Section Cross References

    lpc2300.o(STACK) refers (Special) to heapauxi.o(.text) for __use_two_region_memory
    lpc2300.o(HEAP) refers (Special) to heapauxi.o(.text) for __use_two_region_memory
    lpc2300.o(RESET) refers (Special) to heapauxi.o(.text) for __use_two_region_memory
    lpc2300.o(RESET) refers to lpc2300.o(STACK) for Stack_Top
    lpc2300.o(RESET) refers to __main.o(!!!main) for __main
    lpc2300.o(.text) refers (Special) to heapauxi.o(.text) for __use_two_region_memory
    lpc2300.o(.text) refers to lpc2300.o(HEAP) for Heap_Mem
    lpc2300.o(.text) refers to lpc2300.o(STACK) for Stack_Mem
    main.o(.text) refers to ioport.o(.text) for HardwareInit
    main.o(.text) refers to uart.o(.text) for UartInit
    main.o(.text) refers to timer.o(.text) for Timer0Init
    main.o(.text) refers to ir.o(.text) for InitRemoteRepeatKey
    main.o(.text) refers to vfddriver.o(.text) for VfdSetDimerValue
    main.o(.text) refers to message.o(.text) for InitMsgQueue
    main.o(.text) refers to debug.o(.text) for assert_Function
    main.o(.text) refers to zone1_task.o(.text) for LoadSystemStartupValue
    main.o(.text) refers to dac.o(.text) for InitDSDMode
    main.o(.text) refers to main.o(i.__ARM_common_call_via_r0) for __ARM_common_call_via_r0
    main.o(.text) refers to task.o(.text) for ProcMessage
    main.o(.text) refers to dsp_task.o(.text) for DspLoop
    main.o(.text) refers to hdmi.o(.text) for HDMI_DSD_Loop
    main.o(.text) refers to vfd_disp.o(.text) for VfdRefresh
    main.o(.text) refers to radio_task.o(.text) for RadioLoop
    main.o(.text) refers to zone1_task.o(.bss) for sys_flag
    main.o(.text) refers to zone1_task.o(.data) for temp_dimer_time
    main.o(.text) refers to main.o(.data) for Rs232ProtocolHandler
    main.o(.text) refers to vfd_disp.o(.data) for need_refresh_vfd
    main.o(.data) refers to rs232_protocol.o(.text) for C11Rs232
    debug.o(.text) refers to c89vsprintf.o(.text) for __c89vsprintf
    debug.o(.text) refers to strlen.o(.text) for strlen
    debug.o(.text) refers to uart.o(.text) for Uart0Send
    debug.o(.data) refers to debug.o(.conststring) for .conststring
    queue.o(.text) refers to aeabi_sdiv.o(.text) for __aeabi_idivmod
    c11_msg_handler.o(.text) refers to dspdrv.o(.text) for DspProcPower
    key_task.o(.text) refers to zone1_task.o(.text) for MsgSetKey
    key_task.o(.text) refers to ic165.o(.text) for read165
    key_task.o(.text) refers to ioport.o(.text) for SenseEncoderSwitchPlus
    key_task.o(.text) refers to key_task.o(.constdata) for panel_key_table
    key_task.o(.text) refers to key_task.o(.data) for pre_mode
    key_task.o(.text) refers to zone1_task.o(.bss) for sys_flag
    key_task.o(.text) refers to zone1_task.o(.data) for HDRadio_FM_Flag
    key_task.o(.text) refers to radio_task.o(.data) for current_radio_mode
    key_task.o(.text) refers to ir.o(.data) for zone1_ir_enable
    key_task.o(.text) refers to key_tab.o(.constdata) for zone1_remote_key_table
    key_task.o(.text) refers to debug.o(.text) for debug_printf
    menu_tbl.o(.constdata) refers to menu_tbl.o(.data) for StrSetupMenu
    menu_tbl.o(.data) refers to menu_tbl.o(.conststring) for .conststring
    menu_tbl.o(.data) refers to setup_menu.o(.text) for SetupMenuDisplay
    menu_tbl.o(.data) refers to setup_func.o(.text) for SpkConfigSetup
    menu_tbl.o(.data) refers to menu_tbl.o(.constdata) for balance_table
    menu_tbl.o(.data) refers to zone1_task.o(.data) for SrcNameCh71
    menu_tbl.o(.data) refers to zone1_task.o(.bss) for C11Logo
    message.o(.text) refers to aeabi_sdiv.o(.text) for __aeabi_idivmod
    message.o(.text) refers to debug.o(.text) for assert_Function
    message.o(.text) refers to rt_memcpy.o(.text) for __aeabi_memcpy
    message.o(.text) refers to message.o(.data) for msg_queue_front
    message.o(.text) refers to message.o(.bss) for pMsgQueue
    rs232_protocol.o(.text) refers to fmul.o(x$fpl$fmul) for __aeabi_fmul
    rs232_protocol.o(.text) refers to fflt_noclz.o(x$fpl$fflt) for __aeabi_i2f
    rs232_protocol.o(.text) refers to faddsub_noclz.o(x$fpl$fadd) for __aeabi_fadd
    rs232_protocol.o(.text) refers to fdiv.o(x$fpl$fdiv) for __aeabi_fdiv
    rs232_protocol.o(.text) refers to f2d.o(x$fpl$f2d) for __aeabi_f2d
    rs232_protocol.o(.text) refers to debug.o(.text) for rs232_printf
    rs232_protocol.o(.text) refers to rs232_protocol.o(i.__ARM_common_switch8) for __ARM_common_switch8
    rs232_protocol.o(.text) refers to task.o(.text) for GetCurFocusTid
    rs232_protocol.o(.text) refers to zone1_task.o(.text) for MsgSetInputSource
    rs232_protocol.o(.text) refers to radio_task.o(.text) for RadioExit
    rs232_protocol.o(.text) refers to zone1_task.o(.bss) for sys_flag
    rs232_protocol.o(.text) refers to radio_task.o(.data) for current_radio_mode
    rs232_protocol.o(.text) refers to dspdrv.o(.text) for SetLate
    rs232_protocol.o(.text) refers to timer.o(.text) for DelayMs
    rs232_protocol.o(.text) refers to dspdrv.o(.data) for compression_mode
    rs232_protocol.o(.text) refers to ffix.o(x$fpl$ffix) for __aeabi_f2iz
    rs232_protocol.o(.text) refers to eq_manager.o(.text) for EqModuleconfig
    rs232_protocol.o(.text) refers to auto_sound.o(.text) for FindBalancePosition
    rs232_protocol.o(.text) refers to eeprom.o(.text) for EepromWriteByte
    rs232_protocol.o(.text) refers to eq_manager.o(.bss) for dsp_eq_table
    rs232_protocol.o(.text) refers to setup_menu.o(.data) for Movie_Music_Speaker_Flag
    rs232_protocol.o(.text) refers to drleqf.o(x$fpl$drleqf) for __aeabi_cdrcmple
    rs232_protocol.o(.text) refers to dleqf.o(x$fpl$dleqf) for __aeabi_cdcmple
    rs232_protocol.o(.text) refers to vfd_disp.o(.text) for VfdTempDispBlank
    rs232_protocol.o(.text) refers to zone2_task.o(.text) for IsZone2PowerOn
    rs232_protocol.o(.text) refers to channel.o(.text) for Zone2AnalogInOff
    rs232_protocol.o(.text) refers to max335.o(.text) for SetMax335Switch
    rs232_protocol.o(.text) refers to hdmi.o(.text) for HdmiReadByte
    rs232_protocol.o(.text) refers to channel.o(.constdata) for zone2_analog_in_table
    rs232_protocol.o(.text) refers to zone2_task.o(.data) for Zone2SrcName
    rs232_protocol.o(.text) refers to rt_memcpy.o(.text) for __aeabi_memcpy
    rs232_protocol.o(.text) refers to setup_func.o(.text) for WriteName
    rs232_protocol.o(.text) refers to volume.o(.text) for SetBalanceVolume
    rs232_protocol.o(.text) refers to frleqf.o(x$fpl$frleqf) for __aeabi_cfrcmple
    rs232_protocol.o(.text) refers to zone1_task.o(.data) for SrcName
    rs232_protocol.o(.text) refers to ffixu.o(x$fpl$ffixu) for __aeabi_f2uiz
    rs232_protocol.o(.text) refers to c11_msg_handler.o(.text) for SetDspSpkMode
    rs232_protocol.o(.text) refers to rs232_protocol.o(.data) for cur_dis_unit
    rs232_protocol.o(.text) refers to fflt_noclz.o(x$fpl$ffltu) for __aeabi_ui2f
    rs232_protocol.o(.text) refers to delaymanager.o(.text) for DSP_AV_Delay
    rs232_protocol.o(.text) refers to menu_tbl.o(.constdata) for balance_table
    rs232_protocol.o(.text) refers to feqf.o(x$fpl$feqf) for __aeabi_cfcmpeq
    rs232_protocol.o(.text) refers to fleqf.o(x$fpl$fleqf) for __aeabi_cfcmple
    rs232_protocol.o(.text) refers to setup_func.o(.bss) for AnalogInLevel
    rs232_protocol.o(.text) refers to aeabi_sdiv.o(.text_udiv) for __aeabi_uidivmod
    rs232_protocol.o(.text) refers to ioport.o(.text) for Zone1SelectIr
    rs232_protocol.o(.text) refers to setup_func.o(.data) for pwd_mode
    rs232_protocol.o(.text) refers to dac.o(.text) for DacMute
    rs232_protocol.o(.text) refers to setup_menu.o(.text) for SetupLoadDefault
    rs232_protocol.o(.text) refers to rs232_protocol.o(i.__ARM_common_call_via_r2) for __ARM_common_call_via_r2
    rs232_protocol.o(.text) refers to key_task.o(.data) for key_enable
    rs232_protocol.o(.text) refers to queue.o(.text) for IsQueueEmpty
    rs232_protocol.o(.text) refers to uart.o(.text) for Uart0Send
    rs232_protocol.o(.text) refers to uart.o(.data) for protocol_queue_pointer
    rs232_protocol.o(.text) refers to rs232_protocol.o(.bss) for recv_buffer
    rs232_protocol.o(.constdata) refers to rs232_protocol.o(.conststring) for .conststring
    rs232_protocol.o(.constdata) refers to rs232_protocol.o(.text) for ProcCmdSPU
    rs232_protocol.o(.data) refers to rs232_protocol.o(.constdata) for cmd_Z1EQL
    setup_func.o(.text) refers to eeprom.o(.text) for EepromReadByte
    setup_func.o(.text) refers to rs232_protocol.o(i.__ARM_common_switch8) for __ARM_common_switch8
    setup_func.o(.text) refers to delaymanager.o(.text) for DSP_Delay_Channel_Setting
    setup_func.o(.text) refers to volume.o(.text) for SetBalanceVolume
    setup_func.o(.text) refers to bassmanager.o(.text) for SetBassManagerSpeaker
    setup_func.o(.text) refers to ioport.o(.text) for SetIoport0
    setup_func.o(.text) refers to dac.o(.text) for DacInvert
    setup_func.o(.text) refers to setup_menu.o(.data) for Movie_Music_Speaker_Flag
    setup_func.o(.text) refers to dspdrv.o(.data) for system_spk_mode
    setup_func.o(.text) refers to delaymanager.o(.bss) for dsp_delay_time
    setup_func.o(.text) refers to menu_tbl.o(.constdata) for balance_table
    setup_func.o(.text) refers to bassmanager.o(.bss) for dsp_bass_corner
    setup_func.o(.text) refers to zone1_task.o(.bss) for sys_flag
    setup_func.o(.text) refers to debug.o(.text) for debug_printf
    setup_func.o(.text) refers to eq_manager.o(.text) for DSP_EQ_Firmware_Init
    setup_func.o(.text) refers to zone1_task.o(.text) for MsgSetInputSource
    setup_func.o(.text) refers to dspdrv.o(.text) for Set_Prologic2Dimension
    setup_func.o(.text) refers to c11_msg_handler.o(.text) for SetDspDelay
    setup_func.o(.text) refers to dsp_api.o(.text) for Change_DSP_Decoder_Code
    setup_func.o(.text) refers to timer.o(.text) for DelayMs
    setup_func.o(.text) refers to vfd_disp.o(.text) for VfdDisplay
    setup_func.o(.text) refers to eq_manager.o(.bss) for dsp_eq_table
    setup_func.o(.text) refers to setup_func.o(.data) for balance_mode
    setup_func.o(.text) refers to key_task.o(.data) for key_enable
    setup_func.o(.text) refers to zone2_task.o(.text) for IsZone2PowerOn
    setup_func.o(.text) refers to task.o(.text) for IsCurFocusTid
    setup_func.o(.text) refers to channel.o(.text) for Zone2AnalogInOff
    setup_func.o(.text) refers to max335.o(.text) for SetMax335Switch
    setup_func.o(.text) refers to hdmi.o(.text) for HdmiReadByte
    setup_func.o(.text) refers to fflt_noclz.o(x$fpl$fflt) for __aeabi_i2f
    setup_func.o(.text) refers to channel.o(.constdata) for zone2_analog_in_table
    setup_func.o(.text) refers to setup_menu.o(.text) for SetupLoadDefault
    setup_func.o(.text) refers to setup_func.o(.bss) for AnalogInLevel
    setup_func.o(.text) refers to radio_task.o(.data) for current_radio_mode
    setup_func.o(.text) refers to rt_memcpy.o(.text) for __aeabi_memcpy
    setup_func.o(.text) refers to zone1_task.o(.data) for SrcName
    setup_func.o(.text) refers to setup_func.o(.constdata) for CaryLogo
    setup_func.o(.data) refers to menu_tbl.o(.data) for strFl
    setup_menu.o(.text) refers to eeprom.o(.text) for EepromReadByte
    setup_menu.o(.text) refers to setup_menu.o(i.__ARM_common_call_via_r3) for __ARM_common_call_via_r3
    setup_menu.o(.text) refers to rs232_protocol.o(i.__ARM_common_switch8) for __ARM_common_switch8
    setup_menu.o(.text) refers to debug.o(.text) for debug_printf
    setup_menu.o(.text) refers to vfd_disp.o(.text) for VfdDisplay
    setup_menu.o(.text) refers to c89vsprintf.o(.text) for __c89vsprintf
    setup_menu.o(.text) refers to strlen.o(.text) for strlen
    setup_menu.o(.text) refers to fflt_noclz.o(x$fpl$ffltu) for __aeabi_ui2f
    setup_menu.o(.text) refers to f2d.o(x$fpl$f2d) for __aeabi_f2d
    setup_menu.o(.text) refers to ddiv.o(x$fpl$ddiv) for __aeabi_ddiv
    setup_menu.o(.text) refers to menu_tbl.o(.constdata) for MenuPageList
    setup_menu.o(.text) refers to setup_menu.o(.data) for i
    setup_menu.o(.text) refers to ir.o(.text) for AddRemoteRepeatKey
    setup_menu.o(.text) refers to task.o(.text) for GetCurFocusTid
    setup_menu.o(.text) refers to setup_func.o(.text) for SpkBlanceTestMode
    setup_menu.o(.text) refers to volume.o(.text) for Set7Ch1MainVolume
    setup_menu.o(.text) refers to radio_task.o(.text) for RadioInit
    setup_menu.o(.text) refers to menu_tbl.o(.data) for strOff
    setup_menu.o(.text) refers to setup_func.o(.data) for pwd_mode
    setup_menu.o(.text) refers to zone1_task.o(.bss) for sys_flag
    setup_menu.o(.text) refers to radio_task.o(.data) for current_radio_mode
    setup_menu.o(.text) refers to dac.o(.text) for DacMute
    setup_menu.o(.text) refers to dsp_api.o(.text) for Change_DSP_Decoder_Code
    setup_menu.o(.text) refers to timer.o(.text) for DelayMs
    setup_menu.o(.text) refers to zone1_task.o(.text) for MsgSetFlash
    setup_menu.o(.text) refers to main.o(.text) for ProcDimerOff
    task.o(.text) refers to task.o(i.__ARM_common_call_via_r1) for __ARM_common_call_via_r1
    task.o(.text) refers to task.o(.data) for current_tid
    task.o(.constdata) refers to zone1_task.o(.text) for Zone1ProcMessage
    task.o(.constdata) refers to setup_menu.o(.text) for SetupProcMessage
    task.o(.constdata) refers to radio_task.o(.text) for RadioProcMessage
    task.o(.constdata) refers to zone2_task.o(.text) for Zone2ProcMessage
    task.o(.constdata) refers to auto_sound.o(.text) for AutoSoundProcMessage
    task.o(.data) refers to task.o(.constdata) for pZone1Task
    vfd_disp.o(.text) refers to vfddriver.o(.text) for VfdUpdateBuffer
    vfd_disp.o(.text) refers to c89vsprintf.o(.text) for __c89vsprintf
    vfd_disp.o(.text) refers to strlen.o(.text) for strlen
    vfd_disp.o(.text) refers to strncpy.o(.text) for strncpy
    vfd_disp.o(.text) refers to aeabi_memset.o(.text) for __aeabi_memset
    vfd_disp.o(.text) refers to vfd_disp.o(.data) for vfd_buffer
    vfd_disp.o(.text) refers to zone1_task.o(.bss) for sys_flag
    vfd_disp.o(.text) refers to zone1_task.o(.data) for temp_dimer_time
    zone1_task.o(.text) refers to message.o(.text) for SendMessage
    zone1_task.o(.text) refers to vfd_disp.o(.text) for VfdDisplayBlank
    zone1_task.o(.text) refers to timer.o(.text) for DelayMs
    zone1_task.o(.text) refers to task.o(.text) for IsCurFocusTid
    zone1_task.o(.text) refers to debug.o(.text) for debug_printf
    zone1_task.o(.text) refers to rs232_protocol.o(i.__ARM_common_switch8) for __ARM_common_switch8
    zone1_task.o(.text) refers to dspdrv.o(.text) for GetNormalFreq
    zone1_task.o(.text) refers to key_task.o(.data) for key_enable
    zone1_task.o(.text) refers to zone1_task.o(.data) for _cur_key
    zone1_task.o(.text) refers to zone1_task.o(.bss) for sys_flag
    zone1_task.o(.text) refers to setup_func.o(.constdata) for CaryLogo
    zone1_task.o(.text) refers to dspdrv.o(.data) for DSDType
    zone1_task.o(.text) refers to dsp_task.o(.data) for CD_8416_channel
    zone1_task.o(.text) refers to ioport.o(.text) for DSP_Select
    zone1_task.o(.text) refers to c11_msg_handler.o(.text) for SetDspPower
    zone1_task.o(.text) refers to channel.o(.text) for Analog7CH1OutSelectChannel
    zone1_task.o(.text) refers to hdmi.o(.text) for HDMI_Port_Select
    zone1_task.o(.text) refers to setup_menu.o(.data) for Movie_Music_Speaker_Flag
    zone1_task.o(.text) refers to hdmi.o(.data) for Pre_value
    zone1_task.o(.text) refers to dac.o(.text) for InitDSDMode
    zone1_task.o(.text) refers to fflt_noclz.o(x$fpl$fflt) for __aeabi_i2f
    zone1_task.o(.text) refers to volume.o(.text) for Set2ChVolume
    zone1_task.o(.text) refers to eeprom.o(.text) for EepromWriteByte
    zone1_task.o(.text) refers to vfddriver.o(.text) for VfdSetDimerValue
    zone1_task.o(.text) refers to cs8416.o(.text) for InitCs8416
    zone1_task.o(.text) refers to ic4094.o(.text) for LPC2132HwReset
    zone1_task.o(.text) refers to setup_func.o(.bss) for AnalogInMode
    zone1_task.o(.text) refers to menu_tbl.o(.constdata) for AnalogInLevelTable
    zone1_task.o(.text) refers to vfd_disp.o(.constdata) for Surround_Processor
    zone1_task.o(.text) refers to setup_func.o(.text) for SetHdmiAudioOut
    zone1_task.o(.text) refers to setup_func.o(.data) for SystemTriggerMode
    zone1_task.o(.text) refers to setup_menu.o(.text) for SetupLoadDefault
    zone1_task.o(.text) refers to aeabi_sdiv.o(.text) for __aeabi_idivmod
    zone1_task.o(.text) refers to dolbyprologiciix.o(.text) for DSP_PLIIx_DECODE_MODE_STEREO
    zone1_task.o(.text) refers to dolbytruehd.o(.text) for DspReadTRUEHD
    zone1_task.o(.text) refers to auto_sound.o(.text) for AutoSoundInit
    zone1_task.o(.text) refers to eq_manager.o(.text) for EqOn
    zone1_task.o(.text) refers to radio_task.o(.text) for RadioInit
    zone1_task.o(.text) refers to main.o(.text) for ProcDimerOff
    zone1_task.o(.text) refers to bassmanager.o(.text) for SetBassManagerSpeaker
    zone1_task.o(.text) refers to radio_task.o(.data) for current_radio_mode
    zone1_task.o(.data) refers to zone1_task.o(.conststring) for .conststring
    zone2_task.o(.text) refers to eeprom.o(.text) for EepromWriteByte
    zone2_task.o(.text) refers to debug.o(.text) for debug_printf
    zone2_task.o(.text) refers to zone1_task.o(.text) for SystemPowerOn
    zone2_task.o(.text) refers to dspdrv.o(.text) for DSPFirmwareWrite
    zone2_task.o(.text) refers to channel.o(.text) for Zone2SelectChannel
    zone2_task.o(.text) refers to ioport.o(.text) for Zone2Mute
    zone2_task.o(.text) refers to task.o(.text) for IsCurFocusTid
    zone2_task.o(.text) refers to vfd_disp.o(.text) for SetVfdOwner
    zone2_task.o(.text) refers to timer.o(.text) for DelayMs
    zone2_task.o(.text) refers to tuner_new.o(.text) for InitTuner
    zone2_task.o(.text) refers to radio_task.o(.text) for LoadRadioPreset
    zone2_task.o(.text) refers to rs232_protocol.o(i.__ARM_common_switch8) for __ARM_common_switch8
    zone2_task.o(.text) refers to max335.o(.text) for SetMax335Switch
    zone2_task.o(.text) refers to zone1_task.o(.bss) for sys_flag
    zone2_task.o(.text) refers to menu_tbl.o(.constdata) for volume_table
    zone2_task.o(.text) refers to zone2_task.o(.data) for Zone2SrcName
    zone2_task.o(.text) refers to setup_func.o(.data) for SystemTriggerMode
    zone2_task.o(.text) refers to radio_task.o(.data) for HD_Radio_Power_Flag
    zone2_task.o(.text) refers to channel.o(.constdata) for zone2_analog_in_table
    zone2_task.o(.text) refers to hdmi.o(.text) for HdmiReadByte
    zone2_task.o(.text) refers to main.o(.text) for ProcDimerOff
    zone2_task.o(.text) refers to aeabi_sdiv.o(.text_udiv) for __aeabi_uidivmod
    zone2_task.o(.text) refers to fflt_noclz.o(x$fpl$fflt) for __aeabi_i2f
    zone2_task.o(.text) refers to volume.o(.text) for SetZone2Volume
    auto_sound.o(.text) refers to _printf_pad.o(.text) for _printf_pre_padding
    auto_sound.o(.text) refers to _printf_percent.o(.ARM.Collect$$_printf_percent$$00000000) for _printf_percent
    auto_sound.o(.text) refers to _printf_f.o(.ARM.Collect$$_printf_percent$$00000003) for _printf_f
    auto_sound.o(.text) refers to printf1.o(x$fpl$printf1) for _printf_fp_dec
    auto_sound.o(.text) refers to message.o(.text) for SendMessage
    auto_sound.o(.text) refers to task.o(.text) for GetCurFocusTid
    auto_sound.o(.text) refers to volume.o(.text) for SoftMute
    auto_sound.o(.text) refers to vfd_disp.o(.text) for VfdDisplayBlank
    auto_sound.o(.text) refers to zone1_task.o(.text) for MsgSetVfdShow
    auto_sound.o(.text) refers to channel.o(.text) for AnalogInputTypeSelect
    auto_sound.o(.text) refers to irc1_manager.o(.text) for DspReadIrc1
    auto_sound.o(.text) refers to dspdrv.o(.text) for ReConvert_8_24_Value
    auto_sound.o(.text) refers to f2d.o(x$fpl$f2d) for __aeabi_f2d
    auto_sound.o(.text) refers to d2f.o(x$fpl$d2f) for __aeabi_d2f
    auto_sound.o(.text) refers to feqf.o(x$fpl$feqf) for __aeabi_cfcmpeq
    auto_sound.o(.text) refers to fleqf.o(x$fpl$fleqf) for __aeabi_cfcmple
    auto_sound.o(.text) refers to faddsub_noclz.o(x$fpl$fadd) for __aeabi_fadd
    auto_sound.o(.text) refers to auto_sound.o(.data) for bak_id
    auto_sound.o(.text) refers to zone1_task.o(.bss) for sys_flag
    auto_sound.o(.text) refers to setup_func.o(.data) for speaker_table
    auto_sound.o(.text) refers to debug.o(.text) for assert_Function
    auto_sound.o(.text) refers to timer.o(.text) for DelayMs
    auto_sound.o(.text) refers to rs232_protocol.o(i.__ARM_common_switch8) for __ARM_common_switch8
    auto_sound.o(.text) refers to dac.o(.text) for Auto_Setup_DAC_Phase
    auto_sound.o(.text) refers to c11_msg_handler.o(.text) for SetDspIrc
    auto_sound.o(.text) refers to strlen.o(.text) for strlen
    auto_sound.o(.text) refers to irc2_manager.o(.text) for IsIrc2ValidResult
    auto_sound.o(.text) refers to auto_sound.o(.constdata) for eq_freq
    auto_sound.o(.text) refers to fflt_noclz.o(x$fpl$ffltu) for __aeabi_ui2f
    auto_sound.o(.text) refers to dmul.o(x$fpl$dmul) for __aeabi_dmul
    auto_sound.o(.text) refers to fdiv.o(x$fpl$fdiv) for __aeabi_fdiv
    auto_sound.o(.text) refers to frleqf.o(x$fpl$frleqf) for __aeabi_cfrcmple
    auto_sound.o(.text) refers to daddsub_noclz.o(x$fpl$drsb) for __aeabi_drsub
    auto_sound.o(.text) refers to drleqf.o(x$fpl$drleqf) for __aeabi_cdrcmple
    auto_sound.o(.text) refers to ffixu.o(x$fpl$ffixu) for __aeabi_f2uiz
    auto_sound.o(.text) refers to dflt_noclz.o(x$fpl$dflt) for __aeabi_i2d
    auto_sound.o(.text) refers to dleqf.o(x$fpl$dleqf) for __aeabi_cdcmple
    auto_sound.o(.text) refers to ddiv.o(x$fpl$ddiv) for __aeabi_ddiv
    auto_sound.o(.text) refers to __2sprintf.o(.text) for __2sprintf
    auto_sound.o(.text) refers to faddsub_noclz.o(x$fpl$fsub) for __aeabi_fsub
    auto_sound.o(.text) refers to fmul.o(x$fpl$fmul) for __aeabi_fmul
    auto_sound.o(.text) refers to ffix.o(x$fpl$ffix) for __aeabi_f2iz
    auto_sound.o(.text) refers to fflt_noclz.o(x$fpl$fflt) for __aeabi_i2f
    auto_sound.o(.text) refers to menu_tbl.o(.constdata) for balance_table
    auto_sound.o(.text) refers to rt_memcpy_w.o(.text) for __aeabi_memcpy4
    auto_sound.o(.text) refers to setup_func.o(.text) for SpkConfigSetup
    auto_sound.o(.text) refers to setup_menu.o(.data) for Movie_Music_Speaker_Flag
    auto_sound.o(.text) refers to dsp_task.o(.data) for dsp_power_flag
    auto_sound.o(.text) refers to task.o(i.__ARM_common_call_via_r1) for __ARM_common_call_via_r1
    auto_sound.o(.constdata) refers to auto_sound.o(.conststring) for .conststring
    auto_sound.o(.data) refers to auto_sound.o(.text) for ASProcSetupConfig
    radio_task.o(.text) refers to _printf_pad.o(.text) for _printf_pre_padding
    radio_task.o(.text) refers to _printf_percent.o(.ARM.Collect$$_printf_percent$$00000000) for _printf_percent
    radio_task.o(.text) refers to _printf_d.o(.ARM.Collect$$_printf_percent$$00000009) for _printf_d
    radio_task.o(.text) refers to _printf_dec.o(.text) for _printf_int_dec
    radio_task.o(.text) refers to message.o(.text) for SendMessage
    radio_task.o(.text) refers to aeabi_sdiv.o(.text_udiv) for __aeabi_uidivmod
    radio_task.o(.text) refers to eeprom.o(.text) for EepromWriteByte
    radio_task.o(.text) refers to debug.o(.text) for debug_printf
    radio_task.o(.text) refers to radio_task.o(.data) for current_radio_status
    radio_task.o(.text) refers to __2sprintf.o(.text) for __2sprintf
    radio_task.o(.text) refers to aeabi_sdiv.o(.text) for __aeabi_idivmod
    radio_task.o(.text) refers to vfd_disp.o(.text) for VfdDisplay
    radio_task.o(.text) refers to zone2_task.o(.text) for IsZone2PowerOn
    radio_task.o(.text) refers to rbds.o(.text) for RBDS_IsValid
    radio_task.o(.text) refers to strlen.o(.text) for strlen
    radio_task.o(.text) refers to timer.o(.text) for DelayMs
    radio_task.o(.text) refers to zone1_task.o(.bss) for sys_flag
    radio_task.o(.text) refers to radio_task.o(.bss) for Artist
    radio_task.o(.text) refers to timer.o(.data) for Tuner_Text_Count
    radio_task.o(.text) refers to dac.o(.text) for DacMute
    radio_task.o(.text) refers to task.o(.text) for SetCurFocusTid
    radio_task.o(.text) refers to ioport.o(.text) for HDRadioPower
    radio_task.o(.text) refers to volume.o(.text) for Set7Ch1MainVolume
    radio_task.o(.text) refers to tuner_new.o(.text) for InitTuner
    radio_task.o(.text) refers to c11_msg_handler.o(.text) for SetDspPower
    radio_task.o(.text) refers to channel.o(.text) for DigiSendByte
    radio_task.o(.text) refers to zone1_task.o(.text) for MsgSetVfdShow
    radio_task.o(.text) refers to ir.o(.text) for AddRemoteRepeatKey
    radio_task.o(.text) refers to menu_tbl.o(.constdata) for volume_table
    radio_task.o(.text) refers to dspdrv.o(.data) for last_stream
    radio_task.o(.text) refers to setup_func.o(.bss) for AnalogInMode
    radio_task.o(.text) refers to rs232_protocol.o(i.__ARM_common_switch8) for __ARM_common_switch8
    radio_task.o(.text) refers to rt_memcpy.o(.text) for __aeabi_memcpy
    radio_task.o(.text) refers to main.o(.text) for ProcDimerOff
    radio_task.o(.text) refers to zone1_task.o(.data) for HDRadio_FM_Flag
    radio_task.o(.text) refers to hdmi.o(.data) for Pre_value
    radio_task.o(.text) refers to key_task.o(.data) for key_enable
    uart.o(.text) refers to queue.o(.text) for InQueue
    uart.o(.text) refers to uart.o(.data) for protocol_queue_pointer
    uart.o(.text) refers to aeabi_sdiv.o(.text_udiv) for __aeabi_uidivmod
    uart.o(.text) refers to queue.o(.text) for InitQueue
    uart.o(.text) refers to uart.o(.text) for Uart0Isr
    uart.o(.text) refers to uart.o(.data) for protocol_queue_pointer
    uart.o(.data) refers to uart.o(.bss) for tuner_array
    cs8416.o(.text) refers to rt_memcpy_w.o(.text) for __aeabi_memcpy4
    cs8416.o(.text) refers to i2cdrv.o(.text) for I2C_bytewrite
    cs8416.o(.text) refers to debug.o(.text) for debug_printf
    cs8416.o(.text) refers to timer.o(.text) for DelayMs
    cs8416.o(.text) refers to cs8416.o(.constdata) for IIC_CS8416
    cs8416.o(.text) refers to cs8416.o(.data) for error_count
    cs8416.o(.constdata) refers to ioport.o(.text) for set_vfd_scl
    dac.o(.text) refers to ioport.o(.text) for SetIoport0
    dac.o(.text) refers to rs232_protocol.o(i.__ARM_common_switch8) for __ARM_common_switch8
    dac.o(.text) refers to i2cdrv.o(.text) for wait_timer
    dac.o(.text) refers to eeprom.o(.text) for EepromReadByte
    dac.o(.text) refers to setup_func.o(.text) for SetSpkPhase
    dac.o(.text) refers to debug.o(.text) for debug_printf
    eeprom.o(.text) refers to rt_memcpy_w.o(.text) for __aeabi_memcpy4
    eeprom.o(.text) refers to i2cdrv.o(.text) for I2C_bytewrite
    eeprom.o(.text) refers to debug.o(.text) for debug_printf
    eeprom.o(.text) refers to eeprom.o(.constdata) for IIC_EEPROM
    eeprom.o(.constdata) refers to ioport.o(.text) for set_scl1
    i2cdrv.o(.text) refers to task.o(i.__ARM_common_call_via_r1) for __ARM_common_call_via_r1
    i2cdrv.o(.text) refers to main.o(i.__ARM_common_call_via_r0) for __ARM_common_call_via_r0
    i2cdrv.o(.text) refers to debug.o(.text) for debug_printf
    i2cdrv.o(.text) refers to i2cdrv.o(.data) for need_to_stop
    ic165.o(.text) refers to ioport.o(.text) for SetIoport1
    ic4094.o(.text) refers to ioport.o(.text) for SetData4094
    ic4094.o(.text) refers to i2cdrv.o(.text) for wait_timer
    ic4094.o(.text) refers to debug.o(.text) for debug_printf
    ic4094.o(.text) refers to timer.o(.text) for DelayMs
    ic4094.o(.text) refers to task.o(.text) for SetCurFocusTid
    ic4094.o(.text) refers to ic4094.o(.data) for shadow_ext4094
    ioport.o(.text) refers to timer.o(.text) for DelayMs
    ioport.o(.text) refers to rs232_protocol.o(i.__ARM_common_switch8) for __ARM_common_switch8
    ioport.o(.text) refers to dsp_task.o(.data) for CD_8416_channel
    ioport.o(.text) refers to channel.o(.text) for SetTrigerOut
    ioport.o(.text) refers to ioport.o(.data) for front_enable_zone2_ir
    ioport.o(.text) refers to ioport.o(.text) for exint3
    ioport.o(.text) refers to ir.o(.text) for ir_core_philips
    ioport.o(.text) refers to ioport.o(.data) for eint3_timer_cnter
    ioport.o(.text) refers to setup_func.o(.data) for zone2_ir_mode
    ir.o(.text) refers to aeabi_memset.o(.text) for __aeabi_memset
    ir.o(.text) refers to dflt_noclz.o(x$fpl$dfltu) for __aeabi_ui2d
    ir.o(.text) refers to drleqf.o(x$fpl$drleqf) for __aeabi_cdrcmple
    ir.o(.text) refers to dleqf.o(x$fpl$dleqf) for __aeabi_cdcmple
    ir.o(.text) refers to ir.o(.data) for remote_repeat
    ir.o(.text) refers to ioport.o(.data) for front_enable_zone1_ir
    timer.o(.text) refers to key_task.o(.text) for GetEncoderSwitchThread
    timer.o(.text) refers to dspdrv.o(.text) for lpcm_20_config
    timer.o(.text) refers to radio_task.o(.text) for RadioDisplay
    timer.o(.text) refers to debug.o(.text) for debug_printf
    timer.o(.text) refers to queue.o(.text) for InitQueue
    timer.o(.text) refers to setup_menu.o(.text) for SetupFlashHandler
    timer.o(.text) refers to timer.o(.data) for system_delay_timer
    timer.o(.text) refers to radio_task.o(.data) for Tuner_Text_Disp_Flag
    timer.o(.text) refers to uart.o(.data) for tuner_queue_pointer
    timer.o(.text) refers to timer.o(.text) for timer0_irq
    timer.o(.text) refers to vfd_disp.o(.text) for VfdTimerHandler
    timer.o(.text) refers to zone1_task.o(.text) for RefreshHandle
    timer.o(.text) refers to ioport.o(.data) for eint1_timer_cnter
    timer.o(.text) refers to timer.o(.data) for system_delay_timer
    timer.o(.text) refers to radio_task.o(.data) for Tuner_Text_Disp_Flag
    timer.o(.text) refers to dspdrv.o(.data) for softmute_flag
    timer.o(.text) refers to zone1_task.o(.data) for DSP_HDMI_Setting_Flag
    vfddriver.o(.text) refers to rt_memcpy_w.o(.text) for __aeabi_memcpy4
    vfddriver.o(.text) refers to i2cdrv.o(.text) for I2CWriteNByte
    vfddriver.o(.text) refers to debug.o(.text) for debug_printf
    vfddriver.o(.text) refers to vfddriver.o(.constdata) for IIC_VFD
    vfddriver.o(.constdata) refers to ioport.o(.text) for set_vfd_scl
    mas9116.o(.text) refers to i2cdrv.o(.text) for wait_timer
    mas9116.o(.text) refers to ioport.o(.text) for SetIoport1
    mas9116.o(.text) refers to frleqf.o(x$fpl$frleqf) for __aeabi_cfrcmple
    mas9116.o(.text) refers to fmul.o(x$fpl$fmul) for __aeabi_fmul
    mas9116.o(.text) refers to faddsub_noclz.o(x$fpl$fadd) for __aeabi_fadd
    mas9116.o(.text) refers to ffixu.o(x$fpl$ffixu) for __aeabi_f2uiz
    volume.o(.text) refers to f2d.o(x$fpl$f2d) for __aeabi_f2d
    volume.o(.text) refers to debug.o(.text) for debug_printf
    volume.o(.text) refers to mas9116.o(.text) for Mas9116SetGain
    volume.o(.text) refers to faddsub_noclz.o(x$fpl$fadd) for __aeabi_fadd
    volume.o(.text) refers to fflt_noclz.o(x$fpl$fflt) for __aeabi_i2f
    volume.o(.text) refers to ic4094.o(.text) for Set_FLFR_Mas9116_Mute
    volume.o(.text) refers to timer.o(.text) for DelayMs
    volume.o(.text) refers to volume.o(.bss) for balance
    volume.o(.text) refers to volume.o(.data) for main_volume
    volume.o(.text) refers to volume.o(.constdata) for BalanceChannel
    max335.o(.text) refers to ioport.o(.text) for SetMax335Clk
    max335.o(.text) refers to i2cdrv.o(.text) for wait_timer
    max335.o(.text) refers to debug.o(.text) for debug_printf
    max335.o(.text) refers to max335.o(.data) for shadow_max335
    max335.o(.text) refers to max335.o(.constdata) for Max335SelTab
    channel.o(.text) refers to rt_memcpy_w.o(.text) for __aeabi_memcpy4
    channel.o(.text) refers to i2cdrv.o(.text) for I2C_bytewrite
    channel.o(.text) refers to debug.o(.text) for debug_printf
    channel.o(.text) refers to timer.o(.text) for DelayMs
    channel.o(.text) refers to ioport.o(.text) for SenseAnalogSignal
    channel.o(.text) refers to max335.o(.text) for SetMax335Switch
    channel.o(.text) refers to eeprom.o(.text) for EepromReadByte
    channel.o(.text) refers to dspdrv.o(.text) for DSPFirmwareWrite
    channel.o(.text) refers to channel.o(.constdata) for IIC_DIGI
    channel.o(.text) refers to channel.o(.data) for pre_channel
    channel.o(.text) refers to zone1_task.o(.bss) for sys_flag
    channel.o(.text) refers to dsp_task.o(.data) for dsp_power_flag
    channel.o(.text) refers to cs8416.o(.text) for CheckCs8416Unlock
    channel.o(.constdata) refers to ioport.o(.text) for set_scl2
    hdmi.o(.text) refers to rt_memcpy_w.o(.text) for __aeabi_memcpy4
    hdmi.o(.text) refers to i2cdrv.o(.text) for I2C_bytewrite
    hdmi.o(.text) refers to debug.o(.text) for debug_printf
    hdmi.o(.text) refers to rs232_protocol.o(i.__ARM_common_switch8) for __ARM_common_switch8
    hdmi.o(.text) refers to task.o(.text) for GetCurFocusTid
    hdmi.o(.text) refers to c11_msg_handler.o(.text) for SetDspPower
    hdmi.o(.text) refers to ioport.o(.text) for DSP_Input_Stream_Select
    hdmi.o(.text) refers to channel.o(.text) for DigiSendByte
    hdmi.o(.text) refers to dspdrv.o(.text) for DSPFirmwareWrite
    hdmi.o(.text) refers to max335.o(.text) for SetMax335Switch
    hdmi.o(.text) refers to cs8416.o(.text) for Cs8416GetFreq
    hdmi.o(.text) refers to dac.o(.text) for InitDSDMode
    hdmi.o(.text) refers to volume.o(.text) for SoftMute
    hdmi.o(.text) refers to zone1_task.o(.text) for MsgSetStream
    hdmi.o(.text) refers to dsp_api.o(.text) for DSP_API_Read
    hdmi.o(.text) refers to hdmi.o(.constdata) for IIC_HDMI
    hdmi.o(.text) refers to zone1_task.o(.bss) for sys_flag
    hdmi.o(.text) refers to timer.o(.data) for Hdmi_Stream_tick
    hdmi.o(.text) refers to hdmi.o(.data) for Pre_value
    hdmi.o(.text) refers to setup_func.o(.data) for CD_Pure_Audio
    hdmi.o(.text) refers to dsp_task.o(.data) for CD_8416_channel
    hdmi.o(.text) refers to dspdrv.o(.data) for last_stream
    hdmi.o(.constdata) refers to ioport.o(.text) for set_scl_hdmi
    dsp_spi.o(.text) refers to ioport.o(.text) for Set_Spi_Clk
    dsp_spi.o(.text) refers to debug.o(.text) for debug_printf
    dsp_spi.o(.text) refers to c11_msg_handler.o(.text) for SetDspPower
    dsp_spi.o(.text) refers to timer.o(.text) for DelayMs
    dsp_spi.o(.text) refers to zone1_task.o(.bss) for sys_flag
    dsp_spi.o(.text) refers to hdmi.o(.data) for Pre_value
    dsp_spi.o(.text) refers to dspdrv.o(.data) for last_stream
    tuner_new.o(.text) refers to uart.o(.text) for Uart1Send
    tuner_new.o(.text) refers to debug.o(.text) for debug_printf
    tuner_new.o(.text) refers to queue.o(.text) for IsQueueEmpty
    tuner_new.o(.text) refers to rs232_protocol.o(i.__ARM_common_switch8) for __ARM_common_switch8
    tuner_new.o(.text) refers to radio_task.o(.text) for SaveRadioStatus
    tuner_new.o(.text) refers to tuner_new.o(.data) for debug_flag
    tuner_new.o(.text) refers to uart.o(.data) for tuner_queue_pointer
    tuner_new.o(.text) refers to tuner_new.o(.bss) for idmdata
    tuner_new.o(.text) refers to radio_task.o(.data) for current_radio_mode
    tuner_new.o(.text) refers to timer.o(.text) for DelayMs
    tuner_new.o(.text) refers to rbds.o(.text) for RBDS_Decode
    tuner_new.o(.text) refers to rt_memcpy.o(.text) for __aeabi_memcpy
    tuner_new.o(.text) refers to aeabi_sdiv.o(.text_udiv) for __aeabi_uidivmod
    rbds.o(.text) refers to aeabi_sdiv.o(.text_udiv) for __aeabi_uidivmod
    rbds.o(.text) refers to rt_memclr.o(.text) for __aeabi_memclr
    rbds.o(.text) refers to tuner_new.o(.text) for EnableRBDS
    rbds.o(.text) refers to debug.o(.text) for debug_printf
    rbds.o(.text) refers to rbds.o(.data) for btSegAddr
    rbds.o(.text) refers to radio_task.o(.bss) for Artist
    audiomanager.o(.text) refers to debug.o(.text) for debug_printf
    audiomanager.o(.text) refers to dspdrv.o(.text) for DSPFirmwareWrite
    audiomanager.o(.text) refers to dsp_spi.o(.text) for DspSpiWriteNByte
    audiomanager.o(.text) refers to dsp_task.o(.data) for dsp_power_flag
    audiomanager.o(.text) refers to dspdrv.o(.bss) for dsp_buf
    bassmanager.o(.text) refers to fdiv.o(x$fpl$fdiv) for __aeabi_fdiv
    bassmanager.o(.text) refers to f2d.o(x$fpl$f2d) for __aeabi_f2d
    bassmanager.o(.text) refers to pow.o(i.pow) for pow
    bassmanager.o(.text) refers to d2f.o(x$fpl$d2f) for __aeabi_d2f
    bassmanager.o(.text) refers to fmul.o(x$fpl$fmul) for __aeabi_fmul
    bassmanager.o(.text) refers to ffixu.o(x$fpl$ffixu) for __aeabi_f2uiz
    bassmanager.o(.text) refers to dsp_spi.o(.text) for DspSpiWriteNByte
    bassmanager.o(.text) refers to rs232_protocol.o(i.__ARM_common_switch8) for __ARM_common_switch8
    bassmanager.o(.text) refers to dspdrv.o(.bss) for dsp_buf
    bassmanager.o(.text) refers to dspdrv.o(.data) for system_spk_mode
    bassmanager.o(.text) refers to dspdrv.o(.text) for DSPFirmwareWrite
    bassmanager.o(.text) refers to bassmanager.o(.bss) for dsp_bass_corner
    bassmanager.o(.text) refers to dsp_task.o(.data) for dsp_power_flag
    delaymanager.o(.text) refers to dsp_spi.o(.text) for DspSpiWriteNByte
    delaymanager.o(.text) refers to rs232_protocol.o(i.__ARM_common_switch8) for __ARM_common_switch8
    delaymanager.o(.text) refers to timer.o(.text) for DelayMs
    delaymanager.o(.text) refers to dspdrv.o(.bss) for dsp_buf
    delaymanager.o(.text) refers to delaymanager.o(.bss) for dsp_delay_time
    delaymanager.o(.text) refers to dsp_task.o(.data) for dsp_power_flag
    delaymanager.o(.text) refers to dspdrv.o(.text) for ReadDsp
    dolbymanager.o(.text) refers to dsp_spi.o(.text) for DspSpiWriteNByte
    dolbymanager.o(.text) refers to dspdrv.o(.text) for ReadDsp
    dolbymanager.o(.text) refers to dspdrv.o(.bss) for dsp_buf
    dolbyprologicii.o(.text) refers to dsp_spi.o(.text) for DspSpiWriteNByte
    dolbyprologicii.o(.text) refers to rs232_protocol.o(i.__ARM_common_switch8) for __ARM_common_switch8
    dolbyprologicii.o(.text) refers to dspdrv.o(.bss) for dsp_buf
    dolbyprologiciix.o(.text) refers to dsp_spi.o(.text) for DspSpiWriteNByte
    dolbyprologiciix.o(.text) refers to rs232_protocol.o(i.__ARM_common_switch8) for __ARM_common_switch8
    dolbyprologiciix.o(.text) refers to dspdrv.o(.text) for ReadDsp
    dolbyprologiciix.o(.text) refers to dspdrv.o(.bss) for dsp_buf
    dsp_task.o(.text) refers to debug.o(.text) for debug_printf
    dsp_task.o(.text) refers to timer.o(.text) for DelayMs
    dsp_task.o(.text) refers to dspdrv.o(.text) for DspProcUnsolicitedMsg
    dsp_task.o(.text) refers to rt_memcpy.o(.text) for __aeabi_memcpy
    dsp_task.o(.text) refers to ioport.o(.text) for SenseAnalogSignal
    dsp_task.o(.text) refers to zone1_task.o(.text) for ProcInputSelect
    dsp_task.o(.text) refers to dsp_spi.o(.text) for DspSpiReadNByte
    dsp_task.o(.text) refers to cs8416.o(.text) for Cs8416GetFreq
    dsp_task.o(.text) refers to dspdrv.o(.bss) for dsp_buf
    dsp_task.o(.text) refers to dspdrv.o(.data) for Pre_DTS_Type
    dsp_task.o(.text) refers to dsp_task.o(.data) for current_ac3_stream
    dsp_task.o(.text) refers to channel.o(.data) for Analog_Input_To_Dsp_Flag
    dsp_task.o(.text) refers to zone1_task.o(.bss) for sys_flag
    dsp_task.o(.text) refers to timer.o(.data) for dsp_time_tick
    dsp_task.o(.text) refers to setup_func.o(.data) for CD_Pure_Audio
    dspdrv.o(.text) refers to aeabi_sdiv.o(.text) for __aeabi_idivmod
    dspdrv.o(.text) refers to fflt_noclz.o(x$fpl$fflt) for __aeabi_i2f
    dspdrv.o(.text) refers to fmul.o(x$fpl$fmul) for __aeabi_fmul
    dspdrv.o(.text) refers to ffix.o(x$fpl$ffix) for __aeabi_f2iz
    dspdrv.o(.text) refers to fdiv.o(x$fpl$fdiv) for __aeabi_fdiv
    dspdrv.o(.text) refers to dolbyprologicii.o(.text) for DSP_PLII_DECODE_MODE
    dspdrv.o(.text) refers to bassmanager.o(.text) for SetBassManagerSpeaker
    dspdrv.o(.text) refers to rs232_protocol.o(i.__ARM_common_switch8) for __ARM_common_switch8
    dspdrv.o(.text) refers to delaymanager.o(.text) for DSP_Delay_Channel_Setting
    dspdrv.o(.text) refers to signalgenerator.o(.text) for DSP_SGEN_CHANNEL_ENABLE
    dspdrv.o(.text) refers to dac.o(.text) for DacMute
    dspdrv.o(.text) refers to dsp_api.o(.text) for Change_DSP_VIRTUALIZER_Code
    dspdrv.o(.text) refers to timer.o(.text) for DelayMs
    dspdrv.o(.text) refers to irc1_manager.o(.text) for DSP_IRC1_Test_Duration
    dspdrv.o(.text) refers to irc2_manager.o(.text) for Dsp_IRC2_Speaker_Select
    dspdrv.o(.text) refers to zone1_task.o(.bss) for sys_flag
    dspdrv.o(.text) refers to dspdrv.o(.data) for system_spk_mode
    dspdrv.o(.text) refers to setup_menu.o(.data) for Movie_Music_Speaker_Flag
    dspdrv.o(.text) refers to delaymanager.o(.bss) for dsp_delay_time
    dspdrv.o(.text) refers to dsp_task.o(.data) for dsp_power_flag
    dspdrv.o(.text) refers to bassmanager.o(.bss) for dsp_bass_corner
    dspdrv.o(.text) refers to os_manager.o(.text) for OS_OUTPUT_MODE_CONTROL
    dspdrv.o(.text) refers to debug.o(.text) for debug_printf
    dspdrv.o(.text) refers to eq_manager.o(.text) for DSP_EQ_Firmware_Init
    dspdrv.o(.text) refers to eeprom.o(.text) for EepromReadByte
    dspdrv.o(.text) refers to volume.o(.text) for SoftMute
    dspdrv.o(.text) refers to channel.o(.text) for Zone2SelectChannel
    dspdrv.o(.text) refers to dsp_spi.o(.text) for DspSpiReadNByte
    dspdrv.o(.text) refers to ioport.o(.text) for DSPHwReset
    dspdrv.o(.text) refers to zone1_task.o(.data) for DSP_HDMI_Setting_Flag
    dspdrv.o(.text) refers to dspdrv.o(.bss) for dsp_buf
    dspdrv.o(.text) refers to zone1_task.o(.text) for MsgSetDSPSetting
    dspdrv.o(.text) refers to dolbymanager.o(.text) for DSP_AC3_DRC_INIT
    dspdrv.o(.text) refers to dolbytruehd.o(.text) for DSP_TRUEHD_DRC_INIT
    dspdrv.o(.text) refers to c11_msg_handler.o(.text) for SetDspPower
    dspdrv.o(.text) refers to cs8416.o(.text) for Cs8416GetFreq
    dspdrv.o(.text) refers to hdmi.o(.text) for HdmiReadByte
    dspdrv.o(.text) refers to timer.o(.data) for pcm20_delay_timer
    eq_manager.o(.text) refers to fmul.o(x$fpl$fmul) for __aeabi_fmul
    eq_manager.o(.text) refers to ffixu.o(x$fpl$ffixu) for __aeabi_f2uiz
    eq_manager.o(.text) refers to frleqf.o(x$fpl$frleqf) for __aeabi_cfrcmple
    eq_manager.o(.text) refers to dsp_spi.o(.text) for DspSpiWriteNByte
    eq_manager.o(.text) refers to rs232_protocol.o(i.__ARM_common_switch8) for __ARM_common_switch8
    eq_manager.o(.text) refers to dspdrv.o(.bss) for dsp_buf
    eq_manager.o(.text) refers to dspdrv.o(.text) for GetNormalFreq
    eq_manager.o(.text) refers to debug.o(.text) for debug_printf
    eq_manager.o(.text) refers to f2d.o(x$fpl$f2d) for __aeabi_f2d
    eq_manager.o(.text) refers to fflt_noclz.o(x$fpl$fflt) for __aeabi_i2f
    eq_manager.o(.text) refers to zone1_task.o(.bss) for sys_flag
    eq_manager.o(.text) refers to dsp_task.o(.data) for dsp_power_flag
    eq_manager.o(.text) refers to eq_manager.o(.constdata) for freq_table
    eq_manager.o(.text) refers to eq_manager.o(.bss) for dsp_eq_table
    eq_manager.o(.text) refers to setup_menu.o(.data) for Movie_Music_Speaker_Flag
    eq_manager.o(.text) refers to dspdrv.o(.data) for PreDspMode
    eq_manager.o(.text) refers to ioport.o(.text) for SenseDspIrq
    eq_manager.o(.text) refers to timer.o(.text) for DelayMs
    irc1_manager.o(.text) refers to fmul.o(x$fpl$fmul) for __aeabi_fmul
    irc1_manager.o(.text) refers to ffixu.o(x$fpl$ffixu) for __aeabi_f2uiz
    irc1_manager.o(.text) refers to dspdrv.o(.text) for DSPFirmwareWrite
    irc1_manager.o(.text) refers to dsp_spi.o(.text) for DspSpiWriteNByte
    irc1_manager.o(.text) refers to irc1_manager.o(.constdata) for MIC_YOGE_BM38_parameter
    irc1_manager.o(.text) refers to dspdrv.o(.bss) for dsp_buf
    irc2_manager.o(.text) refers to dsp_spi.o(.text) for DspSpiWriteNByte
    irc2_manager.o(.text) refers to dspdrv.o(.text) for ReadDsp
    irc2_manager.o(.text) refers to dspdrv.o(.bss) for dsp_buf
    os_manager.o(.text) refers to dsp_spi.o(.text) for DspSpiWriteNByte
    os_manager.o(.text) refers to dspdrv.o(.text) for ReadDsp
    os_manager.o(.text) refers to dspdrv.o(.bss) for dsp_buf
    pcm_manager.o(.text) refers to dsp_spi.o(.text) for DspSpiWriteNByte
    pcm_manager.o(.text) refers to dspdrv.o(.text) for ReadDsp
    pcm_manager.o(.text) refers to dspdrv.o(.bss) for dsp_buf
    signalgenerator.o(.text) refers to dspdrv.o(.text) for DSPFirmwareWrite
    signalgenerator.o(.text) refers to rs232_protocol.o(i.__ARM_common_switch8) for __ARM_common_switch8
    signalgenerator.o(.text) refers to dsp_spi.o(.text) for DspSpiWriteNByte
    signalgenerator.o(.text) refers to dspdrv.o(.bss) for dsp_buf
    dts_es_manager.o(.text) refers to dsp_spi.o(.text) for DspSpiWriteNByte
    dts_es_manager.o(.text) refers to dspdrv.o(.bss) for dsp_buf
    dts_manager.o(.text) refers to dsp_spi.o(.text) for DspSpiWriteNByte
    dts_manager.o(.text) refers to dspdrv.o(.text) for ReadDsp
    dts_manager.o(.text) refers to dspdrv.o(.bss) for dsp_buf
    dts_neo6_manager.o(.text) refers to dsp_spi.o(.text) for DspSpiWriteNByte
    dts_neo6_manager.o(.text) refers to dspdrv.o(.text) for ReadDsp
    dts_neo6_manager.o(.text) refers to dspdrv.o(.bss) for dsp_buf
    dolbyplusmanager.o(.text) refers to dsp_spi.o(.text) for DspSpiWriteNByte
    dolbyplusmanager.o(.text) refers to dspdrv.o(.text) for ReadDsp
    dolbyplusmanager.o(.text) refers to dspdrv.o(.bss) for dsp_buf
    dolbytruehd.o(.text) refers to dsp_spi.o(.text) for DspSpiWriteNByte
    dolbytruehd.o(.text) refers to rs232_protocol.o(i.__ARM_common_switch8) for __ARM_common_switch8
    dolbytruehd.o(.text) refers to dspdrv.o(.text) for ReadDsp
    dolbytruehd.o(.text) refers to dspdrv.o(.bss) for dsp_buf
    dsp_api.o(.text) refers to rs232_protocol.o(i.__ARM_common_switch8) for __ARM_common_switch8
    dsp_api.o(.text) refers to dsp_spi.o(.text) for DspSpiWriteNByte
    dsp_api.o(.text) refers to dspdrv.o(.bss) for dsp_buf
    dsp_api.o(.text) refers to debug.o(.text) for debug_printf
    dsp_api.o(.text) refers to zone1_task.o(.text) for Zone1Mute
    dsp_api.o(.text) refers to timer.o(.text) for DelayMs
    dsp_api.o(.text) refers to zone1_task.o(.bss) for sys_flag
    dsp_api.o(.text) refers to dspdrv.o(.data) for PcmType
    dsp_api.o(.text) refers to dspdrv.o(.text) for ReadDsp
    dolbyheadphone.o(.text) refers to dsp_spi.o(.text) for DspSpiWriteNByte
    dolbyheadphone.o(.text) refers to dspdrv.o(.bss) for dsp_buf
    c89vsprintf.o(.text) refers (Special) to _printf_a.o(.ARM.Collect$$_printf_percent$$00000006) for _printf_a
    c89vsprintf.o(.text) refers (Special) to _printf_c.o(.ARM.Collect$$_printf_percent$$00000013) for _printf_c
    c89vsprintf.o(.text) refers (Special) to _printf_charcount.o(.text) for _printf_charcount
    c89vsprintf.o(.text) refers (Special) to _printf_d.o(.ARM.Collect$$_printf_percent$$00000009) for _printf_d
    c89vsprintf.o(.text) refers (Special) to _printf_e.o(.ARM.Collect$$_printf_percent$$00000004) for _printf_e
    c89vsprintf.o(.text) refers (Special) to _printf_f.o(.ARM.Collect$$_printf_percent$$00000003) for _printf_f
    c89vsprintf.o(.text) refers (Special) to printf1.o(x$fpl$printf1) for _printf_fp_dec
    c89vsprintf.o(.text) refers (Special) to _printf_g.o(.ARM.Collect$$_printf_percent$$00000005) for _printf_g
    c89vsprintf.o(.text) refers (Special) to _printf_i.o(.ARM.Collect$$_printf_percent$$00000008) for _printf_i
    c89vsprintf.o(.text) refers (Special) to _printf_dec.o(.text) for _printf_int_dec
    c89vsprintf.o(.text) refers (Special) to _printf_l.o(.ARM.Collect$$_printf_percent$$00000012) for _printf_l
    c89vsprintf.o(.text) refers (Special) to _printf_lc.o(.ARM.Collect$$_printf_percent$$00000015) for _printf_lc
    c89vsprintf.o(.text) refers (Special) to _printf_ll.o(.ARM.Collect$$_printf_percent$$00000007) for _printf_ll
    c89vsprintf.o(.text) refers (Special) to _printf_lld.o(.ARM.Collect$$_printf_percent$$0000000E) for _printf_lld
    c89vsprintf.o(.text) refers (Special) to _printf_lli.o(.ARM.Collect$$_printf_percent$$0000000D) for _printf_lli
    c89vsprintf.o(.text) refers (Special) to _printf_llo.o(.ARM.Collect$$_printf_percent$$00000010) for _printf_llo
    c89vsprintf.o(.text) refers (Special) to _printf_llu.o(.ARM.Collect$$_printf_percent$$0000000F) for _printf_llu
    c89vsprintf.o(.text) refers (Special) to _printf_llx.o(.ARM.Collect$$_printf_percent$$00000011) for _printf_llx
    c89vsprintf.o(.text) refers (Special) to _printf_longlong_dec.o(.text) for _printf_longlong_dec
    c89vsprintf.o(.text) refers (Special) to _printf_hex_int_ll_ptr.o(.text) for _printf_longlong_hex
    c89vsprintf.o(.text) refers (Special) to _printf_oct_int_ll.o(.text) for _printf_longlong_oct
    c89vsprintf.o(.text) refers (Special) to _printf_ls.o(.ARM.Collect$$_printf_percent$$00000016) for _printf_ls
    c89vsprintf.o(.text) refers (Special) to _printf_n.o(.ARM.Collect$$_printf_percent$$00000001) for _printf_n
    c89vsprintf.o(.text) refers (Special) to _printf_o.o(.ARM.Collect$$_printf_percent$$0000000B) for _printf_o
    c89vsprintf.o(.text) refers (Special) to _printf_p.o(.ARM.Collect$$_printf_percent$$00000002) for _printf_p
    c89vsprintf.o(.text) refers (Special) to _printf_percent.o(.ARM.Collect$$_printf_percent$$00000000) for _printf_percent
    c89vsprintf.o(.text) refers (Special) to _printf_pad.o(.text) for _printf_post_padding
    c89vsprintf.o(.text) refers (Special) to _printf_s.o(.ARM.Collect$$_printf_percent$$00000014) for _printf_s
    c89vsprintf.o(.text) refers (Special) to _printf_str.o(.text) for _printf_str
    c89vsprintf.o(.text) refers (Special) to _printf_truncate.o(.text) for _printf_truncate_signed
    c89vsprintf.o(.text) refers (Special) to _printf_u.o(.ARM.Collect$$_printf_percent$$0000000A) for _printf_u
    c89vsprintf.o(.text) refers (Special) to _printf_wctomb.o(.text) for _printf_wctomb
    c89vsprintf.o(.text) refers (Special) to _printf_x.o(.ARM.Collect$$_printf_percent$$0000000C) for _printf_x
    c89vsprintf.o(.text) refers to _printf_char_common.o(.text) for _printf_char_common
    c89vsprintf.o(.text) refers to _sputc.o(.text) for _sputc
    __2sprintf.o(.text) refers to _printf_char_common.o(.text) for _printf_char_common
    __2sprintf.o(.text) refers to _sputc.o(.text) for _sputc
    noretval__2sprintf.o(.text) refers to _printf_char_common.o(.text) for _printf_char_common
    noretval__2sprintf.o(.text) refers to _sputc.o(.text) for _sputc
    __printf.o(.text) refers to task.o(i.__ARM_common_call_via_r1) for __ARM_common_call_via_r1
    __printf.o(.text) refers to _printf_percent.o(.ARM.Collect$$_printf_percent$$00000000) for _printf_percent
    __printf.o(.text) refers to rs232_protocol.o(i.__ARM_common_call_via_r2) for __ARM_common_call_via_r2
    _printf_pad.o(.text) refers to rs232_protocol.o(i.__ARM_common_call_via_r2) for __ARM_common_call_via_r2
    _printf_dec.o(.text) refers (Weak) to _printf_truncate.o(.text) for _printf_truncate_signed
    _printf_dec.o(.text) refers (Weak) to _printf_truncate.o(.text) for _printf_truncate_unsigned
    _printf_dec.o(.text) refers to rtudiv10.o(.text) for __rt_udiv10
    _printf_dec.o(.text) refers to _printf_intcommon.o(.text) for _printf_int_common
    __printf_flags.o(.text) refers to task.o(i.__ARM_common_call_via_r1) for __ARM_common_call_via_r1
    __printf_flags.o(.text) refers to _printf_percent.o(.ARM.Collect$$_printf_percent$$00000000) for _printf_percent
    __printf_flags.o(.text) refers to rs232_protocol.o(i.__ARM_common_call_via_r2) for __ARM_common_call_via_r2
    __printf_flags.o(.text) refers to __printf_flags.o(.constdata) for .constdata
    __printf_ss.o(.text) refers to task.o(i.__ARM_common_call_via_r1) for __ARM_common_call_via_r1
    __printf_ss.o(.text) refers to _printf_percent.o(.ARM.Collect$$_printf_percent$$00000000) for _printf_percent
    __printf_ss.o(.text) refers to rs232_protocol.o(i.__ARM_common_call_via_r2) for __ARM_common_call_via_r2
    __printf_flags_ss.o(.text) refers to task.o(i.__ARM_common_call_via_r1) for __ARM_common_call_via_r1
    __printf_flags_ss.o(.text) refers to _printf_percent.o(.ARM.Collect$$_printf_percent$$00000000) for _printf_percent
    __printf_flags_ss.o(.text) refers to rs232_protocol.o(i.__ARM_common_call_via_r2) for __ARM_common_call_via_r2
    __printf_flags_ss.o(.text) refers to __printf_flags_ss.o(.constdata) for .constdata
    __printf_wp.o(.text) refers to task.o(i.__ARM_common_call_via_r1) for __ARM_common_call_via_r1
    __printf_wp.o(.text) refers to __printf_wp.o(i._is_digit) for _is_digit
    __printf_wp.o(.text) refers to _printf_percent.o(.ARM.Collect$$_printf_percent$$00000000) for _printf_percent
    __printf_wp.o(.text) refers to rs232_protocol.o(i.__ARM_common_call_via_r2) for __ARM_common_call_via_r2
    __printf_flags_wp.o(.text) refers to task.o(i.__ARM_common_call_via_r1) for __ARM_common_call_via_r1
    __printf_flags_wp.o(.text) refers to __printf_wp.o(i._is_digit) for _is_digit
    __printf_flags_wp.o(.text) refers to _printf_percent.o(.ARM.Collect$$_printf_percent$$00000000) for _printf_percent
    __printf_flags_wp.o(.text) refers to rs232_protocol.o(i.__ARM_common_call_via_r2) for __ARM_common_call_via_r2
    __printf_flags_wp.o(.text) refers to __printf_flags_wp.o(.constdata) for .constdata
    __printf_ss_wp.o(.text) refers to task.o(i.__ARM_common_call_via_r1) for __ARM_common_call_via_r1
    __printf_ss_wp.o(.text) refers to __printf_wp.o(i._is_digit) for _is_digit
    __printf_ss_wp.o(.text) refers to _printf_percent.o(.ARM.Collect$$_printf_percent$$00000000) for _printf_percent
    __printf_ss_wp.o(.text) refers to rs232_protocol.o(i.__ARM_common_call_via_r2) for __ARM_common_call_via_r2
    __printf_flags_ss_wp.o(.text) refers to task.o(i.__ARM_common_call_via_r1) for __ARM_common_call_via_r1
    __printf_flags_ss_wp.o(.text) refers to __printf_wp.o(i._is_digit) for _is_digit
    __printf_flags_ss_wp.o(.text) refers to _printf_percent.o(.ARM.Collect$$_printf_percent$$00000000) for _printf_percent
    __printf_flags_ss_wp.o(.text) refers to rs232_protocol.o(i.__ARM_common_call_via_r2) for __ARM_common_call_via_r2
    __printf_flags_ss_wp.o(.text) refers to __printf_flags_ss_wp.o(.constdata) for .constdata
    _printf_d.o(.ARM.Collect$$_printf_percent$$00000009) refers (Weak) to _printf_dec.o(.text) for _printf_int_dec
    _printf_f.o(.ARM.Collect$$_printf_percent$$00000003) refers (Weak) to printf1.o(x$fpl$printf1) for _printf_fp_dec
    _printf_percent.o(.ARM.Collect$$_printf_percent$$00000000) refers (Special) to _printf_percent_end.o(.ARM.Collect$$_printf_percent$$00000017) for _printf_percent_end
    rt_memcpy.o(.text) refers to rt_memcpy_w.o(.text) for __aeabi_memcpy4
    aeabi_memset.o(.text) refers to rt_memclr.o(.text) for _memset
    rt_memclr.o(.text) refers to rt_memclr_w.o(.text) for _memset_w
    strncpy.o(.text) refers to rt_memclr.o(.text) for __aeabi_memclr
    aeabi_sdiv.o(.text_udiv) refers to aeabi_sdiv.o(.text) for __arm_div2
    aeabi_sdiv_div0.o(.text_udiv) refers to aeabi_sdiv_div0.o(.text) for __arm_div2
    __main.o(!!!main) refers to rtentry.o(.ARM.Collect$$rtentry$$00000000) for __rt_entry
    d2f.o(x$fpl$d2f) refers (Special) to usenofp.o(x$fpl$usenofp) for __I$use$fp
    d2f.o(x$fpl$d2f) refers to fretinf.o(x$fpl$fretinf) for __fpl_fretinf
    d2f.o(x$fpl$d2f) refers to dnaninf.o(x$fpl$dnaninf) for __fpl_dnaninf
    daddsub_noclz.o(x$fpl$dadd) refers (Special) to usenofp.o(x$fpl$usenofp) for __I$use$fp
    daddsub_noclz.o(x$fpl$dadd) refers to daddsub_noclz.o(x$fpl$dsub) for _dsub1
    daddsub_noclz.o(x$fpl$dadd) refers to dretinf.o(x$fpl$dretinf) for __fpl_dretinf
    daddsub_noclz.o(x$fpl$dadd) refers to dnaninf.o(x$fpl$dnaninf) for __fpl_dnaninf
    daddsub_noclz.o(x$fpl$drsb) refers (Special) to usenofp.o(x$fpl$usenofp) for __I$use$fp
    daddsub_noclz.o(x$fpl$drsb) refers to daddsub_noclz.o(x$fpl$dadd) for _dadd1
    daddsub_noclz.o(x$fpl$drsb) refers to daddsub_noclz.o(x$fpl$dsub) for _dsub1
    daddsub_noclz.o(x$fpl$dsub) refers (Special) to usenofp.o(x$fpl$usenofp) for __I$use$fp
    daddsub_noclz.o(x$fpl$dsub) refers to daddsub_noclz.o(x$fpl$dadd) for _dadd1
    daddsub_noclz.o(x$fpl$dsub) refers to dnaninf.o(x$fpl$dnaninf) for __fpl_dnaninf
    ddiv.o(x$fpl$drdiv) refers (Special) to usenofp.o(x$fpl$usenofp) for __I$use$fp
    ddiv.o(x$fpl$drdiv) refers to ddiv.o(x$fpl$ddiv) for ddiv_entry
    ddiv.o(x$fpl$ddiv) refers (Special) to usenofp.o(x$fpl$usenofp) for __I$use$fp
    ddiv.o(x$fpl$ddiv) refers to dretinf.o(x$fpl$dretinf) for __fpl_dretinf
    ddiv.o(x$fpl$ddiv) refers to dnaninf.o(x$fpl$dnaninf) for __fpl_dnaninf
    dflt_noclz.o(x$fpl$dfltu) refers (Special) to usenofp.o(x$fpl$usenofp) for __I$use$fp
    dflt_noclz.o(x$fpl$dfltu) refers to dflt_noclz.o(x$fpl$dflt) for __dflt_normalise
    dflt_noclz.o(x$fpl$dflt) refers (Special) to usenofp.o(x$fpl$usenofp) for __I$use$fp
    dleqf.o(x$fpl$dleqf) refers (Special) to usenofp.o(x$fpl$usenofp) for __I$use$fp
    dleqf.o(x$fpl$dleqf) refers to dnaninf.o(x$fpl$dnaninf) for __fpl_dnaninf
    dleqf.o(x$fpl$dleqf) refers to dcmpi.o(x$fpl$dcmpinf) for __fpl_dcmp_Inf
    dmul.o(x$fpl$dmul) refers (Special) to usenofp.o(x$fpl$usenofp) for __I$use$fp
    dmul.o(x$fpl$dmul) refers to dretinf.o(x$fpl$dretinf) for __fpl_dretinf
    dmul.o(x$fpl$dmul) refers to dnaninf.o(x$fpl$dnaninf) for __fpl_dnaninf
    drleqf.o(x$fpl$drleqf) refers (Special) to usenofp.o(x$fpl$usenofp) for __I$use$fp
    drleqf.o(x$fpl$drleqf) refers to dleqf.o(x$fpl$dleqf) for __fpl_dcmple_InfNaN
    f2d.o(x$fpl$f2d) refers (Special) to usenofp.o(x$fpl$usenofp) for __I$use$fp
    f2d.o(x$fpl$f2d) refers to fnaninf.o(x$fpl$fnaninf) for __fpl_fnaninf
    f2d.o(x$fpl$f2d) refers to dretinf.o(x$fpl$dretinf) for __fpl_dretinf
    faddsub_noclz.o(x$fpl$fadd) refers (Special) to usenofp.o(x$fpl$usenofp) for __I$use$fp
    faddsub_noclz.o(x$fpl$fadd) refers to faddsub_noclz.o(x$fpl$fsub) for _fsub1
    faddsub_noclz.o(x$fpl$fadd) refers to fretinf.o(x$fpl$fretinf) for __fpl_fretinf
    faddsub_noclz.o(x$fpl$fadd) refers to fnaninf.o(x$fpl$fnaninf) for __fpl_fnaninf
    faddsub_noclz.o(x$fpl$frsb) refers (Special) to usenofp.o(x$fpl$usenofp) for __I$use$fp
    faddsub_noclz.o(x$fpl$frsb) refers to faddsub_noclz.o(x$fpl$fadd) for _fadd1
    faddsub_noclz.o(x$fpl$frsb) refers to faddsub_noclz.o(x$fpl$fsub) for _fsub1
    faddsub_noclz.o(x$fpl$fsub) refers (Special) to usenofp.o(x$fpl$usenofp) for __I$use$fp
    faddsub_noclz.o(x$fpl$fsub) refers to faddsub_noclz.o(x$fpl$fadd) for _fadd1
    faddsub_noclz.o(x$fpl$fsub) refers to fnaninf.o(x$fpl$fnaninf) for __fpl_fnaninf
    fdiv.o(x$fpl$frdiv) refers (Special) to usenofp.o(x$fpl$usenofp) for __I$use$fp
    fdiv.o(x$fpl$frdiv) refers to fdiv.o(x$fpl$fdiv) for _fdiv1
    fdiv.o(x$fpl$fdiv) refers (Special) to usenofp.o(x$fpl$usenofp) for __I$use$fp
    fdiv.o(x$fpl$fdiv) refers to fretinf.o(x$fpl$fretinf) for __fpl_fretinf
    fdiv.o(x$fpl$fdiv) refers to fnaninf.o(x$fpl$fnaninf) for __fpl_fnaninf
    feqf.o(x$fpl$feqf) refers (Special) to usenofp.o(x$fpl$usenofp) for __I$use$fp
    feqf.o(x$fpl$feqf) refers to fnaninf.o(x$fpl$fnaninf) for __fpl_fnaninf
    feqf.o(x$fpl$feqf) refers to fcmpi.o(x$fpl$fcmpinf) for __fpl_fcmp_Inf
    ffix.o(x$fpl$ffix) refers (Special) to usenofp.o(x$fpl$usenofp) for __I$use$fp
    ffix.o(x$fpl$ffix) refers to fnaninf.o(x$fpl$fnaninf) for __fpl_fnaninf
    ffix.o(x$fpl$ffixr) refers (Special) to usenofp.o(x$fpl$usenofp) for __I$use$fp
    ffix.o(x$fpl$ffixr) refers to fnaninf.o(x$fpl$fnaninf) for __fpl_fnaninf
    ffixu.o(x$fpl$ffixu) refers (Special) to usenofp.o(x$fpl$usenofp) for __I$use$fp
    ffixu.o(x$fpl$ffixu) refers to fnaninf.o(x$fpl$fnaninf) for __fpl_fnaninf
    ffixu.o(x$fpl$ffixur) refers (Special) to usenofp.o(x$fpl$usenofp) for __I$use$fp
    ffixu.o(x$fpl$ffixur) refers to fnaninf.o(x$fpl$fnaninf) for __fpl_fnaninf
    fflt_noclz.o(x$fpl$ffltu) refers (Special) to usenofp.o(x$fpl$usenofp) for __I$use$fp
    fflt_noclz.o(x$fpl$ffltu) refers to fflt_noclz.o(x$fpl$fflt) for __fflt_normalise
    fflt_noclz.o(x$fpl$fflt) refers (Special) to usenofp.o(x$fpl$usenofp) for __I$use$fp
    fleqf.o(x$fpl$fleqf) refers (Special) to usenofp.o(x$fpl$usenofp) for __I$use$fp
    fleqf.o(x$fpl$fleqf) refers to fnaninf.o(x$fpl$fnaninf) for __fpl_fnaninf
    fleqf.o(x$fpl$fleqf) refers to fcmpi.o(x$fpl$fcmpinf) for __fpl_fcmp_Inf
    fmul.o(x$fpl$fmul) refers (Special) to usenofp.o(x$fpl$usenofp) for __I$use$fp
    fmul.o(x$fpl$fmul) refers to fretinf.o(x$fpl$fretinf) for __fpl_fretinf
    fmul.o(x$fpl$fmul) refers to fnaninf.o(x$fpl$fnaninf) for __fpl_fnaninf
    frleqf.o(x$fpl$frleqf) refers (Special) to usenofp.o(x$fpl$usenofp) for __I$use$fp
    frleqf.o(x$fpl$frleqf) refers to fleqf.o(x$fpl$fleqf) for __fpl_fcmple_InfNaN
    printf1.o(x$fpl$printf1) refers to _printf_fp_dec.o(.text) for _printf_fp_dec_real
    pow.o(i.__softfp_pow) refers (Special) to usenofp.o(x$fpl$usenofp) for __I$use$fp
    pow.o(i.__softfp_pow) refers to pow.o(i.pow) for pow
    pow.o(i.pow) refers (Special) to usenofp.o(x$fpl$usenofp) for __I$use$fp
    pow.o(i.pow) refers to daddsub_noclz.o(x$fpl$dadd) for __aeabi_dadd
    pow.o(i.pow) refers to _rserrno.o(.text) for __set_errno
    pow.o(i.pow) refers to ddiv.o(x$fpl$ddiv) for __aeabi_ddiv
    pow.o(i.pow) refers to sqrt.o(i.sqrt) for sqrt
    pow.o(i.pow) refers to dmul.o(x$fpl$dmul) for __aeabi_dmul
    pow.o(i.pow) refers to scalbn.o(x$fpl$scalbn) for __ARM_scalbn
    pow.o(i.pow) refers to dunder.o(i.__mathlib_dbl_underflow) for __mathlib_dbl_underflow
    pow.o(i.pow) refers to daddsub_noclz.o(x$fpl$dsub) for __aeabi_dsub
    pow.o(i.pow) refers to daddsub_noclz.o(x$fpl$drsb) for __aeabi_drsub
    pow.o(i.pow) refers to poly.o(i.__kernel_poly) for __kernel_poly
    pow.o(i.pow) refers to dflt_noclz.o(x$fpl$dflt) for __aeabi_i2d
    pow.o(i.pow) refers to drleqf.o(x$fpl$drleqf) for __aeabi_cdrcmple
    pow.o(i.pow) refers to fpclassify.o(i.__ARM_fpclassify) for __ARM_fpclassify
    pow.o(i.pow) refers to qnan.o(.constdata) for __mathlib_zero
    pow.o(i.pow) refers to pow.o(.constdata) for .constdata
    pow.o(.constdata) refers (Special) to usenofp.o(x$fpl$usenofp) for __I$use$fp
    pow_x.o(i.____softfp_pow$lsc) refers (Special) to usenofp.o(x$fpl$usenofp) for __I$use$fp
    pow_x.o(i.____softfp_pow$lsc) refers to pow_x.o(i.__pow$lsc) for __pow$lsc
    pow_x.o(i.__pow$lsc) refers (Special) to usenofp.o(x$fpl$usenofp) for __I$use$fp
    pow_x.o(i.__pow$lsc) refers to daddsub_noclz.o(x$fpl$dadd) for __aeabi_dadd
    pow_x.o(i.__pow$lsc) refers to _rserrno.o(.text) for __set_errno
    pow_x.o(i.__pow$lsc) refers to ddiv.o(x$fpl$ddiv) for __aeabi_ddiv
    pow_x.o(i.__pow$lsc) refers to sqrt.o(i.sqrt) for sqrt
    pow_x.o(i.__pow$lsc) refers to dmul.o(x$fpl$dmul) for __aeabi_dmul
    pow_x.o(i.__pow$lsc) refers to dflt_noclz.o(x$fpl$dflt) for __aeabi_i2d
    pow_x.o(i.__pow$lsc) refers to daddsub_noclz.o(x$fpl$dsub) for __aeabi_dsub
    pow_x.o(i.__pow$lsc) refers to scalbn.o(x$fpl$scalbn) for __ARM_scalbn
    pow_x.o(i.__pow$lsc) refers to daddsub_noclz.o(x$fpl$drsb) for __aeabi_drsub
    pow_x.o(i.__pow$lsc) refers to poly.o(i.__kernel_poly) for __kernel_poly
    pow_x.o(i.__pow$lsc) refers to drleqf.o(x$fpl$drleqf) for __aeabi_cdrcmple
    pow_x.o(i.__pow$lsc) refers to qnan.o(.constdata) for __mathlib_zero
    pow_x.o(i.__pow$lsc) refers to pow_x.o(.constdata) for .constdata
    pow_x.o(.constdata) refers (Special) to usenofp.o(x$fpl$usenofp) for __I$use$fp
    rtentry.o(.ARM.Collect$$rtentry$$00000000) refers (Special) to rtentry2.o(.ARM.Collect$$rtentry$$0000000A) for __rt_entry_li
    rtentry.o(.ARM.Collect$$rtentry$$00000000) refers (Special) to rtentry2.o(.ARM.Collect$$rtentry$$0000000D) for __rt_entry_main
    rtentry.o(.ARM.Collect$$rtentry$$00000000) refers (Special) to rtentry2.o(.ARM.Collect$$rtentry$$0000000C) for __rt_entry_postli_1
    rtentry.o(.ARM.Collect$$rtentry$$00000000) refers (Special) to rtentry2.o(.ARM.Collect$$rtentry$$00000009) for __rt_entry_postsh_1
    rtentry.o(.ARM.Collect$$rtentry$$00000000) refers (Special) to rtentry2.o(.ARM.Collect$$rtentry$$00000002) for __rt_entry_presh_1
    rtentry.o(.ARM.Collect$$rtentry$$00000000) refers (Special) to rtentry4.o(.ARM.Collect$$rtentry$$00000004) for __rt_entry_sh
    aeabi_idiv0_sigfpe.o(.text) refers to rt_div0.o(.text) for __rt_div0
    _rserrno.o(.text) refers to rt_errno_addr_intlibspace.o(.text) for __aeabi_errno_addr
    _printf_str.o(.text) refers (Special) to _printf_char.o(.text) for _printf_cs_common
    _printf_str.o(.text) refers (Weak) to _printf_pad.o(.text) for _printf_pre_padding
    _printf_str.o(.text) refers to rs232_protocol.o(i.__ARM_common_call_via_r2) for __ARM_common_call_via_r2
    _printf_str.o(.text) refers (Weak) to _printf_pad.o(.text) for _printf_post_padding
    _printf_intcommon.o(.text) refers (Weak) to _printf_pad.o(.text) for _printf_pre_padding
    _printf_intcommon.o(.text) refers to rs232_protocol.o(i.__ARM_common_call_via_r2) for __ARM_common_call_via_r2
    _printf_intcommon.o(.text) refers (Weak) to _printf_pad.o(.text) for _printf_pre_padding
    _printf_intcommon.o(.text) refers (Weak) to _printf_pad.o(.text) for _printf_post_padding
    _printf_fp_dec.o(.text) refers (Special) to usenofp.o(x$fpl$usenofp) for __I$use$fp
    _printf_fp_dec.o(.text) refers (Special) to lc_numeric_c.o(locale$$code) for _get_lc_numeric
    _printf_fp_dec.o(.text) refers to istatus.o(x$fpl$ieeestatus) for __ieee_status
    _printf_fp_dec.o(.text) refers to bigflt0.o(.text) for _btod_etento
    _printf_fp_dec.o(.text) refers to btod.o(CL$$btod_d2e) for _btod_d2e
    _printf_fp_dec.o(.text) refers to btod.o(CL$$btod_ediv) for _btod_ediv
    _printf_fp_dec.o(.text) refers to btod.o(CL$$btod_emul) for _btod_emul
    _printf_fp_dec.o(.text) refers to lludiv10.o(.text) for _ll_udiv10
    _printf_fp_dec.o(.text) refers to fpclassify.o(i.__ARM_fpclassify) for __ARM_fpclassify
    _printf_fp_dec.o(.text) refers to _printf_fp_infnan.o(.text) for _printf_fp_infnan
    _printf_fp_dec.o(.text) refers to rtudiv10.o(.text) for __rt_udiv10
    _printf_fp_dec.o(.text) refers (Weak) to _printf_pad.o(.text) for _printf_pre_padding
    _printf_fp_dec.o(.text) refers to rs232_protocol.o(i.__ARM_common_call_via_r2) for __ARM_common_call_via_r2
    _printf_fp_dec.o(.text) refers (Weak) to _printf_pad.o(.text) for _printf_pre_padding
    _printf_fp_dec.o(.text) refers to rt_locale_intlibspace.o(.text) for __rt_locale
    _printf_fp_dec.o(.text) refers (Weak) to _printf_pad.o(.text) for _printf_post_padding
    _printf_char_common.o(.text) refers to __printf_flags_ss_wp.o(.text) for __printf
    _printf_wctomb.o(.text) refers (Special) to _printf_wchar.o(.text) for _printf_lcs_common
    _printf_wctomb.o(.text) refers to _wcrtomb.o(.text) for _wcrtomb
    _printf_wctomb.o(.text) refers (Weak) to _printf_pad.o(.text) for _printf_pre_padding
    _printf_wctomb.o(.text) refers to rs232_protocol.o(i.__ARM_common_call_via_r2) for __ARM_common_call_via_r2
    _printf_wctomb.o(.text) refers (Weak) to _printf_pad.o(.text) for _printf_post_padding
    _printf_wctomb.o(.text) refers to _printf_wctomb.o(.constdata) for .constdata
    _printf_wctomb.o(.constdata) refers (Special) to _printf_wchar.o(.text) for _printf_lcs_common
    _printf_longlong_dec.o(.text) refers to lludiv10.o(.text) for _ll_udiv10
    _printf_longlong_dec.o(.text) refers to _printf_intcommon.o(.text) for _printf_int_common
    _printf_oct_ll.o(.text) refers to _printf_intcommon.o(.text) for _printf_int_common
    _printf_oct_int.o(.text) refers (Weak) to _printf_truncate.o(.text) for _printf_truncate_unsigned
    _printf_oct_int.o(.text) refers to _printf_intcommon.o(.text) for _printf_int_common
    _printf_oct_int_ll.o(.text) refers to _printf_intcommon.o(.text) for _printf_int_common
    _printf_oct_int_ll.o(.text) refers (Weak) to _printf_truncate.o(.text) for _printf_truncate_unsigned
    _printf_hex_ll.o(.text) refers to _printf_intcommon.o(.text) for _printf_int_common
    _printf_hex_ll.o(.text) refers to _printf_hex_ll.o(.constdata) for .constdata
    _printf_hex_int.o(.text) refers (Weak) to _printf_truncate.o(.text) for _printf_truncate_unsigned
    _printf_hex_int.o(.text) refers to _printf_intcommon.o(.text) for _printf_int_common
    _printf_hex_int.o(.text) refers to _printf_hex_int.o(.constdata) for .constdata
    _printf_hex_int_ll.o(.text) refers to _printf_intcommon.o(.text) for _printf_int_common
    _printf_hex_int_ll.o(.text) refers (Weak) to _printf_truncate.o(.text) for _printf_truncate_unsigned
    _printf_hex_int_ll.o(.text) refers to _printf_hex_int_ll.o(.constdata) for .constdata
    _printf_hex_ptr.o(.text) refers to _printf_intcommon.o(.text) for _printf_int_common
    _printf_hex_ptr.o(.text) refers to _printf_hex_ptr.o(.constdata) for .constdata
    _printf_hex_int_ptr.o(.text) refers to _printf_intcommon.o(.text) for _printf_int_common
    _printf_hex_int_ptr.o(.text) refers (Weak) to _printf_truncate.o(.text) for _printf_truncate_unsigned
    _printf_hex_int_ptr.o(.text) refers to _printf_hex_int_ptr.o(.constdata) for .constdata
    _printf_hex_ll_ptr.o(.text) refers to _printf_intcommon.o(.text) for _printf_int_common
    _printf_hex_ll_ptr.o(.text) refers to _printf_hex_ll_ptr.o(.constdata) for .constdata
    _printf_hex_int_ll_ptr.o(.text) refers to _printf_intcommon.o(.text) for _printf_int_common
    _printf_hex_int_ll_ptr.o(.text) refers (Weak) to _printf_truncate.o(.text) for _printf_truncate_unsigned
    _printf_hex_int_ll_ptr.o(.text) refers to _printf_hex_int_ll_ptr.o(.constdata) for .constdata
    _printf_c.o(.ARM.Collect$$_printf_percent$$00000013) refers (Weak) to _printf_char.o(.text) for _printf_char
    _printf_s.o(.ARM.Collect$$_printf_percent$$00000014) refers (Weak) to _printf_char.o(.text) for _printf_string
    _printf_n.o(.ARM.Collect$$_printf_percent$$00000001) refers (Weak) to _printf_charcount.o(.text) for _printf_charcount
    _printf_x.o(.ARM.Collect$$_printf_percent$$0000000C) refers (Weak) to _printf_hex_int_ll_ptr.o(.text) for _printf_int_hex
    _printf_p.o(.ARM.Collect$$_printf_percent$$00000002) refers (Weak) to _printf_hex_int_ll_ptr.o(.text) for _printf_hex_ptr
    _printf_o.o(.ARM.Collect$$_printf_percent$$0000000B) refers (Weak) to _printf_oct_int_ll.o(.text) for _printf_int_oct
    _printf_i.o(.ARM.Collect$$_printf_percent$$00000008) refers (Weak) to _printf_dec.o(.text) for _printf_int_dec
    _printf_u.o(.ARM.Collect$$_printf_percent$$0000000A) refers (Weak) to _printf_dec.o(.text) for _printf_int_dec
    _printf_e.o(.ARM.Collect$$_printf_percent$$00000004) refers (Weak) to printf1.o(x$fpl$printf1) for _printf_fp_dec
    _printf_g.o(.ARM.Collect$$_printf_percent$$00000005) refers (Weak) to printf1.o(x$fpl$printf1) for _printf_fp_dec
    _printf_lli.o(.ARM.Collect$$_printf_percent$$0000000D) refers (Special) to _printf_ll.o(.ARM.Collect$$_printf_percent$$00000007) for _printf_ll
    _printf_lli.o(.ARM.Collect$$_printf_percent$$0000000D) refers (Weak) to _printf_longlong_dec.o(.text) for _printf_longlong_dec
    _printf_lld.o(.ARM.Collect$$_printf_percent$$0000000E) refers (Special) to _printf_ll.o(.ARM.Collect$$_printf_percent$$00000007) for _printf_ll
    _printf_lld.o(.ARM.Collect$$_printf_percent$$0000000E) refers (Weak) to _printf_longlong_dec.o(.text) for _printf_longlong_dec
    _printf_llu.o(.ARM.Collect$$_printf_percent$$0000000F) refers (Special) to _printf_ll.o(.ARM.Collect$$_printf_percent$$00000007) for _printf_ll
    _printf_llu.o(.ARM.Collect$$_printf_percent$$0000000F) refers (Weak) to _printf_longlong_dec.o(.text) for _printf_longlong_dec
    _printf_lc.o(.ARM.Collect$$_printf_percent$$00000015) refers (Special) to _printf_l.o(.ARM.Collect$$_printf_percent$$00000012) for _printf_l
    _printf_lc.o(.ARM.Collect$$_printf_percent$$00000015) refers (Weak) to _printf_wchar.o(.text) for _printf_wchar
    _printf_ls.o(.ARM.Collect$$_printf_percent$$00000016) refers (Special) to _printf_l.o(.ARM.Collect$$_printf_percent$$00000012) for _printf_l
    _printf_ls.o(.ARM.Collect$$_printf_percent$$00000016) refers (Weak) to _printf_wchar.o(.text) for _printf_wstring
    _printf_llo.o(.ARM.Collect$$_printf_percent$$00000010) refers (Special) to _printf_ll.o(.ARM.Collect$$_printf_percent$$00000007) for _printf_ll
    _printf_llo.o(.ARM.Collect$$_printf_percent$$00000010) refers (Weak) to _printf_oct_int_ll.o(.text) for _printf_ll_oct
    _printf_llx.o(.ARM.Collect$$_printf_percent$$00000011) refers (Special) to _printf_ll.o(.ARM.Collect$$_printf_percent$$00000007) for _printf_ll
    _printf_llx.o(.ARM.Collect$$_printf_percent$$00000011) refers (Weak) to _printf_hex_int_ll_ptr.o(.text) for _printf_ll_hex
    dcmpi.o(x$fpl$dcmpinf) refers (Special) to usenofp.o(x$fpl$usenofp) for __I$use$fp
    dnaninf.o(x$fpl$dnaninf) refers (Special) to usenofp.o(x$fpl$usenofp) for __I$use$fp
    dretinf.o(x$fpl$dretinf) refers (Special) to usenofp.o(x$fpl$usenofp) for __I$use$fp
    fcmpi.o(x$fpl$fcmpinf) refers (Special) to usenofp.o(x$fpl$usenofp) for __I$use$fp
    fnaninf.o(x$fpl$fnaninf) refers (Special) to usenofp.o(x$fpl$usenofp) for __I$use$fp
    fretinf.o(x$fpl$fretinf) refers (Special) to usenofp.o(x$fpl$usenofp) for __I$use$fp
    scalbn.o(x$fpl$scalbn) refers (Special) to usenofp.o(x$fpl$usenofp) for __I$use$fp
    scalbn.o(x$fpl$scalbn) refers to dcheck1.o(x$fpl$dcheck1) for __fpl_dcheck_NaN1
    dunder.o(i.__mathlib_dbl_underflow) refers to scalbn.o(x$fpl$scalbn) for __ARM_scalbn
    fpclassify.o(i.__ARM_fpclassify) refers (Special) to usenofp.o(x$fpl$usenofp) for __I$use$fp
    poly.o(i.__kernel_poly) refers (Special) to usenofp.o(x$fpl$usenofp) for __I$use$fp
    poly.o(i.__kernel_poly) refers to dmul.o(x$fpl$dmul) for __aeabi_dmul
    poly.o(i.__kernel_poly) refers to daddsub_noclz.o(x$fpl$dadd) for __aeabi_dadd
    qnan.o(.constdata) refers (Special) to usenofp.o(x$fpl$usenofp) for __I$use$fp
    sqrt.o(i.__softfp_sqrt) refers (Special) to usenofp.o(x$fpl$usenofp) for __I$use$fp
    sqrt.o(i.__softfp_sqrt) refers to dsqrt_noumaal.o(x$fpl$dsqrt) for _dsqrt
    sqrt.o(i.__softfp_sqrt) refers to _rserrno.o(.text) for __set_errno
    sqrt.o(i.sqrt) refers (Special) to usenofp.o(x$fpl$usenofp) for __I$use$fp
    sqrt.o(i.sqrt) refers to dsqrt_noumaal.o(x$fpl$dsqrt) for _dsqrt
    sqrt.o(i.sqrt) refers to _rserrno.o(.text) for __set_errno
    sqrt_x.o(i.____softfp_sqrt$lsc) refers (Special) to usenofp.o(x$fpl$usenofp) for __I$use$fp
    sqrt_x.o(i.____softfp_sqrt$lsc) refers to dleqf.o(x$fpl$dleqf) for __aeabi_cdcmple
    sqrt_x.o(i.____softfp_sqrt$lsc) refers to _rserrno.o(.text) for __set_errno
    sqrt_x.o(i.____softfp_sqrt$lsc) refers to dsqrt_noumaal.o(x$fpl$dsqrt) for _dsqrt
    sqrt_x.o(i.__sqrt$lsc) refers (Special) to usenofp.o(x$fpl$usenofp) for __I$use$fp
    sqrt_x.o(i.__sqrt$lsc) refers to dleqf.o(x$fpl$dleqf) for __aeabi_cdcmple
    sqrt_x.o(i.__sqrt$lsc) refers to _rserrno.o(.text) for __set_errno
    sqrt_x.o(i.__sqrt$lsc) refers to dsqrt_noumaal.o(x$fpl$dsqrt) for _dsqrt
    rtentry2.o(.ARM.Collect$$rtentry$$00000008) refers to boardinit2.o(.text) for _platform_post_stackheap_init
    rtentry2.o(.ARM.Collect$$rtentry$$0000000A) refers to libinit.o(.ARM.Collect$$libinit$$00000000) for __rt_lib_init
    rtentry2.o(.ARM.Collect$$rtentry$$0000000B) refers to boardinit3.o(.text) for _platform_post_lib_init
    rtentry2.o(.ARM.Collect$$rtentry$$0000000D) refers to exit.o(.text) for exit
    rtentry2.o(.ARM.Collect$$rtentry$$0000000D) refers to main.o(.text) for main
    rtentry2.o(.ARM.exidx) refers to rtentry2.o(.ARM.Collect$$rtentry$$00000001) for .ARM.Collect$$rtentry$$00000001
    rtentry2.o(.ARM.exidx) refers to rtentry2.o(.ARM.Collect$$rtentry$$00000008) for .ARM.Collect$$rtentry$$00000008
    rtentry2.o(.ARM.exidx) refers to rtentry2.o(.ARM.Collect$$rtentry$$0000000A) for .ARM.Collect$$rtentry$$0000000A
    rtentry2.o(.ARM.exidx) refers to rtentry2.o(.ARM.Collect$$rtentry$$0000000B) for .ARM.Collect$$rtentry$$0000000B
    rtentry2.o(.ARM.exidx) refers to rtentry2.o(.ARM.Collect$$rtentry$$0000000D) for .ARM.Collect$$rtentry$$0000000D
    rtentry4.o(.ARM.Collect$$rtentry$$00000004) refers to sys_stackheap_outer.o(.text) for __user_setup_stackheap
    rtentry4.o(.ARM.exidx) refers to rtentry4.o(.ARM.Collect$$rtentry$$00000004) for .ARM.Collect$$rtentry$$00000004
    rt_div0.o(.text) refers to defsig_fpe_outer.o(.text) for __rt_SIGFPE
    rt_locale.o(.text) refers to rt_locale.o(.bss) for __rt_locale_data
    rt_locale_intlibspace.o(.text) refers to libspace.o(.bss) for __libspace_start
    rt_errno_addr.o(.text) refers to rt_errno_addr.o(.bss) for __aeabi_errno_addr_data
    rt_errno_addr_intlibspace.o(.text) refers to libspace.o(.bss) for __libspace_start
    _printf_fp_infnan.o(.text) refers (Weak) to _printf_pad.o(.text) for _printf_pre_padding
    _printf_fp_infnan.o(.text) refers to rs232_protocol.o(i.__ARM_common_call_via_r2) for __ARM_common_call_via_r2
    _printf_fp_infnan.o(.text) refers (Weak) to _printf_pad.o(.text) for _printf_post_padding
    __printf_nopercent.o(.text) refers to __printf_nopercent.o(i.__ARM_common_call_via_r7) for __ARM_common_call_via_r7
    __printf_nopercent.o(.text) refers to __printf_nopercent.o(i.__ARM_common_call_via_r5) for __ARM_common_call_via_r5
    _printf_char.o(.text) refers (Weak) to _printf_str.o(.text) for _printf_str
    _printf_wchar.o(.text) refers (Weak) to _printf_wctomb.o(.text) for _printf_wctomb
    bigflt0.o(.text) refers (Special) to usenofp.o(x$fpl$usenofp) for __I$use$fp
    bigflt0.o(.text) refers to aeabi_sdiv.o(.text) for __aeabi_idivmod
    bigflt0.o(.text) refers to btod.o(CL$$btod_emul) for _btod_emul
    bigflt0.o(.text) refers to btod.o(CL$$btod_ediv) for _btod_ediv
    bigflt0.o(.text) refers to bigflt0.o(.constdata) for .constdata
    bigflt0.o(.constdata) refers (Special) to usenofp.o(x$fpl$usenofp) for __I$use$fp
    btod.o(CL$$btod_d2e) refers (Special) to usenofp.o(x$fpl$usenofp) for __I$use$fp
    btod.o(CL$$btod_d2e) refers to btod.o(CL$$btod_d2e_norm_op1) for _d2e_norm_op1
    btod.o(CL$$btod_d2e_norm_op1) refers (Special) to usenofp.o(x$fpl$usenofp) for __I$use$fp
    btod.o(CL$$btod_d2e_norm_op1) refers to btod.o(CL$$btod_d2e_denorm_low) for _d2e_denorm_low
    btod.o(CL$$btod_d2e_denorm_low) refers (Special) to usenofp.o(x$fpl$usenofp) for __I$use$fp
    btod.o(CL$$btod_emul) refers (Special) to usenofp.o(x$fpl$usenofp) for __I$use$fp
    btod.o(CL$$btod_emul) refers to btod.o(CL$$btod_mult_common) for __btod_mult_common
    btod.o(CL$$btod_emul) refers to btod.o(CL$$btod_e2e) for _e2e
    btod.o(CL$$btod_ediv) refers (Special) to usenofp.o(x$fpl$usenofp) for __I$use$fp
    btod.o(CL$$btod_ediv) refers to btod.o(CL$$btod_div_common) for __btod_div_common
    btod.o(CL$$btod_ediv) refers to btod.o(CL$$btod_e2e) for _e2e
    btod.o(CL$$btod_emuld) refers (Special) to usenofp.o(x$fpl$usenofp) for __I$use$fp
    btod.o(CL$$btod_emuld) refers to btod.o(CL$$btod_mult_common) for __btod_mult_common
    btod.o(CL$$btod_emuld) refers to btod.o(CL$$btod_e2d) for _e2d
    btod.o(CL$$btod_edivd) refers (Special) to usenofp.o(x$fpl$usenofp) for __I$use$fp
    btod.o(CL$$btod_edivd) refers to btod.o(CL$$btod_div_common) for __btod_div_common
    btod.o(CL$$btod_edivd) refers to btod.o(CL$$btod_e2d) for _e2d
    btod.o(CL$$btod_e2e) refers (Special) to usenofp.o(x$fpl$usenofp) for __I$use$fp
    btod.o(CL$$btod_e2d) refers (Special) to usenofp.o(x$fpl$usenofp) for __I$use$fp
    btod.o(CL$$btod_e2d) refers to btod.o(CL$$btod_e2e) for _e2e
    btod.o(CL$$btod_mult_common) refers (Special) to usenofp.o(x$fpl$usenofp) for __I$use$fp
    btod.o(CL$$btod_div_common) refers (Special) to usenofp.o(x$fpl$usenofp) for __I$use$fp
    _wcrtomb.o(.text) refers to rt_ctype_table.o(.text) for __rt_ctype_table
    _wcrtomb.o(.text) refers to setup_menu.o(i.__ARM_common_call_via_r3) for __ARM_common_call_via_r3
    lc_numeric_c.o(locale$$data) refers (Special) to libinit2.o(.ARM.Collect$$libinit$$00000014) for __rt_lib_init_lc_numeric_2
    lc_numeric_c.o(locale$$code) refers (Special) to libinit2.o(.ARM.Collect$$libinit$$00000014) for __rt_lib_init_lc_numeric_2
    lc_numeric_c.o(locale$$code) refers to strcmp.o(.text) for strcmp
    lc_numeric_c.o(locale$$code) refers to lc_numeric_c.o(locale$$data) for __lcnum_c_name
    dcheck1.o(x$fpl$dcheck1) refers (Special) to usenofp.o(x$fpl$usenofp) for __I$use$fp
    dcheck1.o(x$fpl$dcheck1) refers to retnan.o(x$fpl$retnan) for __fpl_return_NaN
    dsqrt_noumaal.o(x$fpl$dsqrt) refers (Special) to usenofp.o(x$fpl$usenofp) for __I$use$fp
    dsqrt_noumaal.o(x$fpl$dsqrt) refers to dnaninf.o(x$fpl$dnaninf) for __fpl_dnaninf
    istatus.o(x$fpl$ieeestatus) refers (Special) to usenofp.o(x$fpl$usenofp) for __I$use$fp
    libspace.o(.text) refers to libspace.o(.bss) for __libspace_start
    sys_stackheap_outer.o(.text) refers to libspace.o(.text) for __user_perproc_libspace
    sys_stackheap_outer.o(.text) refers to lpc2300.o(.text) for __user_initial_stackheap
    rt_ctype_table.o(.text) refers to rt_locale_intlibspace.o(.text) for __rt_locale
    rt_ctype_table.o(.text) refers to lc_ctype_c.o(locale$$code) for _get_lc_ctype
    exit.o(.text) refers to rtexit.o(.ARM.Collect$$rtexit$$00000000) for __rt_exit
    defsig_fpe_outer.o(.text) refers to defsig_fpe_inner.o(.text) for __rt_SIGFPE_inner
    defsig_fpe_outer.o(.text) refers to defsig_exit.o(.text) for __sig_exit
    defsig_fpe_formal.o(.text) refers to rt_raise.o(.text) for __rt_raise
    libinit.o(.ARM.Collect$$libinit$$00000000) refers (Special) to libinit2.o(.ARM.Collect$$libinit$$0000002C) for __rt_lib_init_alloca_1
    libinit.o(.ARM.Collect$$libinit$$00000000) refers (Special) to libinit2.o(.ARM.Collect$$libinit$$0000002A) for __rt_lib_init_argv_1
    libinit.o(.ARM.Collect$$libinit$$00000000) refers (Special) to libinit2.o(.ARM.Collect$$libinit$$00000019) for __rt_lib_init_atexit_1
    libinit.o(.ARM.Collect$$libinit$$00000000) refers (Special) to libinit2.o(.ARM.Collect$$libinit$$0000001F) for __rt_lib_init_clock_1
    libinit.o(.ARM.Collect$$libinit$$00000000) refers (Special) to libinit2.o(.ARM.Collect$$libinit$$00000030) for __rt_lib_init_cpp_1
    libinit.o(.ARM.Collect$$libinit$$00000000) refers (Special) to libinit2.o(.ARM.Collect$$libinit$$0000002E) for __rt_lib_init_exceptions_1
    libinit.o(.ARM.Collect$$libinit$$00000000) refers (Special) to libinit2.o(.ARM.Collect$$libinit$$00000002) for __rt_lib_init_fp_1
    libinit.o(.ARM.Collect$$libinit$$00000000) refers (Special) to libinit2.o(.ARM.Collect$$libinit$$0000001D) for __rt_lib_init_fp_trap_1
    libinit.o(.ARM.Collect$$libinit$$00000000) refers (Special) to libinit2.o(.ARM.Collect$$libinit$$00000021) for __rt_lib_init_getenv_1
    libinit.o(.ARM.Collect$$libinit$$00000000) refers (Special) to libinit2.o(.ARM.Collect$$libinit$$00000008) for __rt_lib_init_heap_1
    libinit.o(.ARM.Collect$$libinit$$00000000) refers (Special) to libinit2.o(.ARM.Collect$$libinit$$0000000F) for __rt_lib_init_lc_collate_1
    libinit.o(.ARM.Collect$$libinit$$00000000) refers (Special) to libinit2.o(.ARM.Collect$$libinit$$00000011) for __rt_lib_init_lc_ctype_1
    libinit.o(.ARM.Collect$$libinit$$00000000) refers (Special) to libinit2.o(.ARM.Collect$$libinit$$00000013) for __rt_lib_init_lc_monetary_1
    libinit.o(.ARM.Collect$$libinit$$00000000) refers (Special) to libinit2.o(.ARM.Collect$$libinit$$00000015) for __rt_lib_init_lc_numeric_1
    libinit.o(.ARM.Collect$$libinit$$00000000) refers (Special) to libinit2.o(.ARM.Collect$$libinit$$00000017) for __rt_lib_init_lc_time_1
    libinit.o(.ARM.Collect$$libinit$$00000000) refers (Special) to libinit2.o(.ARM.Collect$$libinit$$0000000C) for __rt_lib_init_rand_1
    libinit.o(.ARM.Collect$$libinit$$00000000) refers (Special) to libinit2.o(.ARM.Collect$$libinit$$00000031) for __rt_lib_init_return
    libinit.o(.ARM.Collect$$libinit$$00000000) refers (Special) to libinit2.o(.ARM.Collect$$libinit$$0000001B) for __rt_lib_init_signal_1
    libinit.o(.ARM.Collect$$libinit$$00000000) refers (Special) to libinit2.o(.ARM.Collect$$libinit$$00000023) for __rt_lib_init_stdio_1
    libinit.o(.ARM.Collect$$libinit$$00000000) refers (Special) to libinit2.o(.ARM.Collect$$libinit$$0000000A) for __rt_lib_init_user_alloc_1
    libinit2.o(.ARM.Collect$$libinit$$00000001) refers to fpinit.o(x$fpl$fpinit) for _fp_init
    libinit2.o(.ARM.Collect$$libinit$$0000000D) refers (Weak) to rt_locale_intlibspace.o(.text) for __rt_locale
    libinit2.o(.ARM.Collect$$libinit$$0000000E) refers to libinit2.o(.ARM.Collect$$libinit$$0000000D) for .ARM.Collect$$libinit$$0000000D
    libinit2.o(.ARM.Collect$$libinit$$00000010) refers to libinit2.o(.ARM.Collect$$libinit$$0000000D) for .ARM.Collect$$libinit$$0000000D
    libinit2.o(.ARM.Collect$$libinit$$00000010) refers (Weak) to lc_ctype_c.o(locale$$code) for _get_lc_ctype
    libinit2.o(.ARM.Collect$$libinit$$00000012) refers to libinit2.o(.ARM.Collect$$libinit$$0000000D) for .ARM.Collect$$libinit$$0000000D
    libinit2.o(.ARM.Collect$$libinit$$00000014) refers to libinit2.o(.ARM.Collect$$libinit$$0000000D) for .ARM.Collect$$libinit$$0000000D
    libinit2.o(.ARM.Collect$$libinit$$00000014) refers (Weak) to lc_numeric_c.o(locale$$code) for _get_lc_numeric
    libinit2.o(.ARM.Collect$$libinit$$00000016) refers to libinit2.o(.ARM.Collect$$libinit$$0000000D) for .ARM.Collect$$libinit$$0000000D
    libinit2.o(.ARM.Collect$$libinit$$00000024) refers to argv_veneer.o(.emb_text) for __ARM_argv_veneer
    libinit2.o(.ARM.Collect$$libinit$$00000025) refers to argv_veneer.o(.emb_text) for __ARM_argv_veneer
    retnan.o(x$fpl$retnan) refers (Special) to usenofp.o(x$fpl$usenofp) for __I$use$fp
    retnan.o(x$fpl$retnan) refers to trapv.o(x$fpl$trapveneer) for __fpl_cmpreturn
    rtexit.o(.ARM.Collect$$rtexit$$00000000) refers (Special) to rtexit2.o(.ARM.Collect$$rtexit$$00000004) for __rt_exit_exit
    rtexit.o(.ARM.Collect$$rtexit$$00000000) refers (Special) to rtexit2.o(.ARM.Collect$$rtexit$$00000003) for __rt_exit_ls
    rtexit.o(.ARM.Collect$$rtexit$$00000000) refers (Special) to rtexit2.o(.ARM.Collect$$rtexit$$00000002) for __rt_exit_prels_1
    rtexit.o(.ARM.exidx) refers (Special) to rtexit2.o(.ARM.Collect$$rtexit$$00000004) for __rt_exit_exit
    rtexit.o(.ARM.exidx) refers (Special) to rtexit2.o(.ARM.Collect$$rtexit$$00000003) for __rt_exit_ls
    rtexit.o(.ARM.exidx) refers (Special) to rtexit2.o(.ARM.Collect$$rtexit$$00000002) for __rt_exit_prels_1
    rtexit.o(.ARM.exidx) refers to rtexit.o(.ARM.Collect$$rtexit$$00000000) for .ARM.Collect$$rtexit$$00000000
    rt_raise.o(.text) refers to __raise.o(.text) for __raise
    rt_raise.o(.text) refers to sys_exit.o(.text) for _sys_exit
    lc_ctype_c.o(locale$$data) refers (Special) to libinit2.o(.ARM.Collect$$libinit$$00000010) for __rt_lib_init_lc_ctype_2
    lc_ctype_c.o(locale$$code) refers (Special) to libinit2.o(.ARM.Collect$$libinit$$00000010) for __rt_lib_init_lc_ctype_2
    lc_ctype_c.o(locale$$code) refers to strcmp.o(.text) for strcmp
    lc_ctype_c.o(locale$$code) refers to lc_ctype_c.o(locale$$data) for __lcctype_c_name
    defsig_exit.o(.text) refers to sys_exit.o(.text) for _sys_exit
    defsig_fpe_inner.o(.text) refers to defsig_general.o(.text) for __default_signal_display
    argv_veneer.o(.emb_text) refers to no_argv.o(.text) for __ARM_get_argv
    trapv.o(x$fpl$trapveneer) refers (Special) to usenofp.o(x$fpl$usenofp) for __I$use$fp
    sys_exit.o(.text) refers (Special) to use_no_semi.o(.text) for __I$use$semihosting
    sys_exit.o(.text) refers (Special) to indicate_semi.o(.text) for __semihosting_library_function
    rtexit2.o(.ARM.Collect$$rtexit$$00000003) refers to libshutdown.o(.ARM.Collect$$libshutdown$$00000000) for __rt_lib_shutdown
    rtexit2.o(.ARM.Collect$$rtexit$$00000004) refers to sys_exit.o(.text) for _sys_exit
    rtexit2.o(.ARM.exidx) refers to rtexit2.o(.ARM.Collect$$rtexit$$00000001) for .ARM.Collect$$rtexit$$00000001
    rtexit2.o(.ARM.exidx) refers to rtexit2.o(.ARM.Collect$$rtexit$$00000003) for .ARM.Collect$$rtexit$$00000003
    rtexit2.o(.ARM.exidx) refers to rtexit2.o(.ARM.Collect$$rtexit$$00000004) for .ARM.Collect$$rtexit$$00000004
    __raise.o(.text) refers to rs232_protocol.o(i.__ARM_common_call_via_r2) for __ARM_common_call_via_r2
    __raise.o(.text) refers to defsig.o(CL$$defsig) for __default_signal_handler
    defsig_general.o(.text) refers to sys_wrch.o(.text) for _ttywrch
    _get_argv_nomalloc.o(.text) refers (Special) to hrguard.o(.text) for __heap_region$guard
    _get_argv_nomalloc.o(.text) refers to defsig_rtmem_outer.o(.text) for __rt_SIGRTMEM
    _get_argv_nomalloc.o(.text) refers to sys_command.o(.text) for _sys_command_string
    sys_wrch.o(.text) refers (Special) to use_no_semi.o(.text) for __I$use$semihosting
    sys_wrch.o(.text) refers (Special) to indicate_semi.o(.text) for __semihosting_library_function
    sys_command.o(.text) refers (Special) to use_no_semi.o(.text) for __I$use$semihosting
    sys_command.o(.text) refers (Special) to indicate_semi.o(.text) for __semihosting_library_function
    defsig_rtmem_outer.o(.text) refers to defsig_rtmem_inner.o(.text) for __rt_SIGRTMEM_inner
    defsig_rtmem_outer.o(.text) refers to defsig_exit.o(.text) for __sig_exit
    defsig_rtmem_formal.o(.text) refers to rt_raise.o(.text) for __rt_raise
    defsig.o(CL$$defsig) refers to defsig_fpe_inner.o(.text) for __rt_SIGFPE_inner
    defsig.o(CL$$defsig) refers to defsig_rtmem_inner.o(.text) for __rt_SIGRTMEM_inner
    libshutdown.o(.ARM.Collect$$libshutdown$$00000000) refers (Special) to libshutdown2.o(.ARM.Collect$$libshutdown$$00000006) for __rt_lib_shutdown_fp_trap_1
    libshutdown.o(.ARM.Collect$$libshutdown$$00000000) refers (Special) to libshutdown2.o(.ARM.Collect$$libshutdown$$0000000E) for __rt_lib_shutdown_heap_1
    libshutdown.o(.ARM.Collect$$libshutdown$$00000000) refers (Special) to libshutdown2.o(.ARM.Collect$$libshutdown$$0000000F) for __rt_lib_shutdown_return
    libshutdown.o(.ARM.Collect$$libshutdown$$00000000) refers (Special) to libshutdown2.o(.ARM.Collect$$libshutdown$$00000009) for __rt_lib_shutdown_signal_1
    libshutdown.o(.ARM.Collect$$libshutdown$$00000000) refers (Special) to libshutdown2.o(.ARM.Collect$$libshutdown$$00000003) for __rt_lib_shutdown_stdio_1
    libshutdown.o(.ARM.Collect$$libshutdown$$00000000) refers (Special) to libshutdown2.o(.ARM.Collect$$libshutdown$$0000000B) for __rt_lib_shutdown_user_alloc_1
    defsig_abrt_inner.o(.text) refers to defsig_general.o(.text) for __default_signal_display
    defsig_rtred_inner.o(.text) refers to defsig_general.o(.text) for __default_signal_display
    defsig_rtmem_inner.o(.text) refers to defsig_general.o(.text) for __default_signal_display
    defsig_stak_inner.o(.text) refers to defsig_general.o(.text) for __default_signal_display
    defsig_pvfn_inner.o(.text) refers to defsig_general.o(.text) for __default_signal_display
    defsig_cppl_inner.o(.text) refers to defsig_general.o(.text) for __default_signal_display
    defsig_segv_inner.o(.text) refers to defsig_general.o(.text) for __default_signal_display
    defsig_other.o(.text) refers to defsig_general.o(.text) for __default_signal_display


==============================================================================

Removing Unused input sections from the image.

    Removing debug.o(.conststring), (220 bytes).
    Removing debug.o(.data), (76 bytes).
    Removing zone1_task.o(.constdata), (1 bytes).
    Removing audiomanager.o(.text), (264 bytes).
    Removing pcm_manager.o(.text), (224 bytes).
    Removing dts_es_manager.o(.text), (168 bytes).
    Removing dts_manager.o(.text), (220 bytes).
    Removing dts_neo6_manager.o(.text), (416 bytes).
    Removing dolbyplusmanager.o(.text), (580 bytes).
    Removing dolbyheadphone.o(.text), (404 bytes).

10 unused section(s) (total 2573 bytes) removed from the image.

==============================================================================

Adding Veneers to the image

    Adding TA veneer (4 bytes, Inline) for call to '_printf_percent' from __printf_flags_ss_wp.o(.text).
    Adding AT veneer (8 bytes, Inline) for call to '__rt_lib_init' from rtentry2.o(.ARM.Collect$$rtentry$$0000000A).
    Adding AT veneer (8 bytes, Inline) for call to '__rt_lib_shutdown' from rtexit2.o(.ARM.Collect$$rtexit$$00000003).
    Adding TA veneer (4 bytes, Inline) for call to '__rt_exit' from exit.o(.text).
    Adding AT veneer (8 bytes, Inline) for call to 'InQueue' from uart.o(.text).
    Adding AT veneer (8 bytes, Inline) for call to 'VfdTimerHandler' from timer.o(.text).
    Adding AT veneer (8 bytes, Inline) for call to 'MsgSetSoftMute' from timer.o(.text).
    Adding AT veneer (8 bytes, Inline) for call to 'ir_core_philips' from ioport.o(.text).
    Adding AT veneer (8 bytes, Inline) for call to '_printf_int_dec' from _printf_i.o(.ARM.Collect$$_printf_percent$$00000008).
    Adding TA veneer (4 bytes, Inline) for call to '__aeabi_memcpy' from message.o(.text).
    Adding TA veneer (4 bytes, Inline) for call to '__aeabi_memcpy4' from auto_sound.o(.text).
    Adding TA veneer (4 bytes, Inline) for call to '__aeabi_memset' from vfd_disp.o(.text).
    Adding TA veneer (4 bytes, Inline) for call to '__aeabi_memclr' from rbds.o(.text).
    Adding TA veneer (4 bytes, Inline) for call to 'strncpy' from vfd_disp.o(.text).
    Adding TA veneer (4 bytes, Inline) for call to '__aeabi_idivmod' from queue.o(.text).
    Adding AT veneer (8 bytes, Inline) for call to '__set_errno' from pow.o(i.pow).
    Adding AT veneer (8 bytes, Inline) for call to '_printf_charcount' from _printf_n.o(.ARM.Collect$$_printf_percent$$00000001).
    Adding AT veneer (8 bytes, Inline) for call to '_printf_longlong_dec' from _printf_lli.o(.ARM.Collect$$_printf_percent$$0000000D).
    Adding AT veneer (8 bytes, Inline) for call to '_printf_int_oct' from _printf_o.o(.ARM.Collect$$_printf_percent$$0000000B).
    Adding AT veneer (8 bytes, Inline) for call to '_printf_hex_ptr' from _printf_p.o(.ARM.Collect$$_printf_percent$$00000002).
    Adding TA veneer (4 bytes, Inline) for call to '__rt_udiv10' from _printf_dec.o(.text).
    Adding TA veneer (4 bytes, Inline) for call to '__rt_locale' from libinit2.o(.ARM.Collect$$libinit$$0000000D).
    Adding TA veneer (4 bytes, Inline) for call to '__aeabi_errno_addr' from _rserrno.o(.text).
    Adding TA veneer (4 bytes, Inline) for call to '_ll_udiv10' from _printf_fp_dec.o(.text).
    Adding AT veneer (8 bytes, Inline) for call to '_printf_char' from _printf_c.o(.ARM.Collect$$_printf_percent$$00000013).
    Adding AT veneer (8 bytes, Inline) for call to '_printf_wchar' from _printf_lc.o(.ARM.Collect$$_printf_percent$$00000015).
    Adding TA veneer (4 bytes, Inline) for call to '__rt_ctype_table' from _wcrtomb.o(.text).
    Adding AT veneer (8 bytes, Inline) for call to '_sys_exit' from rtexit2.o(.ARM.Collect$$rtexit$$00000004).
    Adding TA veneer (4 bytes, Inline) for call to '__aeabi_uidivmod' from rs232_protocol.o(.text).
    Adding TA veneer (4 bytes, Inline) for call to '_btod_d2e' from _printf_fp_dec.o(.text).
    Adding TA veneer (4 bytes, Inline) for call to '_btod_ediv' from _printf_fp_dec.o(.text).
    Adding TA veneer (4 bytes, Inline) for call to '_btod_emul' from _printf_fp_dec.o(.text).
    Adding AT veneer (12 bytes, Long) for call to '_printf_int_hex' from _printf_x.o(.ARM.Collect$$_printf_percent$$0000000C).
    Adding AT veneer (12 bytes, Long) for call to '_printf_ll_oct' from _printf_llo.o(.ARM.Collect$$_printf_percent$$00000010).
    Adding AT veneer (12 bytes, Long) for call to '_printf_ll_hex' from _printf_llx.o(.ARM.Collect$$_printf_percent$$00000011).
    Adding AT veneer (12 bytes, Long) for call to '_printf_string' from _printf_s.o(.ARM.Collect$$_printf_percent$$00000014).
    Adding AT veneer (12 bytes, Long) for call to '_printf_wstring' from _printf_ls.o(.ARM.Collect$$_printf_percent$$00000016).
    Adding AT veneer (12 bytes, Long) for call to 'ir2_core_philips' from ioport.o(.text).
    Adding AT veneer (12 bytes, Long) for call to 'RefreshHandle' from timer.o(.text).
    Adding AT veneer (12 bytes, Long) for call to 'MsgSetVfdShow' from timer.o(.text).
    Adding AT veneer (12 bytes, Long) for call to 'MsgSetDSPHDMISetting' from timer.o(.text).
    Adding AT veneer (12 bytes, Long) for call to '_printf_fp_dec_real' from printf1.o(x$fpl$printf1).
    Adding TA veneer (4 bytes, Inline) for call to '__ARM_common_switch8' from rs232_protocol.o(.text).
    Adding TA veneer (4 bytes, Inline) for call to '__ARM_fpclassify' from _printf_fp_dec.o(.text).
    Adding TA veneer (4 bytes, Inline) for call to 'pow' from bassmanager.o(.text).
    Adding TA veneer (4 bytes, Inline) for call to '_get_lc_numeric' from libinit2.o(.ARM.Collect$$libinit$$00000014).
    Adding TA veneer (4 bytes, Inline) for call to '_get_lc_ctype' from libinit2.o(.ARM.Collect$$libinit$$00000010).
    Adding TA veneer (4 bytes, Inline) for call to '__aeabi_d2f' from auto_sound.o(.text).
    Adding TA veneer (4 bytes, Inline) for call to '__aeabi_ddiv' from setup_menu.o(.text).
    Adding TA veneer (4 bytes, Inline) for call to '__aeabi_i2d' from auto_sound.o(.text).
    Adding TA veneer (4 bytes, Inline) for call to '__aeabi_ui2d' from ir.o(.text).
    Adding TA veneer (4 bytes, Inline) for call to '__aeabi_cdcmple' from rs232_protocol.o(.text).
    Adding TA veneer (4 bytes, Inline) for call to '__aeabi_dmul' from auto_sound.o(.text).
    Adding TA veneer (4 bytes, Inline) for call to '__aeabi_cdrcmple' from rs232_protocol.o(.text).
    Adding TA veneer (4 bytes, Inline) for call to '__aeabi_drsub' from auto_sound.o(.text).
    Adding TA veneer (4 bytes, Inline) for call to '__aeabi_f2d' from rs232_protocol.o(.text).
    Adding TA veneer (4 bytes, Inline) for call to '__aeabi_fadd' from rs232_protocol.o(.text).
    Adding TA veneer (4 bytes, Inline) for call to '__aeabi_fdiv' from rs232_protocol.o(.text).
    Adding TA veneer (4 bytes, Inline) for call to '__aeabi_cfcmpeq' from rs232_protocol.o(.text).
    Adding TA veneer (4 bytes, Inline) for call to '__aeabi_f2iz' from rs232_protocol.o(.text).
    Adding TA veneer (4 bytes, Inline) for call to '__aeabi_f2uiz' from rs232_protocol.o(.text).
    Adding TA veneer (4 bytes, Inline) for call to '__aeabi_i2f' from rs232_protocol.o(.text).
    Adding TA veneer (4 bytes, Inline) for call to '__aeabi_ui2f' from rs232_protocol.o(.text).
    Adding TA veneer (4 bytes, Inline) for call to '__aeabi_cfcmple' from rs232_protocol.o(.text).
    Adding TA veneer (4 bytes, Inline) for call to '__aeabi_fmul' from rs232_protocol.o(.text).
    Adding TA veneer (4 bytes, Inline) for call to '__aeabi_cfrcmple' from rs232_protocol.o(.text).
    Adding TA veneer (4 bytes, Inline) for call to '__aeabi_fsub' from auto_sound.o(.text).
    Adding TA veneer (4 bytes, Inline) for call to '__ieee_status' from _printf_fp_dec.o(.text).

68 Veneer(s) (total 412 bytes) added to the image.

==============================================================================

Image Symbol Table

    Local Symbols

    Symbol Name                              Value     Ov Type        Size  Object(Section)

    RESET                                    0x00000000   Section      364  lpc2300.o(RESET)
    ../clib/angel/boardlib.s                 0x00000000   Number         0  boardshut.o ABSOLUTE
    ../clib/angel/boardlib.s                 0x00000000   Number         0  boardinit2.o ABSOLUTE
    ../clib/angel/boardlib.s                 0x00000000   Number         0  boardinit3.o ABSOLUTE
    ../clib/angel/boardlib.s                 0x00000000   Number         0  boardinit1.o ABSOLUTE
    ../clib/angel/dczerorl2.s                0x00000000   Number         0  __dczerorl2.o ABSOLUTE
    ../clib/angel/handlers.s                 0x00000000   Number         0  __scatter_zi.o ABSOLUTE
    ../clib/angel/kernel.s                   0x00000000   Number         0  rtentry2.o ABSOLUTE
    ../clib/angel/kernel.s                   0x00000000   Number         0  rtentry.o ABSOLUTE
    ../clib/angel/kernel.s                   0x00000000   Number         0  rtexit.o ABSOLUTE
    ../clib/angel/kernel.s                   0x00000000   Number         0  rtexit2.o ABSOLUTE
    ../clib/angel/kernel.s                   0x00000000   Number         0  rtentry4.o ABSOLUTE
    ../clib/angel/rt.s                       0x00000000   Number         0  rt_div0.o ABSOLUTE
    ../clib/angel/rt.s                       0x00000000   Number         0  rt_locale.o ABSOLUTE
    ../clib/angel/rt.s                       0x00000000   Number         0  rt_ctype_table.o ABSOLUTE
    ../clib/angel/rt.s                       0x00000000   Number         0  aeabi_idiv0_sigfpe.o ABSOLUTE
    ../clib/angel/rt.s                       0x00000000   Number         0  aeabi_idiv0.o ABSOLUTE
    ../clib/angel/rt.s                       0x00000000   Number         0  rt_locale_intlibspace.o ABSOLUTE
    ../clib/angel/rt.s                       0x00000000   Number         0  rt_raise.o ABSOLUTE
    ../clib/angel/rt.s                       0x00000000   Number         0  rt_errno_addr.o ABSOLUTE
    ../clib/angel/rt.s                       0x00000000   Number         0  rt_errno_addr_intlibspace.o ABSOLUTE
    ../clib/angel/scatter.s                  0x00000000   Number         0  __scatter.o ABSOLUTE
    ../clib/angel/startup.s                  0x00000000   Number         0  __main.o ABSOLUTE
    ../clib/angel/sys.s                      0x00000000   Number         0  use_no_semi.o ABSOLUTE
    ../clib/angel/sys.s                      0x00000000   Number         0  indicate_semi.o ABSOLUTE
    ../clib/angel/sys.s                      0x00000000   Number         0  sys_stackheap_outer.o ABSOLUTE
    ../clib/angel/sys.s                      0x00000000   Number         0  libspace.o ABSOLUTE
    ../clib/angel/sysapp.c                   0x00000000   Number         0  sys_wrch.o ABSOLUTE
    ../clib/angel/sysapp.c                   0x00000000   Number         0  sys_command.o ABSOLUTE
    ../clib/angel/sysapp.c                   0x00000000   Number         0  sys_exit.o ABSOLUTE
    ../clib/armsys.c                         0x00000000   Number         0  no_argv.o ABSOLUTE
    ../clib/armsys.c                         0x00000000   Number         0  argv_veneer.o ABSOLUTE
    ../clib/armsys.c                         0x00000000   Number         0  argv_veneer.o ABSOLUTE
    ../clib/armsys.c                         0x00000000   Number         0  _get_argv_nomalloc.o ABSOLUTE
    ../clib/bigflt.c                         0x00000000   Number         0  bigflt0.o ABSOLUTE
    ../clib/btod.s                           0x00000000   Number         0  btod.o ABSOLUTE
    ../clib/division.s                       0x00000000   Number         0  aeabi_sdiv_div0.o ABSOLUTE
    ../clib/division.s                       0x00000000   Number         0  rtudiv10.o ABSOLUTE
    ../clib/division.s                       0x00000000   Number         0  aeabi_sdiv.o ABSOLUTE
    ../clib/divrt.s                          0x00000000   Number         0  divrt_7tdmi_div0.o ABSOLUTE
    ../clib/divrt.s                          0x00000000   Number         0  divrt_7tdmi.o ABSOLUTE
    ../clib/fenv.c                           0x00000000   Number         0  _rserrno.o ABSOLUTE
    ../clib/heapalloc.c                      0x00000000   Number         0  hrguard.o ABSOLUTE
    ../clib/heapaux.c                        0x00000000   Number         0  heapauxi.o ABSOLUTE
    ../clib/libinit.s                        0x00000000   Number         0  libinit2.o ABSOLUTE
    ../clib/libinit.s                        0x00000000   Number         0  libshutdown.o ABSOLUTE
    ../clib/libinit.s                        0x00000000   Number         0  libshutdown2.o ABSOLUTE
    ../clib/libinit.s                        0x00000000   Number         0  libinit.o ABSOLUTE
    ../clib/locale.c                         0x00000000   Number         0  _wcrtomb.o ABSOLUTE
    ../clib/locale.s                         0x00000000   Number         0  lc_ctype_c.o ABSOLUTE
    ../clib/locale.s                         0x00000000   Number         0  lc_numeric_c.o ABSOLUTE
    ../clib/longlong.s                       0x00000000   Number         0  lludiv10.o ABSOLUTE
    ../clib/memcpset.s                       0x00000000   Number         0  rt_memclr.o ABSOLUTE
    ../clib/memcpset.s                       0x00000000   Number         0  rt_memcpy_w.o ABSOLUTE
    ../clib/memcpset.s                       0x00000000   Number         0  strncpy.o ABSOLUTE
    ../clib/memcpset.s                       0x00000000   Number         0  rt_memcpy.o ABSOLUTE
    ../clib/memcpset.s                       0x00000000   Number         0  strcmp.o ABSOLUTE
    ../clib/memcpset.s                       0x00000000   Number         0  rt_memclr_w.o ABSOLUTE
    ../clib/memcpset.s                       0x00000000   Number         0  aeabi_memset.o ABSOLUTE
    ../clib/misc.s                           0x00000000   Number         0  printf_stubs.o ABSOLUTE
    ../clib/printf.c                         0x00000000   Number         0  _printf_char_common.o ABSOLUTE
    ../clib/printf.c                         0x00000000   Number         0  _printf_hex_int_ptr.o ABSOLUTE
    ../clib/printf.c                         0x00000000   Number         0  _printf_hex_int_ll_ptr.o ABSOLUTE
    ../clib/printf.c                         0x00000000   Number         0  _printf_hex_ptr.o ABSOLUTE
    ../clib/printf.c                         0x00000000   Number         0  _printf_hex_int_ll.o ABSOLUTE
    ../clib/printf.c                         0x00000000   Number         0  _printf_truncate.o ABSOLUTE
    ../clib/printf.c                         0x00000000   Number         0  noretval__2sprintf.o ABSOLUTE
    ../clib/printf.c                         0x00000000   Number         0  __printf.o ABSOLUTE
    ../clib/printf.c                         0x00000000   Number         0  _printf_pad.o ABSOLUTE
    ../clib/printf.c                         0x00000000   Number         0  _printf_dec.o ABSOLUTE
    ../clib/printf.c                         0x00000000   Number         0  __printf_flags.o ABSOLUTE
    ../clib/printf.c                         0x00000000   Number         0  __printf_ss.o ABSOLUTE
    ../clib/printf.c                         0x00000000   Number         0  __printf_flags_ss.o ABSOLUTE
    ../clib/printf.c                         0x00000000   Number         0  __printf_wp.o ABSOLUTE
    ../clib/printf.c                         0x00000000   Number         0  _printf_hex_int.o ABSOLUTE
    ../clib/printf.c                         0x00000000   Number         0  __printf_flags_wp.o ABSOLUTE
    ../clib/printf.c                         0x00000000   Number         0  __printf_ss_wp.o ABSOLUTE
    ../clib/printf.c                         0x00000000   Number         0  _printf_hex_ll.o ABSOLUTE
    ../clib/printf.c                         0x00000000   Number         0  __printf_flags_ss_wp.o ABSOLUTE
    ../clib/printf.c                         0x00000000   Number         0  __2sprintf.o ABSOLUTE
    ../clib/printf.c                         0x00000000   Number         0  _printf_wchar.o ABSOLUTE
    ../clib/printf.c                         0x00000000   Number         0  _printf_oct_int_ll.o ABSOLUTE
    ../clib/printf.c                         0x00000000   Number         0  _printf_char.o ABSOLUTE
    ../clib/printf.c                         0x00000000   Number         0  _printf_oct_int.o ABSOLUTE
    ../clib/printf.c                         0x00000000   Number         0  __printf_nopercent.o ABSOLUTE
    ../clib/printf.c                         0x00000000   Number         0  _printf_oct_ll.o ABSOLUTE
    ../clib/printf.c                         0x00000000   Number         0  _printf_longlong_dec.o ABSOLUTE
    ../clib/printf.c                         0x00000000   Number         0  _printf_wctomb.o ABSOLUTE
    ../clib/printf.c                         0x00000000   Number         0  _printf_fp_infnan.o ABSOLUTE
    ../clib/printf.c                         0x00000000   Number         0  _sputc.o ABSOLUTE
    ../clib/printf.c                         0x00000000   Number         0  _printf_fp_dec.o ABSOLUTE
    ../clib/printf.c                         0x00000000   Number         0  _printf_hex_ll_ptr.o ABSOLUTE
    ../clib/printf.c                         0x00000000   Number         0  c89vsprintf.o ABSOLUTE
    ../clib/printf.c                         0x00000000   Number         0  _printf_charcount.o ABSOLUTE
    ../clib/printf.c                         0x00000000   Number         0  _printf_intcommon.o ABSOLUTE
    ../clib/printf.c                         0x00000000   Number         0  _printf_str.o ABSOLUTE
    ../clib/printf_percent.s                 0x00000000   Number         0  _printf_l.o ABSOLUTE
    ../clib/printf_percent.s                 0x00000000   Number         0  _printf_o.o ABSOLUTE
    ../clib/printf_percent.s                 0x00000000   Number         0  _printf_i.o ABSOLUTE
    ../clib/printf_percent.s                 0x00000000   Number         0  _printf_u.o ABSOLUTE
    ../clib/printf_percent.s                 0x00000000   Number         0  _printf_e.o ABSOLUTE
    ../clib/printf_percent.s                 0x00000000   Number         0  _printf_g.o ABSOLUTE
    ../clib/printf_percent.s                 0x00000000   Number         0  _printf_a.o ABSOLUTE
    ../clib/printf_percent.s                 0x00000000   Number         0  _printf_percent_end.o ABSOLUTE
    ../clib/printf_percent.s                 0x00000000   Number         0  _printf_lli.o ABSOLUTE
    ../clib/printf_percent.s                 0x00000000   Number         0  _printf_llu.o ABSOLUTE
    ../clib/printf_percent.s                 0x00000000   Number         0  _printf_ll.o ABSOLUTE
    ../clib/printf_percent.s                 0x00000000   Number         0  _printf_p.o ABSOLUTE
    ../clib/printf_percent.s                 0x00000000   Number         0  _printf_lc.o ABSOLUTE
    ../clib/printf_percent.s                 0x00000000   Number         0  _printf_ls.o ABSOLUTE
    ../clib/printf_percent.s                 0x00000000   Number         0  _printf_llo.o ABSOLUTE
    ../clib/printf_percent.s                 0x00000000   Number         0  _printf_llx.o ABSOLUTE
    ../clib/printf_percent.s                 0x00000000   Number         0  _printf_n.o ABSOLUTE
    ../clib/printf_percent.s                 0x00000000   Number         0  _printf_d.o ABSOLUTE
    ../clib/printf_percent.s                 0x00000000   Number         0  _printf_f.o ABSOLUTE
    ../clib/printf_percent.s                 0x00000000   Number         0  _printf_x.o ABSOLUTE
    ../clib/printf_percent.s                 0x00000000   Number         0  _printf_c.o ABSOLUTE
    ../clib/printf_percent.s                 0x00000000   Number         0  _printf_s.o ABSOLUTE
    ../clib/printf_percent.s                 0x00000000   Number         0  _printf_percent.o ABSOLUTE
    ../clib/printf_percent.s                 0x00000000   Number         0  _printf_lld.o ABSOLUTE
    ../clib/signal.c                         0x00000000   Number         0  defsig_stak_inner.o ABSOLUTE
    ../clib/signal.c                         0x00000000   Number         0  defsig_segv_inner.o ABSOLUTE
    ../clib/signal.c                         0x00000000   Number         0  defsig_fpe_inner.o ABSOLUTE
    ../clib/signal.c                         0x00000000   Number         0  defsig_exit.o ABSOLUTE
    ../clib/signal.c                         0x00000000   Number         0  defsig_fpe_formal.o ABSOLUTE
    ../clib/signal.c                         0x00000000   Number         0  __raise.o ABSOLUTE
    ../clib/signal.c                         0x00000000   Number         0  defsig_general.o ABSOLUTE
    ../clib/signal.c                         0x00000000   Number         0  defsig_cppl_inner.o ABSOLUTE
    ../clib/signal.c                         0x00000000   Number         0  defsig_other.o ABSOLUTE
    ../clib/signal.c                         0x00000000   Number         0  defsig_rtmem_outer.o ABSOLUTE
    ../clib/signal.c                         0x00000000   Number         0  defsig_rtmem_formal.o ABSOLUTE
    ../clib/signal.c                         0x00000000   Number         0  defsig_pvfn_inner.o ABSOLUTE
    ../clib/signal.c                         0x00000000   Number         0  defsig_rtmem_inner.o ABSOLUTE
    ../clib/signal.c                         0x00000000   Number         0  defsig_rtred_inner.o ABSOLUTE
    ../clib/signal.c                         0x00000000   Number         0  defsig_abrt_inner.o ABSOLUTE
    ../clib/signal.c                         0x00000000   Number         0  defsig_fpe_outer.o ABSOLUTE
    ../clib/signal.s                         0x00000000   Number         0  defsig.o ABSOLUTE
    ../clib/stdlib.c                         0x00000000   Number         0  exit.o ABSOLUTE
    ../clib/string.c                         0x00000000   Number         0  strlen.o ABSOLUTE
    ../fplib/d2f.s                           0x00000000   Number         0  d2f.o ABSOLUTE
    ../fplib/daddsub.s                       0x00000000   Number         0  daddsub_noclz.o ABSOLUTE
    ../fplib/dcheck1.s                       0x00000000   Number         0  dcheck1.o ABSOLUTE
    ../fplib/dcmpi.s                         0x00000000   Number         0  dcmpi.o ABSOLUTE
    ../fplib/ddiv.s                          0x00000000   Number         0  ddiv.o ABSOLUTE
    ../fplib/dflt.s                          0x00000000   Number         0  dflt_noclz.o ABSOLUTE
    ../fplib/dleqf.s                         0x00000000   Number         0  dleqf.o ABSOLUTE
    ../fplib/dmul.s                          0x00000000   Number         0  dmul.o ABSOLUTE
    ../fplib/dnaninf.s                       0x00000000   Number         0  dnaninf.o ABSOLUTE
    ../fplib/dretinf.s                       0x00000000   Number         0  dretinf.o ABSOLUTE
    ../fplib/drleqf.s                        0x00000000   Number         0  drleqf.o ABSOLUTE
    ../fplib/dsqrt.s                         0x00000000   Number         0  dsqrt_noumaal.o ABSOLUTE
    ../fplib/f2d.s                           0x00000000   Number         0  f2d.o ABSOLUTE
    ../fplib/faddsub.s                       0x00000000   Number         0  faddsub_noclz.o ABSOLUTE
    ../fplib/fcmpi.s                         0x00000000   Number         0  fcmpi.o ABSOLUTE
    ../fplib/fdiv.s                          0x00000000   Number         0  fdiv.o ABSOLUTE
    ../fplib/feqf.s                          0x00000000   Number         0  feqf.o ABSOLUTE
    ../fplib/ffix.s                          0x00000000   Number         0  ffix.o ABSOLUTE
    ../fplib/ffixu.s                         0x00000000   Number         0  ffixu.o ABSOLUTE
    ../fplib/fflt.s                          0x00000000   Number         0  fflt_noclz.o ABSOLUTE
    ../fplib/fleqf.s                         0x00000000   Number         0  fleqf.o ABSOLUTE
    ../fplib/fmul.s                          0x00000000   Number         0  fmul.o ABSOLUTE
    ../fplib/fnaninf.s                       0x00000000   Number         0  fnaninf.o ABSOLUTE
    ../fplib/fpinit.s                        0x00000000   Number         0  fpinit.o ABSOLUTE
    ../fplib/fretinf.s                       0x00000000   Number         0  fretinf.o ABSOLUTE
    ../fplib/frleqf.s                        0x00000000   Number         0  frleqf.o ABSOLUTE
    ../fplib/istatus.s                       0x00000000   Number         0  istatus.o ABSOLUTE
    ../fplib/printf1.s                       0x00000000   Number         0  printf1.o ABSOLUTE
    ../fplib/retnan.s                        0x00000000   Number         0  retnan.o ABSOLUTE
    ../fplib/scalbn.s                        0x00000000   Number         0  scalbn.o ABSOLUTE
    ../fplib/trapv.s                         0x00000000   Number         0  trapv.o ABSOLUTE
    ../fplib/usenofp.s                       0x00000000   Number         0  usenofp.o ABSOLUTE
    ../mathlib/dunder.c                      0x00000000   Number         0  dunder.o ABSOLUTE
    ../mathlib/fpclassify.c                  0x00000000   Number         0  fpclassify.o ABSOLUTE
    ../mathlib/poly.c                        0x00000000   Number         0  poly.o ABSOLUTE
    ../mathlib/pow.c                         0x00000000   Number         0  pow.o ABSOLUTE
    ../mathlib/pow.c                         0x00000000   Number         0  pow_x.o ABSOLUTE
    ../mathlib/qnan.c                        0x00000000   Number         0  qnan.o ABSOLUTE
    ../mathlib/sqrt.c                        0x00000000   Number         0  sqrt_x.o ABSOLUTE
    ../mathlib/sqrt.c                        0x00000000   Number         0  sqrt.o ABSOLUTE
    Sourcecode\cs495300\AudioManager.c       0x00000000   Number         0  audiomanager.o ABSOLUTE
    Sourcecode\cs495300\BassManager.c        0x00000000   Number         0  bassmanager.o ABSOLUTE
    Sourcecode\cs495300\DSP_API.c            0x00000000   Number         0  dsp_api.o ABSOLUTE
    Sourcecode\cs495300\DTS_ES_Manager.c     0x00000000   Number         0  dts_es_manager.o ABSOLUTE
    Sourcecode\cs495300\DTS_Manager.c        0x00000000   Number         0  dts_manager.o ABSOLUTE
    Sourcecode\cs495300\DTS_NEO6_Manager.c   0x00000000   Number         0  dts_neo6_manager.o ABSOLUTE
    Sourcecode\cs495300\DelayManager.c       0x00000000   Number         0  delaymanager.o ABSOLUTE
    Sourcecode\cs495300\DolbyHeadphone.c     0x00000000   Number         0  dolbyheadphone.o ABSOLUTE
    Sourcecode\cs495300\DolbyManager.c       0x00000000   Number         0  dolbymanager.o ABSOLUTE
    Sourcecode\cs495300\DolbyPlusManager.c   0x00000000   Number         0  dolbyplusmanager.o ABSOLUTE
    Sourcecode\cs495300\DolbyProLogicII.c    0x00000000   Number         0  dolbyprologicii.o ABSOLUTE
    Sourcecode\cs495300\DolbyProLogicIIx.c   0x00000000   Number         0  dolbyprologiciix.o ABSOLUTE
    Sourcecode\cs495300\DolbyTrueHD.c        0x00000000   Number         0  dolbytruehd.o ABSOLUTE
    Sourcecode\cs495300\DspInputOutputCfg.c  0x00000000   Number         0  dspinputoutputcfg.o ABSOLUTE
    Sourcecode\cs495300\Dsp_task.c           0x00000000   Number         0  dsp_task.o ABSOLUTE
    Sourcecode\cs495300\Eq_Manager.c         0x00000000   Number         0  eq_manager.o ABSOLUTE
    Sourcecode\cs495300\Irc1_Manager.c       0x00000000   Number         0  irc1_manager.o ABSOLUTE
    Sourcecode\cs495300\Irc2_Manager.c       0x00000000   Number         0  irc2_manager.o ABSOLUTE
    Sourcecode\cs495300\OS_Manager.c         0x00000000   Number         0  os_manager.o ABSOLUTE
    Sourcecode\cs495300\PCM_Manager.c        0x00000000   Number         0  pcm_manager.o ABSOLUTE
    Sourcecode\cs495300\SignalGenerator.c    0x00000000   Number         0  signalgenerator.o ABSOLUTE
    Sourcecode\cs495300\dspdrv.c             0x00000000   Number         0  dspdrv.o ABSOLUTE
    Sourcecode\driver\Dsp_Spi.c              0x00000000   Number         0  dsp_spi.o ABSOLUTE
    Sourcecode\driver\IC4094.c               0x00000000   Number         0  ic4094.o ABSOLUTE
    Sourcecode\driver\Ioport.c               0x00000000   Number         0  ioport.o ABSOLUTE
    Sourcecode\driver\channel.c              0x00000000   Number         0  channel.o ABSOLUTE
    Sourcecode\driver\cs8416.c               0x00000000   Number         0  cs8416.o ABSOLUTE
    Sourcecode\driver\dac.c                  0x00000000   Number         0  dac.o ABSOLUTE
    Sourcecode\driver\eeprom.c               0x00000000   Number         0  eeprom.o ABSOLUTE
    Sourcecode\driver\hdmi.c                 0x00000000   Number         0  hdmi.o ABSOLUTE
    Sourcecode\driver\i2cdrv.c               0x00000000   Number         0  i2cdrv.o ABSOLUTE
    Sourcecode\driver\ic165.c                0x00000000   Number         0  ic165.o ABSOLUTE
    Sourcecode\driver\ir.c                   0x00000000   Number         0  ir.o ABSOLUTE
    Sourcecode\driver\mas9116.c              0x00000000   Number         0  mas9116.o ABSOLUTE
    Sourcecode\driver\max335.c               0x00000000   Number         0  max335.o ABSOLUTE
    Sourcecode\driver\rbds.c                 0x00000000   Number         0  rbds.o ABSOLUTE
    Sourcecode\driver\timer.c                0x00000000   Number         0  timer.o ABSOLUTE
    Sourcecode\driver\tuner_new.c            0x00000000   Number         0  tuner_new.o ABSOLUTE
    Sourcecode\driver\uart.c                 0x00000000   Number         0  uart.o ABSOLUTE
    Sourcecode\driver\vfddriver.c            0x00000000   Number         0  vfddriver.o ABSOLUTE
    Sourcecode\driver\volume.c               0x00000000   Number         0  volume.o ABSOLUTE
    Sourcecode\main\Menu_tbl.c               0x00000000   Number         0  menu_tbl.o ABSOLUTE
    Sourcecode\main\Zone1_task.c             0x00000000   Number         0  zone1_task.o ABSOLUTE
    Sourcecode\main\auto_sound.c             0x00000000   Number         0  auto_sound.o ABSOLUTE
    Sourcecode\main\c11_msg_handler.c        0x00000000   Number         0  c11_msg_handler.o ABSOLUTE
    Sourcecode\main\debug.c                  0x00000000   Number         0  debug.o ABSOLUTE
    Sourcecode\main\key_tab.c                0x00000000   Number         0  key_tab.o ABSOLUTE
    Sourcecode\main\key_task.c               0x00000000   Number         0  key_task.o ABSOLUTE
    Sourcecode\main\main.c                   0x00000000   Number         0  main.o ABSOLUTE
    Sourcecode\main\message.c                0x00000000   Number         0  message.o ABSOLUTE
    Sourcecode\main\queue.c                  0x00000000   Number         0  queue.o ABSOLUTE
    Sourcecode\main\radio_task.c             0x00000000   Number         0  radio_task.o ABSOLUTE
    Sourcecode\main\rs232_protocol.c         0x00000000   Number         0  rs232_protocol.o ABSOLUTE
    Sourcecode\main\setup_func.c             0x00000000   Number         0  setup_func.o ABSOLUTE
    Sourcecode\main\setup_menu.c             0x00000000   Number         0  setup_menu.o ABSOLUTE
    Sourcecode\main\task.c                   0x00000000   Number         0  task.o ABSOLUTE
    Sourcecode\main\vfd_disp.c               0x00000000   Number         0  vfd_disp.o ABSOLUTE
    Sourcecode\main\zone2_task.c             0x00000000   Number         0  zone2_task.o ABSOLUTE
    Sourcecode\startup\LPC2300.s             0x00000000   Number         0  lpc2300.o ABSOLUTE
    dc.s                                     0x00000000   Number         0  dc.o ABSOLUTE
    Undef_Handler                            0x00000040   ARM Code       4  lpc2300.o(RESET)
    SWI_Handler                              0x00000044   ARM Code       4  lpc2300.o(RESET)
    PAbt_Handler                             0x00000048   ARM Code       4  lpc2300.o(RESET)
    DAbt_Handler                             0x0000004c   ARM Code       4  lpc2300.o(RESET)
    IRQ_Handler                              0x00000050   ARM Code       4  lpc2300.o(RESET)
    FIQ_Handler                              0x00000054   ARM Code       4  lpc2300.o(RESET)
    !!!main                                  0x0000016c   Section        8  __main.o(!!!main)
    !!!scatter                               0x00000174   Section       60  __scatter.o(!!!scatter)
    !!dczerorl2                              0x000001b0   Section       92  __dczerorl2.o(!!dczerorl2)
    _decompress_loop                         0x000001bb   Thumb Code     0  __dczerorl2.o(!!dczerorl2)
    _decompress_zerolen                      0x000001c9   Thumb Code     0  __dczerorl2.o(!!dczerorl2)
    _decompress_litn                         0x000001d1   Thumb Code     0  __dczerorl2.o(!!dczerorl2)
    _decompress_lit                          0x000001d5   Thumb Code     0  __dczerorl2.o(!!dczerorl2)
    _decompress_copyorzero                   0x000001e1   Thumb Code     0  __dczerorl2.o(!!dczerorl2)
    _decompress_zero                         0x000001e9   Thumb Code     0  __dczerorl2.o(!!dczerorl2)
    _decompress_copyn                        0x000001f3   Thumb Code     0  __dczerorl2.o(!!dczerorl2)
    _decompress_copy                         0x000001fb   Thumb Code     0  __dczerorl2.o(!!dczerorl2)
    _decompress_end                          0x00000207   Thumb Code     0  __dczerorl2.o(!!dczerorl2)
    !!handler_zi                             0x0000020c   Section       44  __scatter_zi.o(!!handler_zi)
    .ARM.Collect$$_printf_percent$$00000000  0x0000023c   Section        0  _printf_percent.o(.ARM.Collect$$_printf_percent$$00000000)
    .ARM.Collect$$_printf_percent$$00000001  0x0000023c   Section        8  _printf_n.o(.ARM.Collect$$_printf_percent$$00000001)
    .ARM.Collect$$_printf_percent$$00000002  0x00000244   Section        8  _printf_p.o(.ARM.Collect$$_printf_percent$$00000002)
    .ARM.Collect$$_printf_percent$$00000003  0x0000024c   Section        8  _printf_f.o(.ARM.Collect$$_printf_percent$$00000003)
    .ARM.Collect$$_printf_percent$$00000004  0x00000254   Section        8  _printf_e.o(.ARM.Collect$$_printf_percent$$00000004)
    .ARM.Collect$$_printf_percent$$00000005  0x0000025c   Section        8  _printf_g.o(.ARM.Collect$$_printf_percent$$00000005)
    .ARM.Collect$$_printf_percent$$00000006  0x00000264   Section        8  _printf_a.o(.ARM.Collect$$_printf_percent$$00000006)
    .ARM.Collect$$_printf_percent$$00000007  0x0000026c   Section       12  _printf_ll.o(.ARM.Collect$$_printf_percent$$00000007)
    .ARM.Collect$$_printf_percent$$00000008  0x00000278   Section        8  _printf_i.o(.ARM.Collect$$_printf_percent$$00000008)
    .ARM.Collect$$_printf_percent$$00000009  0x00000280   Section        8  _printf_d.o(.ARM.Collect$$_printf_percent$$00000009)
    .ARM.Collect$$_printf_percent$$0000000A  0x00000288   Section        8  _printf_u.o(.ARM.Collect$$_printf_percent$$0000000A)
    .ARM.Collect$$_printf_percent$$0000000B  0x00000290   Section        8  _printf_o.o(.ARM.Collect$$_printf_percent$$0000000B)
    .ARM.Collect$$_printf_percent$$0000000C  0x00000298   Section        8  _printf_x.o(.ARM.Collect$$_printf_percent$$0000000C)
    .ARM.Collect$$_printf_percent$$0000000D  0x000002a0   Section        8  _printf_lli.o(.ARM.Collect$$_printf_percent$$0000000D)
    .ARM.Collect$$_printf_percent$$0000000E  0x000002a8   Section        8  _printf_lld.o(.ARM.Collect$$_printf_percent$$0000000E)
    .ARM.Collect$$_printf_percent$$0000000F  0x000002b0   Section        8  _printf_llu.o(.ARM.Collect$$_printf_percent$$0000000F)
    .ARM.Collect$$_printf_percent$$00000010  0x000002b8   Section        8  _printf_llo.o(.ARM.Collect$$_printf_percent$$00000010)
    .ARM.Collect$$_printf_percent$$00000011  0x000002c0   Section        8  _printf_llx.o(.ARM.Collect$$_printf_percent$$00000011)
    .ARM.Collect$$_printf_percent$$00000012  0x000002c8   Section       12  _printf_l.o(.ARM.Collect$$_printf_percent$$00000012)
    .ARM.Collect$$_printf_percent$$00000013  0x000002d4   Section        8  _printf_c.o(.ARM.Collect$$_printf_percent$$00000013)
    .ARM.Collect$$_printf_percent$$00000014  0x000002dc   Section        8  _printf_s.o(.ARM.Collect$$_printf_percent$$00000014)
    .ARM.Collect$$_printf_percent$$00000015  0x000002e4   Section        8  _printf_lc.o(.ARM.Collect$$_printf_percent$$00000015)
    .ARM.Collect$$_printf_percent$$00000016  0x000002ec   Section        8  _printf_ls.o(.ARM.Collect$$_printf_percent$$00000016)
    .ARM.Collect$$_printf_percent$$00000017  0x000002f4   Section        8  _printf_percent_end.o(.ARM.Collect$$_printf_percent$$00000017)
    .ARM.Collect$$libinit$$00000000          0x00000304   Section        2  libinit.o(.ARM.Collect$$libinit$$00000000)
    .ARM.Collect$$libinit$$00000002          0x00000306   Section        0  libinit2.o(.ARM.Collect$$libinit$$00000002)
    .ARM.Collect$$libinit$$00000008          0x00000306   Section        0  libinit2.o(.ARM.Collect$$libinit$$00000008)
    .ARM.Collect$$libinit$$0000000A          0x00000306   Section        0  libinit2.o(.ARM.Collect$$libinit$$0000000A)
    .ARM.Collect$$libinit$$0000000C          0x00000306   Section        0  libinit2.o(.ARM.Collect$$libinit$$0000000C)
    .ARM.Collect$$libinit$$0000000D          0x00000306   Section        6  libinit2.o(.ARM.Collect$$libinit$$0000000D)
    .ARM.Collect$$libinit$$0000000F          0x0000030c   Section        0  libinit2.o(.ARM.Collect$$libinit$$0000000F)
    .ARM.Collect$$libinit$$00000010          0x0000030c   Section       12  libinit2.o(.ARM.Collect$$libinit$$00000010)
    .ARM.Collect$$libinit$$00000011          0x00000318   Section        0  libinit2.o(.ARM.Collect$$libinit$$00000011)
    .ARM.Collect$$libinit$$00000013          0x00000318   Section        0  libinit2.o(.ARM.Collect$$libinit$$00000013)
    .ARM.Collect$$libinit$$00000014          0x00000318   Section       10  libinit2.o(.ARM.Collect$$libinit$$00000014)
    .ARM.Collect$$libinit$$00000015          0x00000322   Section        0  libinit2.o(.ARM.Collect$$libinit$$00000015)
    .ARM.Collect$$libinit$$00000017          0x00000322   Section        0  libinit2.o(.ARM.Collect$$libinit$$00000017)
    .ARM.Collect$$libinit$$00000019          0x00000322   Section        0  libinit2.o(.ARM.Collect$$libinit$$00000019)
    .ARM.Collect$$libinit$$0000001B          0x00000322   Section        0  libinit2.o(.ARM.Collect$$libinit$$0000001B)
    .ARM.Collect$$libinit$$0000001D          0x00000322   Section        0  libinit2.o(.ARM.Collect$$libinit$$0000001D)
    .ARM.Collect$$libinit$$0000001F          0x00000322   Section        0  libinit2.o(.ARM.Collect$$libinit$$0000001F)
    .ARM.Collect$$libinit$$00000021          0x00000322   Section        0  libinit2.o(.ARM.Collect$$libinit$$00000021)
    .ARM.Collect$$libinit$$00000023          0x00000322   Section        0  libinit2.o(.ARM.Collect$$libinit$$00000023)
    .ARM.Collect$$libinit$$0000002A          0x00000322   Section        0  libinit2.o(.ARM.Collect$$libinit$$0000002A)
    .ARM.Collect$$libinit$$0000002C          0x00000322   Section        0  libinit2.o(.ARM.Collect$$libinit$$0000002C)
    .ARM.Collect$$libinit$$0000002E          0x00000322   Section        0  libinit2.o(.ARM.Collect$$libinit$$0000002E)
    .ARM.Collect$$libinit$$00000030          0x00000322   Section        0  libinit2.o(.ARM.Collect$$libinit$$00000030)
    .ARM.Collect$$libinit$$00000031          0x00000322   Section       12  libinit2.o(.ARM.Collect$$libinit$$00000031)
    .ARM.Collect$$libshutdown$$00000000      0x00000338   Section        4  libshutdown.o(.ARM.Collect$$libshutdown$$00000000)
    .ARM.Collect$$libshutdown$$00000003      0x0000033c   Section        0  libshutdown2.o(.ARM.Collect$$libshutdown$$00000003)
    .ARM.Collect$$libshutdown$$00000006      0x0000033c   Section        0  libshutdown2.o(.ARM.Collect$$libshutdown$$00000006)
    .ARM.Collect$$libshutdown$$00000009      0x0000033c   Section        0  libshutdown2.o(.ARM.Collect$$libshutdown$$00000009)
    .ARM.Collect$$libshutdown$$0000000B      0x0000033c   Section        0  libshutdown2.o(.ARM.Collect$$libshutdown$$0000000B)
    .ARM.Collect$$libshutdown$$0000000E      0x0000033c   Section        0  libshutdown2.o(.ARM.Collect$$libshutdown$$0000000E)
    .ARM.Collect$$libshutdown$$0000000F      0x0000033c   Section        6  libshutdown2.o(.ARM.Collect$$libshutdown$$0000000F)
    .ARM.Collect$$rtentry$$00000000          0x00000344   Section        0  rtentry.o(.ARM.Collect$$rtentry$$00000000)
    .ARM.Collect$$rtentry$$00000002          0x00000344   Section        0  rtentry2.o(.ARM.Collect$$rtentry$$00000002)
    .ARM.Collect$$rtentry$$00000004          0x00000344   Section        8  rtentry4.o(.ARM.Collect$$rtentry$$00000004)
    .ARM.Collect$$rtentry$$00000009          0x0000034c   Section        0  rtentry2.o(.ARM.Collect$$rtentry$$00000009)
    .ARM.Collect$$rtentry$$0000000A          0x0000034c   Section        4  rtentry2.o(.ARM.Collect$$rtentry$$0000000A)
    .ARM.Collect$$rtentry$$0000000C          0x00000350   Section        0  rtentry2.o(.ARM.Collect$$rtentry$$0000000C)
    .ARM.Collect$$rtentry$$0000000D          0x00000350   Section       40  rtentry2.o(.ARM.Collect$$rtentry$$0000000D)
    .ARM.Collect$$rtexit$$00000000           0x0000037c   Section        4  rtexit.o(.ARM.Collect$$rtexit$$00000000)
    .ARM.Collect$$rtexit$$00000002           0x00000380   Section        0  rtexit2.o(.ARM.Collect$$rtexit$$00000002)
    .ARM.Collect$$rtexit$$00000003           0x00000380   Section        4  rtexit2.o(.ARM.Collect$$rtexit$$00000003)
    .ARM.Collect$$rtexit$$00000004           0x00000384   Section        8  rtexit2.o(.ARM.Collect$$rtexit$$00000004)
    .text                                    0x0000038c   Section       32  lpc2300.o(.text)
    .text                                    0x000003ac   Section        0  main.o(.text)
    .text                                    0x000004c0   Section        0  debug.o(.text)
    .text                                    0x00000594   Section        0  queue.o(.text)
    .text                                    0x000006f8   Section        0  c11_msg_handler.o(.text)
    .text                                    0x0000077c   Section        0  key_task.o(.text)
    panel_convert_key_value                  0x0000077d   Thumb Code    44  key_task.o(.text)
    read_key                                 0x0000082f   Thumb Code   148  key_task.o(.text)
    proc_key_press                           0x00000a0b   Thumb Code   148  key_task.o(.text)
    proc_key_hold                            0x00000a9f   Thumb Code    30  key_task.o(.text)
    GetPanelKeyThread                        0x00000abd   Thumb Code    86  key_task.o(.text)
    .text                                    0x00000c48   Section        0  message.o(.text)
    IsMsgQueueEmpty                          0x00000c57   Thumb Code    24  message.o(.text)
    IsMsgQueueFull                           0x00000c6f   Thumb Code    38  message.o(.text)
    .text                                    0x00000de0   Section        0  rs232_protocol.o(.text)
    .text                                    0x00008150   Section        0  setup_func.o(.text)
    .text                                    0x00009b6c   Section        0  setup_menu.o(.text)
    .text                                    0x0000b548   Section        0  task.o(.text)
    .text                                    0x0000b5c8   Section        0  vfd_disp.o(.text)
    .text                                    0x0000b82c   Section        0  zone1_task.o(.text)
    Zone1ProcessKey                          0x0000de69   Thumb Code  1720  zone1_task.o(.text)
    .text                                    0x0000eaf0   Section        0  zone2_task.o(.text)
    Zone2ProcessKey                          0x0000ed9f   Thumb Code   866  zone2_task.o(.text)
    .text                                    0x0000f3d0   Section        0  auto_sound.o(.text)
    GetCrossoverPoint                        0x00010d77   Thumb Code    48  auto_sound.o(.text)
    .text                                    0x00011b4c   Section        0  radio_task.o(.text)
    get_freq                                 0x00011c6b   Thumb Code    26  radio_task.o(.text)
    PreProcDigitKey                          0x00012c0d   Thumb Code   144  radio_task.o(.text)
    SaveExit                                 0x00012c9d   Thumb Code    22  radio_task.o(.text)
    SaveInit                                 0x00012ceb   Thumb Code    30  radio_task.o(.text)
    .text                                    0x00013bbc   Section        0  uart.o(.text)
    .text                                    0x00013c54   Section        0  uart.o(.text)
    .text                                    0x00013db8   Section        0  cs8416.o(.text)
    .text                                    0x00013f58   Section        0  dac.o(.text)
    .text                                    0x00014330   Section        0  eeprom.o(.text)
    .text                                    0x00014414   Section        0  i2cdrv.o(.text)
    i2c_ack                                  0x00014425   Thumb Code   278  i2cdrv.o(.text)
    i2c_start                                0x0001453b   Thumb Code   102  i2cdrv.o(.text)
    i2c_stop                                 0x000145a1   Thumb Code    72  i2cdrv.o(.text)
    i2c_writebyte                            0x000145e9   Thumb Code   166  i2cdrv.o(.text)
    i2c_readbyte                             0x0001468f   Thumb Code   130  i2cdrv.o(.text)
    .text                                    0x00014990   Section        0  ic165.o(.text)
    .text                                    0x000149e0   Section        0  ic4094.o(.text)
    Iec4094Sendbyte                          0x000149e1   Thumb Code    68  ic4094.o(.text)
    .text                                    0x00014c60   Section        0  ioport.o(.text)
    .text                                    0x00015b40   Section        0  ioport.o(.text)
    .text                                    0x00015ee0   Section        0  ir.o(.text)
    .text                                    0x000164bc   Section        0  timer.o(.text)
    .text                                    0x00016620   Section        0  timer.o(.text)
    .text                                    0x000169c0   Section        0  vfddriver.o(.text)
    .text                                    0x00016acc   Section        0  mas9116.o(.text)
    Mas9116WriteWord                         0x00016acd   Thumb Code    84  mas9116.o(.text)
    .text                                    0x00016d34   Section        0  volume.o(.text)
    .text                                    0x00016fac   Section        0  max335.o(.text)
    .text                                    0x00017084   Section        0  channel.o(.text)
    CheckInputChannel                        0x00017457   Thumb Code   472  channel.o(.text)
    .text                                    0x000176f8   Section        0  hdmi.o(.text)
    .text                                    0x00017cec   Section        0  dsp_spi.o(.text)
    Write_Byte                               0x00017d05   Thumb Code    56  dsp_spi.o(.text)
    ReadByteDsp                              0x00017d3d   Thumb Code    82  dsp_spi.o(.text)
    .text                                    0x00017f44   Section        0  tuner_new.o(.text)
    .text                                    0x0001881c   Section        0  rbds.o(.text)
    .text                                    0x00018bf0   Section        0  bassmanager.o(.text)
    .text                                    0x00019ce0   Section        0  delaymanager.o(.text)
    .text                                    0x0001a178   Section        0  dolbymanager.o(.text)
    .text                                    0x0001a414   Section        0  dolbyprologicii.o(.text)
    .text                                    0x0001a734   Section        0  dolbyprologiciix.o(.text)
    .text                                    0x0001ab14   Section        0  dsp_task.o(.text)
    .text                                    0x0001aee8   Section        0  dspdrv.o(.text)
    .text                                    0x0001d2c0   Section        0  eq_manager.o(.text)
    .text                                    0x0001dd20   Section        0  irc1_manager.o(.text)
    .text                                    0x0001dfe0   Section        0  irc2_manager.o(.text)
    .text                                    0x0001e148   Section        0  os_manager.o(.text)
    .text                                    0x0001e368   Section        0  signalgenerator.o(.text)
    .text                                    0x0001e568   Section        0  dolbytruehd.o(.text)
    .text                                    0x0001e7dc   Section        0  dsp_api.o(.text)
    .text                                    0x0001f240   Section        0  c89vsprintf.o(.text)
    .text                                    0x0001f268   Section        0  __2sprintf.o(.text)
    .text                                    0x0001f294   Section        0  _printf_pad.o(.text)
    .text                                    0x0001f2f4   Section        0  _printf_dec.o(.text)
    .text                                    0x0001f364   Section        0  __printf_flags_ss_wp.o(.text)
    .text                                    0x0001f500   Section        0  strlen.o(.text)
    .text                                    0x0001f548   Section      212  rt_memcpy.o(.text)
    .text                                    0x0001f620   Section      100  rt_memcpy_w.o(.text)
    .text                                    0x0001f688   Section       16  aeabi_memset.o(.text)
    .text                                    0x0001f69c   Section       64  rt_memclr.o(.text)
    .text                                    0x0001f6e0   Section      112  strncpy.o(.text)
    .text                                    0x0001f754   Section      384  aeabi_sdiv.o(.text)
    __arm_div8                               0x0001f780   ARM Code       0  aeabi_sdiv.o(.text)
    __arm_div5                               0x0001f7a4   ARM Code       0  aeabi_sdiv.o(.text)
    __arm_div2                               0x0001f7c8   ARM Code       0  aeabi_sdiv.o(.text)
    __arm_div_large                          0x0001f804   ARM Code       0  aeabi_sdiv.o(.text)
    .text                                    0x0001f8d4   Section        0  heapauxi.o(.text)
    .text                                    0x0001f8e4   Section        0  _rserrno.o(.text)
    .text                                    0x0001f8fe   Section        0  _printf_truncate.o(.text)
    .text                                    0x0001f92a   Section        0  _printf_str.o(.text)
    .text                                    0x0001f982   Section        0  _printf_intcommon.o(.text)
    .text                                    0x0001fa44   Section        0  _printf_charcount.o(.text)
    .text                                    0x0001fa6c   Section        0  _printf_fp_dec.o(.text)
    _fp_digits                               0x0001fa6f   Thumb Code   414  _printf_fp_dec.o(.text)
    .text                                    0x0001fe8c   Section        0  _printf_char_common.o(.text)
    _printf_input_char                       0x0001fe8d   Thumb Code    10  _printf_char_common.o(.text)
    .text                                    0x0001febc   Section        0  _sputc.o(.text)
    .text                                    0x0001fec8   Section        0  _printf_wctomb.o(.text)
    .text                                    0x0001ff90   Section        0  _printf_longlong_dec.o(.text)
    .text                                    0x0002000c   Section        0  _printf_oct_int_ll.o(.text)
    _printf_longlong_oct_internal            0x0002000d   Thumb Code     0  _printf_oct_int_ll.o(.text)
    .text                                    0x0002008c   Section        0  _printf_hex_int_ll_ptr.o(.text)
    _printf_hex_common                       0x0002008d   Thumb Code     0  _printf_hex_int_ll_ptr.o(.text)
    .text                                    0x0002012c   Section       84  rt_memclr_w.o(.text)
    .text                                    0x00020184   Section       44  rtudiv10.o(.text)
    .text                                    0x000201b4   Section       12  rt_locale_intlibspace.o(.text)
    .text                                    0x000201c4   Section       12  rt_errno_addr_intlibspace.o(.text)
    .text                                    0x000201d4   Section      160  lludiv10.o(.text)
    .text                                    0x00020274   Section        0  _printf_fp_infnan.o(.text)
    .text                                    0x0002030c   Section        0  _printf_char.o(.text)
    .text                                    0x00020348   Section        0  _printf_wchar.o(.text)
    .text                                    0x0002037c   Section        0  bigflt0.o(.text)
    .text                                    0x00020454   Section        0  _wcrtomb.o(.text)
    .text                                    0x000204a0   Section       12  libspace.o(.text)
    .text                                    0x000204ac   Section       96  sys_stackheap_outer.o(.text)
    .text                                    0x00020510   Section       24  rt_ctype_table.o(.text)
    .text                                    0x00020528   Section        0  exit.o(.text)
    .text                                    0x00020534   Section      160  strcmp.o(.text)
    .text                                    0x000205dc   Section        0  sys_exit.o(.text)
    .text                                    0x000205e8   Section        4  use_no_semi.o(.text)
    .text                                    0x000205ec   Section        0  indicate_semi.o(.text)
    .text_udiv                               0x000205f0   Section       36  aeabi_sdiv.o(.text_udiv)
    CL$$btod_d2e                             0x00020618   Section       56  btod.o(CL$$btod_d2e)
    CL$$btod_d2e_denorm_low                  0x00020650   Section       84  btod.o(CL$$btod_d2e_denorm_low)
    CL$$btod_d2e_norm_op1                    0x000206a4   Section      104  btod.o(CL$$btod_d2e_norm_op1)
    CL$$btod_div_common                      0x0002070c   Section      844  btod.o(CL$$btod_div_common)
    CL$$btod_e2e                             0x00020a58   Section      220  btod.o(CL$$btod_e2e)
    CL$$btod_ediv                            0x00020b38   Section       52  btod.o(CL$$btod_ediv)
    CL$$btod_emul                            0x00020b70   Section       52  btod.o(CL$$btod_emul)
    CL$$btod_mult_common                     0x00020ba4   Section      616  btod.o(CL$$btod_mult_common)
    i.__ARM_common_call_via_r0               0x00020e84   Section        0  main.o(i.__ARM_common_call_via_r0)
    i.__ARM_common_call_via_r1               0x00020e86   Section        0  task.o(i.__ARM_common_call_via_r1)
    i.__ARM_common_call_via_r2               0x00020e88   Section        0  rs232_protocol.o(i.__ARM_common_call_via_r2)
    i.__ARM_common_call_via_r3               0x00020e8a   Section        0  setup_menu.o(i.__ARM_common_call_via_r3)
    i.__ARM_common_switch8                   0x00020e90   Section        0  rs232_protocol.o(i.__ARM_common_switch8)
    i.__ARM_fpclassify                       0x00020eb4   Section        0  fpclassify.o(i.__ARM_fpclassify)
    i.__kernel_poly                          0x00020ee4   Section        0  poly.o(i.__kernel_poly)
    i.__mathlib_dbl_underflow                0x00020fe4   Section        0  dunder.o(i.__mathlib_dbl_underflow)
    i._is_digit                              0x00020ff8   Section        0  __printf_wp.o(i._is_digit)
    i.pow                                    0x0002100c   Section        0  pow.o(i.pow)
    i.sqrt                                   0x00021f10   Section        0  sqrt.o(i.sqrt)
    locale$$code                             0x00021f88   Section       80  lc_numeric_c.o(locale$$code)
    locale$$code                             0x00021fdc   Section       80  lc_ctype_c.o(locale$$code)
    x$fpl$d2f                                0x00022030   Section      108  d2f.o(x$fpl$d2f)
    x$fpl$dadd                               0x0002209c   Section      340  daddsub_noclz.o(x$fpl$dadd)
    _dadd1                                   0x000220ac   ARM Code       0  daddsub_noclz.o(x$fpl$dadd)
    x$fpl$dcheck1                            0x000221f0   Section       16  dcheck1.o(x$fpl$dcheck1)
    x$fpl$dcmpinf                            0x00022200   Section       28  dcmpi.o(x$fpl$dcmpinf)
    x$fpl$ddiv                               0x00022220   Section      736  ddiv.o(x$fpl$ddiv)
    ddiv_entry                               0x00022228   ARM Code       0  ddiv.o(x$fpl$ddiv)
    x$fpl$dflt                               0x00022504   Section       88  dflt_noclz.o(x$fpl$dflt)
    x$fpl$dfltu                              0x00022560   Section       12  dflt_noclz.o(x$fpl$dfltu)
    x$fpl$dleqf                              0x00022570   Section      148  dleqf.o(x$fpl$dleqf)
    x$fpl$dmul                               0x00022608   Section      384  dmul.o(x$fpl$dmul)
    x$fpl$dnaninf                            0x00022788   Section      192  dnaninf.o(x$fpl$dnaninf)
    x$fpl$dretinf                            0x00022848   Section       16  dretinf.o(x$fpl$dretinf)
    x$fpl$drleqf                             0x0002285c   Section      140  drleqf.o(x$fpl$drleqf)
    x$fpl$drsb                               0x000228ec   Section       24  daddsub_noclz.o(x$fpl$drsb)
    x$fpl$dsqrt                              0x00022904   Section      520  dsqrt_noumaal.o(x$fpl$dsqrt)
    x$fpl$dsub                               0x00022b0c   Section      580  daddsub_noclz.o(x$fpl$dsub)
    _dsub1                                   0x00022b1c   ARM Code       0  daddsub_noclz.o(x$fpl$dsub)
    x$fpl$f2d                                0x00022d54   Section      100  f2d.o(x$fpl$f2d)
    x$fpl$fadd                               0x00022dbc   Section      196  faddsub_noclz.o(x$fpl$fadd)
    _fadd1                                   0x00022dc8   ARM Code       0  faddsub_noclz.o(x$fpl$fadd)
    x$fpl$fcmpinf                            0x00022e80   Section       28  fcmpi.o(x$fpl$fcmpinf)
    x$fpl$fdiv                               0x00022ea0   Section      400  fdiv.o(x$fpl$fdiv)
    _fdiv1                                   0x00022ea0   ARM Code       0  fdiv.o(x$fpl$fdiv)
    x$fpl$feqf                               0x00023034   Section      132  feqf.o(x$fpl$feqf)
    x$fpl$ffix                               0x000230bc   Section       68  ffix.o(x$fpl$ffix)
    x$fpl$ffixu                              0x00023104   Section       84  ffixu.o(x$fpl$ffixu)
    x$fpl$fflt                               0x0002315c   Section       92  fflt_noclz.o(x$fpl$fflt)
    x$fpl$ffltu                              0x000231bc   Section        8  fflt_noclz.o(x$fpl$ffltu)
    x$fpl$fleqf                              0x000231c8   Section      132  fleqf.o(x$fpl$fleqf)
    x$fpl$fmul                               0x00023250   Section      256  fmul.o(x$fpl$fmul)
    x$fpl$fnaninf                            0x00023350   Section      168  fnaninf.o(x$fpl$fnaninf)
    x$fpl$fretinf                            0x000233f8   Section       16  fretinf.o(x$fpl$fretinf)
    x$fpl$frleqf                             0x0002340c   Section      124  frleqf.o(x$fpl$frleqf)
    x$fpl$fsub                               0x0002348c   Section      304  faddsub_noclz.o(x$fpl$fsub)
    _fsub1                                   0x00023498   ARM Code       0  faddsub_noclz.o(x$fpl$fsub)
    x$fpl$ieeestatus                         0x000235c0   Section        8  istatus.o(x$fpl$ieeestatus)
    x$fpl$printf1                            0x000235c8   Section        4  printf1.o(x$fpl$printf1)
    x$fpl$retnan                             0x000235cc   Section      116  retnan.o(x$fpl$retnan)
    x$fpl$scalbn                             0x00023640   Section      104  scalbn.o(x$fpl$scalbn)
    x$fpl$trapveneer                         0x000236a8   Section       60  trapv.o(x$fpl$trapveneer)
    .constdata                               0x000236e4   Section      121  key_tab.o(.constdata)
    x$fpl$usenofp                            0x000236e4   Section        0  usenofp.o(x$fpl$usenofp)
    .constdata                               0x00023760   Section      256  key_task.o(.constdata)
    .constdata                               0x00023860   Section      844  menu_tbl.o(.constdata)
    .constdata                               0x00023bac   Section     1552  rs232_protocol.o(.constdata)
    .constdata                               0x000241bc   Section       20  setup_func.o(.constdata)
    .constdata                               0x000241d0   Section       40  task.o(.constdata)
    .constdata                               0x000241f8   Section       21  vfd_disp.o(.constdata)
    .constdata                               0x00024210   Section      276  auto_sound.o(.constdata)
    .constdata                               0x00024324   Section       76  cs8416.o(.constdata)
    .constdata                               0x00024370   Section       76  eeprom.o(.constdata)
    .constdata                               0x000243bc   Section       80  vfddriver.o(.constdata)
    .constdata                               0x0002440c   Section        8  volume.o(.constdata)
    .constdata                               0x00024414   Section        8  max335.o(.constdata)
    .constdata                               0x0002441c   Section      216  channel.o(.constdata)
    .constdata                               0x000244f4   Section       76  hdmi.o(.constdata)
    .constdata                               0x00024540   Section      216  eq_manager.o(.constdata)
    .constdata                               0x00024618   Section      256  irc1_manager.o(.constdata)
    .constdata                               0x00024718   Section       17  __printf_flags_ss_wp.o(.constdata)
    maptable                                 0x00024718   Data          17  __printf_flags_ss_wp.o(.constdata)
    .constdata                               0x00024730   Section      136  pow.o(.constdata)
    bp                                       0x00024730   Data          16  pow.o(.constdata)
    dp_h                                     0x00024740   Data          16  pow.o(.constdata)
    dp_l                                     0x00024750   Data          16  pow.o(.constdata)
    L                                        0x00024760   Data          48  pow.o(.constdata)
    P                                        0x00024790   Data          40  pow.o(.constdata)
    .constdata                               0x000247b8   Section        8  _printf_wctomb.o(.constdata)
    initial_mbstate                          0x000247b8   Data           8  _printf_wctomb.o(.constdata)
    .constdata                               0x000247c0   Section       40  _printf_hex_int_ll_ptr.o(.constdata)
    uc_hextab                                0x000247c0   Data          20  _printf_hex_int_ll_ptr.o(.constdata)
    lc_hextab                                0x000247d4   Data          20  _printf_hex_int_ll_ptr.o(.constdata)
    .constdata                               0x000247e8   Section        8  qnan.o(.constdata)
    .constdata                               0x000247f0   Section      148  bigflt0.o(.constdata)
    tenpwrs_x                                0x000247f0   Data          60  bigflt0.o(.constdata)
    tenpwrs_i                                0x0002482c   Data          64  bigflt0.o(.constdata)
    .conststring                             0x00024884   Section     1392  menu_tbl.o(.conststring)
    .conststring                             0x00024df4   Section      871  rs232_protocol.o(.conststring)
    .conststring                             0x0002515b   Section      197  zone1_task.o(.conststring)
    .conststring                             0x00025220   Section       23  auto_sound.o(.conststring)
    locale$$data                             0x00025258   Section       28  lc_numeric_c.o(locale$$data)
    __lcnum_c_name                           0x0002525c   Data           2  lc_numeric_c.o(locale$$data)
    __lcnum_c_start                          0x00025264   Data           0  lc_numeric_c.o(locale$$data)
    __lcnum_c_point                          0x00025270   Data           0  lc_numeric_c.o(locale$$data)
    __lcnum_c_thousands                      0x00025272   Data           0  lc_numeric_c.o(locale$$data)
    __lcnum_c_grouping                       0x00025273   Data           0  lc_numeric_c.o(locale$$data)
    locale$$data                             0x00025274   Section      272  lc_ctype_c.o(locale$$data)
    __lcnum_c_end                            0x00025274   Data           0  lc_numeric_c.o(locale$$data)
    __lcctype_c_name                         0x00025278   Data           2  lc_ctype_c.o(locale$$data)
    __lcctype_c_start                        0x00025280   Data           0  lc_ctype_c.o(locale$$data)
    __lcctype_c_end                          0x00025384   Data           0  lc_ctype_c.o(locale$$data)
    .data                                    0x40000000   Section        4  main.o(.data)
    .data                                    0x40000004   Section       28  key_task.o(.data)
    pre_mode                                 0x4000000a   Data           1  key_task.o(.data)
    det_counter                              0x4000000b   Data           1  key_task.o(.data)
    pre_key                                  0x4000000c   Data           1  key_task.o(.data)
    key_counter                              0x4000000d   Data           1  key_task.o(.data)
    pre_encoder_flag                         0x4000000e   Data           1  key_task.o(.data)
    new_flag                                 0x4000000f   Data           1  key_task.o(.data)
    counter                                  0x40000010   Data           4  key_task.o(.data)
    key_counter                              0x40000014   Data           4  key_task.o(.data)
    pre_key_value                            0x40000018   Data           2  key_task.o(.data)
    key_hold_timer                           0x4000001c   Data           4  key_task.o(.data)
    .data                                    0x40000020   Section     9387  menu_tbl.o(.data)
    .data                                    0x400024cc   Section        4  message.o(.data)
    .data                                    0x400024d0   Section      786  rs232_protocol.o(.data)
    msg_status                               0x400027e0   Data           1  rs232_protocol.o(.data)
    byte_count                               0x400027e1   Data           1  rs232_protocol.o(.data)
    .data                                    0x400027e4   Section      591  setup_func.o(.data)
    position                                 0x40002a31   Data           1  setup_func.o(.data)
    position                                 0x40002a32   Data           1  setup_func.o(.data)
    .data                                    0x40002a34   Section       32  setup_menu.o(.data)
    flash_time_cnter                         0x40002a44   Data           2  setup_menu.o(.data)
    i                                        0x40002a47   Data           1  setup_menu.o(.data)
    bak_char                                 0x40002a48   Data           1  setup_menu.o(.data)
    normal_char                              0x40002a49   Data           1  setup_menu.o(.data)
    current_position                         0x40002a4a   Data           1  setup_menu.o(.data)
    bak_id                                   0x40002a4b   Data           1  setup_menu.o(.data)
    .data                                    0x40002a54   Section       25  task.o(.data)
    .data                                    0x40002a6e   Section       88  vfd_disp.o(.data)
    vfd_owner                                0x40002a6e   Data           1  vfd_disp.o(.data)
    temp_display_time                        0x40002a70   Data           2  vfd_disp.o(.data)
    vfd_buffer                               0x40002a72   Data          41  vfd_disp.o(.data)
    vfd_temp_disp_buffer                     0x40002a9b   Data          41  vfd_disp.o(.data)
    .data                                    0x40002ac8   Section      350  zone1_task.o(.data)
    RefreshTimer                             0x40002c0a   Data           2  zone1_task.o(.data)
    key_value                                0x40002c1c   Data           2  zone1_task.o(.data)
    Pre_Message                              0x40002c1e   Data           1  zone1_task.o(.data)
    refresh_id                               0x40002c24   Data           1  zone1_task.o(.data)
    .data                                    0x40002c28   Section        4  zone2_task.o(.data)
    .data                                    0x40002c2c   Section      337  auto_sound.o(.data)
    enable                                   0x40002d6c   Data           1  auto_sound.o(.data)
    setup_config_status                      0x40002d6d   Data           1  auto_sound.o(.data)
    enable                                   0x40002d6e   Data           1  auto_sound.o(.data)
    as_key_enable                            0x40002d6f   Data           1  auto_sound.o(.data)
    total_spk                                0x40002d70   Data           1  auto_sound.o(.data)
    save_vom                                 0x40002d72   Data           2  auto_sound.o(.data)
    timer_cnt                                0x40002d74   Data           1  auto_sound.o(.data)
    enable                                   0x40002d75   Data           1  auto_sound.o(.data)
    enable                                   0x40002d76   Data           1  auto_sound.o(.data)
    enable                                   0x40002d77   Data           1  auto_sound.o(.data)
    enable                                   0x40002d78   Data           1  auto_sound.o(.data)
    enable                                   0x40002d79   Data           1  auto_sound.o(.data)
    as_key_enable                            0x40002d7a   Data           1  auto_sound.o(.data)
    any_spk_outphase                         0x40002d7b   Data           1  auto_sound.o(.data)
    .data                                    0x40002d80   Section      132  radio_task.o(.data)
    old_freq                                 0x40002de8   Data           4  radio_task.o(.data)
    buffer_switch                            0x40002dec   Data           1  radio_task.o(.data)
    digi_10_key                              0x40002ded   Data           1  radio_task.o(.data)
    digi_key_count                           0x40002dee   Data           1  radio_task.o(.data)
    old_st_mode                              0x40002def   Data           1  radio_task.o(.data)
    cnter                                    0x40002df0   Data           1  radio_task.o(.data)
    .data                                    0x40002e04   Section       32  uart.o(.data)
    .data                                    0x40002e24   Section        2  cs8416.o(.data)
    error_count                              0x40002e24   Data           1  cs8416.o(.data)
    error_count                              0x40002e25   Data           1  cs8416.o(.data)
    .data                                    0x40002e26   Section        2  i2cdrv.o(.data)
    timeout                                  0x40002e26   Data           1  i2cdrv.o(.data)
    need_to_stop                             0x40002e27   Data           1  i2cdrv.o(.data)
    .data                                    0x40002e28   Section        1  ic4094.o(.data)
    shadow_ext4094                           0x40002e28   Data           1  ic4094.o(.data)
    .data                                    0x40002e2c   Section       24  ioport.o(.data)
    prevIRtime                               0x40002e34   Data           4  ioport.o(.data)
    prevIRtime                               0x40002e38   Data           4  ioport.o(.data)
    prevIRtime                               0x40002e3c   Data           4  ioport.o(.data)
    prevIRtime                               0x40002e40   Data           4  ioport.o(.data)
    .data                                    0x40002e44   Section       29  ir.o(.data)
    dataIR                                   0x40002e4e   Data           2  ir.o(.data)
    cntIRbits                                0x40002e50   Data           1  ir.o(.data)
    stateIR                                  0x40002e51   Data           1  ir.o(.data)
    data_half                                0x40002e52   Data           1  ir.o(.data)
    IR_ctlbit                                0x40002e53   Data           1  ir.o(.data)
    IR_rep_cnt                               0x40002e54   Data           1  ir.o(.data)
    dataIR                                   0x40002e56   Data           2  ir.o(.data)
    cntIRbits                                0x40002e58   Data           1  ir.o(.data)
    stateIR                                  0x40002e59   Data           1  ir.o(.data)
    data_half                                0x40002e5a   Data           1  ir.o(.data)
    IR_ctlbit                                0x40002e5b   Data           1  ir.o(.data)
    IR_rep_cnt                               0x40002e5c   Data           1  ir.o(.data)
    .data                                    0x40002e64   Section       44  timer.o(.data)
    t_count                                  0x40002e74   Data           4  timer.o(.data)
    text_count                               0x40002e78   Data           4  timer.o(.data)
    hdmi_cnter                               0x40002e7c   Data           4  timer.o(.data)
    t_cnter                                  0x40002e80   Data           4  timer.o(.data)
    softmute_cnter                           0x40002e84   Data           4  timer.o(.data)
    HDMI_Setting_cnter                       0x40002e88   Data           4  timer.o(.data)
    key_cnt                                  0x40002e8c   Data           1  timer.o(.data)
    system_delay_timer                       0x40002e8e   Data           2  timer.o(.data)
    .data                                    0x40002e90   Section        5  volume.o(.data)
    Pre_Mute_mode                            0x40002e94   Data           1  volume.o(.data)
    .data                                    0x40002e95   Section        8  max335.o(.data)
    shadow_max335                            0x40002e95   Data           8  max335.o(.data)
    .data                                    0x40002e9d   Section        2  channel.o(.data)
    pre_channel                              0x40002e9d   Data           1  channel.o(.data)
    .data                                    0x40002e9f   Section        3  hdmi.o(.data)
    Pre_value                                0x40002ea0   Data           1  hdmi.o(.data)
    hdmi_loop_time                           0x40002ea1   Data           1  hdmi.o(.data)
    .data                                    0x40002ea2   Section        3  tuner_new.o(.data)
    LM_count                                 0x40002ea4   Data           1  tuner_new.o(.data)
    .data                                    0x40002ea6   Section       24  rbds.o(.data)
    RBDS_timer                               0x40002ea6   Data           1  rbds.o(.data)
    lastRBDSSignalAcqCnt                     0x40002eac   Data           2  rbds.o(.data)
    .data                                    0x40002ebe   Section       20  dsp_task.o(.data)
    old_freq                                 0x40002ec0   Data           1  dsp_task.o(.data)
    cnter                                    0x40002ec1   Data           1  dsp_task.o(.data)
    old_cd_pcm                               0x40002ec2   Data           1  dsp_task.o(.data)
    .data                                    0x40002ed4   Section       31  dspdrv.o(.data)
    .bss                                     0x40002ef4   Section     1800  message.o(.bss)
    .bss                                     0x400035fc   Section       20  rs232_protocol.o(.bss)
    .bss                                     0x40003610   Section       20  setup_func.o(.bss)
    .bss                                     0x40003624   Section       50  zone1_task.o(.bss)
    .bss                                     0x40003656   Section      150  radio_task.o(.bss)
    .bss                                     0x400036ec   Section      512  uart.o(.bss)
    .bss                                     0x400038ec   Section       32  volume.o(.bss)
    .bss                                     0x4000390c   Section      256  tuner_new.o(.bss)
    .bss                                     0x40003a0c   Section       12  bassmanager.o(.bss)
    .bss                                     0x40003a18   Section       32  delaymanager.o(.bss)
    .bss                                     0x40003a38   Section      128  dspdrv.o(.bss)
    .bss                                     0x40003ab8   Section      640  eq_manager.o(.bss)
    .bss                                     0x40003d38   Section       96  libspace.o(.bss)
    HEAP                                     0x40003d98   Section        0  lpc2300.o(HEAP)
    STACK                                    0x40003d98   Section     1288  lpc2300.o(STACK)
    Heap_Mem                                 0x40003d98   Data           0  lpc2300.o(HEAP)
    Stack_Mem                                0x40003d98   Data        1288  lpc2300.o(STACK)
    Stack_Top                                0x400042a0   Data           0  lpc2300.o(STACK)

    Global Symbols

    Symbol Name                              Value     Ov Type        Size  Object(Section)

    BuildAttributes$$THM_ISAv1$ARM_ISAv4$S$PE$A:L22$X:L11$S22$IEEE1$IW$USESV6$~STKCKD$USESV7$~SHL$OTIME$ROPI$IEEEX$EBA8$UX$STANDARDLIB$REQ8$EABIv2 0x00000000   Number         0  anon$$obj.o ABSOLUTE
    __ARM_use_no_argv                        0x00000000   Number         0  main.o ABSOLUTE
    _printf_flags                            0x00000000   Number         0  printf_stubs.o ABSOLUTE
    _printf_return_value                     0x00000000   Number         0  printf_stubs.o ABSOLUTE
    _printf_sizespec                         0x00000000   Number         0  printf_stubs.o ABSOLUTE
    _printf_widthprec                        0x00000000   Number         0  printf_stubs.o ABSOLUTE
    __ARM_exceptions_init                     - Undefined Weak Reference
    __alloca_initialize                       - Undefined Weak Reference
    __cpp_initialize__aeabi_                  - Undefined Weak Reference
    __cxa_finalize                            - Undefined Weak Reference
    __sigvec_lookup                           - Undefined Weak Reference
    _atexit_init                              - Undefined Weak Reference
    _call_atexit_fns                          - Undefined Weak Reference
    _clock_init                               - Undefined Weak Reference
    _fp_trap_init                             - Undefined Weak Reference
    _fp_trap_shutdown                         - Undefined Weak Reference
    _get_lc_collate                           - Undefined Weak Reference
    _get_lc_monetary                          - Undefined Weak Reference
    _get_lc_time                              - Undefined Weak Reference
    _getenv_init                              - Undefined Weak Reference
    _handle_redirection                       - Undefined Weak Reference
    _init_alloc                               - Undefined Weak Reference
    _init_user_alloc                          - Undefined Weak Reference
    _initio                                   - Undefined Weak Reference
    _printf_fp_hex                            - Undefined Weak Reference
    _printf_mbtowc                            - Undefined Weak Reference
    _printf_wc                                - Undefined Weak Reference
    _rand_init                                - Undefined Weak Reference
    _signal_finish                            - Undefined Weak Reference
    _signal_init                              - Undefined Weak Reference
    _terminate_alloc                          - Undefined Weak Reference
    _terminate_user_alloc                     - Undefined Weak Reference
    _terminateio                              - Undefined Weak Reference
    Reset_Handler                            0x00000058   ARM Code       0  lpc2300.o(RESET)
    __main                                   0x0000016c   ARM Code       8  __main.o(!!!main)
    __scatterload                            0x00000174   ARM Code       0  __scatter.o(!!!scatter)
    __scatterload_rt2                        0x00000174   ARM Code      52  __scatter.o(!!!scatter)
    __scatterload_null                       0x00000188   ARM Code       0  __scatter.o(!!!scatter)
    __decompress                             0x000001b0   ARM Code      92  __dczerorl2.o(!!dczerorl2)
    __decompress1                            0x000001b0   ARM Code       0  __dczerorl2.o(!!dczerorl2)
    __scatterload_zeroinit                   0x0000020c   ARM Code      44  __scatter_zi.o(!!handler_zi)
    Inline Thumb to ARM Veneer to _printf_percent 0x00000239   Thumb Code     4  _printf_percent.o(.ARM.Collect$$_printf_percent$$00000000)
    _printf_n                                0x0000023c   ARM Code       0  _printf_n.o(.ARM.Collect$$_printf_percent$$00000001)
    _printf_percent                          0x0000023c   ARM Code       0  _printf_percent.o(.ARM.Collect$$_printf_percent$$00000000)
    _printf_p                                0x00000244   ARM Code       0  _printf_p.o(.ARM.Collect$$_printf_percent$$00000002)
    _printf_f                                0x0000024c   ARM Code       0  _printf_f.o(.ARM.Collect$$_printf_percent$$00000003)
    _printf_e                                0x00000254   ARM Code       0  _printf_e.o(.ARM.Collect$$_printf_percent$$00000004)
    _printf_g                                0x0000025c   ARM Code       0  _printf_g.o(.ARM.Collect$$_printf_percent$$00000005)
    _printf_a                                0x00000264   ARM Code       0  _printf_a.o(.ARM.Collect$$_printf_percent$$00000006)
    _printf_ll                               0x0000026c   ARM Code       0  _printf_ll.o(.ARM.Collect$$_printf_percent$$00000007)
    _printf_i                                0x00000278   ARM Code       0  _printf_i.o(.ARM.Collect$$_printf_percent$$00000008)
    _printf_d                                0x00000280   ARM Code       0  _printf_d.o(.ARM.Collect$$_printf_percent$$00000009)
    _printf_u                                0x00000288   ARM Code       0  _printf_u.o(.ARM.Collect$$_printf_percent$$0000000A)
    _printf_o                                0x00000290   ARM Code       0  _printf_o.o(.ARM.Collect$$_printf_percent$$0000000B)
    _printf_x                                0x00000298   ARM Code       0  _printf_x.o(.ARM.Collect$$_printf_percent$$0000000C)
    _printf_lli                              0x000002a0   ARM Code       0  _printf_lli.o(.ARM.Collect$$_printf_percent$$0000000D)
    _printf_lld                              0x000002a8   ARM Code       0  _printf_lld.o(.ARM.Collect$$_printf_percent$$0000000E)
    _printf_llu                              0x000002b0   ARM Code       0  _printf_llu.o(.ARM.Collect$$_printf_percent$$0000000F)
    _printf_llo                              0x000002b8   ARM Code       0  _printf_llo.o(.ARM.Collect$$_printf_percent$$00000010)
    _printf_llx                              0x000002c0   ARM Code       0  _printf_llx.o(.ARM.Collect$$_printf_percent$$00000011)
    _printf_l                                0x000002c8   ARM Code       0  _printf_l.o(.ARM.Collect$$_printf_percent$$00000012)
    _printf_c                                0x000002d4   ARM Code       0  _printf_c.o(.ARM.Collect$$_printf_percent$$00000013)
    _printf_s                                0x000002dc   ARM Code       0  _printf_s.o(.ARM.Collect$$_printf_percent$$00000014)
    _printf_lc                               0x000002e4   ARM Code       0  _printf_lc.o(.ARM.Collect$$_printf_percent$$00000015)
    _printf_ls                               0x000002ec   ARM Code       0  _printf_ls.o(.ARM.Collect$$_printf_percent$$00000016)
    _printf_percent_end                      0x000002f4   ARM Code       0  _printf_percent_end.o(.ARM.Collect$$_printf_percent$$00000017)
    Inline ARM to Thumb Veneer to __rt_lib_init 0x000002fc   ARM Code       8  libinit.o(.ARM.Collect$$libinit$$00000000)
    __rt_lib_init                            0x00000305   Thumb Code     0  libinit.o(.ARM.Collect$$libinit$$00000000)
    __rt_lib_init_fp_1                       0x00000307   Thumb Code     0  libinit2.o(.ARM.Collect$$libinit$$00000002)
    __rt_lib_init_heap_1                     0x00000307   Thumb Code     0  libinit2.o(.ARM.Collect$$libinit$$00000008)
    __rt_lib_init_lc_common                  0x00000307   Thumb Code     0  libinit2.o(.ARM.Collect$$libinit$$0000000D)
    __rt_lib_init_rand_1                     0x00000307   Thumb Code     0  libinit2.o(.ARM.Collect$$libinit$$0000000C)
    __rt_lib_init_user_alloc_1               0x00000307   Thumb Code     0  libinit2.o(.ARM.Collect$$libinit$$0000000A)
    __rt_lib_init_lc_collate_1               0x0000030d   Thumb Code     0  libinit2.o(.ARM.Collect$$libinit$$0000000F)
    __rt_lib_init_lc_ctype_2                 0x0000030d   Thumb Code     0  libinit2.o(.ARM.Collect$$libinit$$00000010)
    __rt_lib_init_lc_ctype_1                 0x00000319   Thumb Code     0  libinit2.o(.ARM.Collect$$libinit$$00000011)
    __rt_lib_init_lc_monetary_1              0x00000319   Thumb Code     0  libinit2.o(.ARM.Collect$$libinit$$00000013)
    __rt_lib_init_lc_numeric_2               0x00000319   Thumb Code     0  libinit2.o(.ARM.Collect$$libinit$$00000014)
    __rt_lib_init_alloca_1                   0x00000323   Thumb Code     0  libinit2.o(.ARM.Collect$$libinit$$0000002C)
    __rt_lib_init_argv_1                     0x00000323   Thumb Code     0  libinit2.o(.ARM.Collect$$libinit$$0000002A)
    __rt_lib_init_atexit_1                   0x00000323   Thumb Code     0  libinit2.o(.ARM.Collect$$libinit$$00000019)
    __rt_lib_init_clock_1                    0x00000323   Thumb Code     0  libinit2.o(.ARM.Collect$$libinit$$0000001F)
    __rt_lib_init_cpp_1                      0x00000323   Thumb Code     0  libinit2.o(.ARM.Collect$$libinit$$00000030)
    __rt_lib_init_exceptions_1               0x00000323   Thumb Code     0  libinit2.o(.ARM.Collect$$libinit$$0000002E)
    __rt_lib_init_fp_trap_1                  0x00000323   Thumb Code     0  libinit2.o(.ARM.Collect$$libinit$$0000001D)
    __rt_lib_init_getenv_1                   0x00000323   Thumb Code     0  libinit2.o(.ARM.Collect$$libinit$$00000021)
    __rt_lib_init_lc_numeric_1               0x00000323   Thumb Code     0  libinit2.o(.ARM.Collect$$libinit$$00000015)
    __rt_lib_init_lc_time_1                  0x00000323   Thumb Code     0  libinit2.o(.ARM.Collect$$libinit$$00000017)
    __rt_lib_init_return                     0x00000323   Thumb Code     0  libinit2.o(.ARM.Collect$$libinit$$00000031)
    __rt_lib_init_signal_1                   0x00000323   Thumb Code     0  libinit2.o(.ARM.Collect$$libinit$$0000001B)
    __rt_lib_init_stdio_1                    0x00000323   Thumb Code     0  libinit2.o(.ARM.Collect$$libinit$$00000023)
    Inline ARM to Thumb Veneer to __rt_lib_shutdown 0x00000330   ARM Code       8  libshutdown.o(.ARM.Collect$$libshutdown$$00000000)
    __rt_lib_shutdown                        0x00000339   Thumb Code     0  libshutdown.o(.ARM.Collect$$libshutdown$$00000000)
    __rt_lib_shutdown_fp_trap_1              0x0000033d   Thumb Code     0  libshutdown2.o(.ARM.Collect$$libshutdown$$00000006)
    __rt_lib_shutdown_heap_1                 0x0000033d   Thumb Code     0  libshutdown2.o(.ARM.Collect$$libshutdown$$0000000E)
    __rt_lib_shutdown_return                 0x0000033d   Thumb Code     0  libshutdown2.o(.ARM.Collect$$libshutdown$$0000000F)
    __rt_lib_shutdown_signal_1               0x0000033d   Thumb Code     0  libshutdown2.o(.ARM.Collect$$libshutdown$$00000009)
    __rt_lib_shutdown_stdio_1                0x0000033d   Thumb Code     0  libshutdown2.o(.ARM.Collect$$libshutdown$$00000003)
    __rt_lib_shutdown_user_alloc_1           0x0000033d   Thumb Code     0  libshutdown2.o(.ARM.Collect$$libshutdown$$0000000B)
    __rt_entry                               0x00000344   ARM Code       0  rtentry.o(.ARM.Collect$$rtentry$$00000000)
    __rt_entry_presh_1                       0x00000344   ARM Code       0  rtentry2.o(.ARM.Collect$$rtentry$$00000002)
    __rt_entry_sh                            0x00000344   ARM Code       0  rtentry4.o(.ARM.Collect$$rtentry$$00000004)
    __rt_entry_li                            0x0000034c   ARM Code       0  rtentry2.o(.ARM.Collect$$rtentry$$0000000A)
    __rt_entry_postsh_1                      0x0000034c   ARM Code       0  rtentry2.o(.ARM.Collect$$rtentry$$00000009)
    __rt_entry_main                          0x00000350   ARM Code       0  rtentry2.o(.ARM.Collect$$rtentry$$0000000D)
    __rt_entry_postli_1                      0x00000350   ARM Code       0  rtentry2.o(.ARM.Collect$$rtentry$$0000000C)
    Inline Thumb to ARM Veneer to __rt_exit  0x00000379   Thumb Code     4  rtexit.o(.ARM.Collect$$rtexit$$00000000)
    __rt_exit                                0x0000037c   ARM Code       0  rtexit.o(.ARM.Collect$$rtexit$$00000000)
    __rt_exit_ls                             0x00000380   ARM Code       0  rtexit2.o(.ARM.Collect$$rtexit$$00000003)
    __rt_exit_prels_1                        0x00000380   ARM Code       0  rtexit2.o(.ARM.Collect$$rtexit$$00000002)
    __rt_exit_exit                           0x00000384   ARM Code       0  rtexit2.o(.ARM.Collect$$rtexit$$00000004)
    __user_initial_stackheap                 0x0000038c   ARM Code       0  lpc2300.o(.text)
    Systeminit                               0x000003ad   Thumb Code    36  main.o(.text)
    ProcDimerOff                             0x000003d1   Thumb Code    42  main.o(.text)
    main                                     0x000003fb   Thumb Code   136  main.o(.text)
    debug_printf                             0x000004c1   Thumb Code    66  debug.o(.text)
    assert_Function                          0x00000503   Thumb Code    42  debug.o(.text)
    rs232_printf                             0x0000052d   Thumb Code    66  debug.o(.text)
    debug_message                            0x0000056f   Thumb Code     2  debug.o(.text)
    Inline ARM to Thumb Veneer to InQueue    0x0000058c   ARM Code       8  queue.o(.text)
    InitQueue                                0x00000595   Thumb Code    10  queue.o(.text)
    IsQueueEmpty                             0x0000059f   Thumb Code    36  queue.o(.text)
    IsQueueFull                              0x000005c3   Thumb Code    38  queue.o(.text)
    QueueFront                               0x000005e9   Thumb Code     8  queue.o(.text)
    DeQueue                                  0x000005f1   Thumb Code    58  queue.o(.text)
    InQueue                                  0x0000062b   Thumb Code    56  queue.o(.text)
    GetQueueElementNum                       0x00000663   Thumb Code    80  queue.o(.text)
    GetQueueElementRemain                    0x000006b3   Thumb Code    22  queue.o(.text)
    GetQueueElement                          0x000006c9   Thumb Code    48  queue.o(.text)
    SetDspPower                              0x000006f9   Thumb Code    18  c11_msg_handler.o(.text)
    SetDspDelay                              0x0000070b   Thumb Code    22  c11_msg_handler.o(.text)
    SetDspCorner                             0x00000721   Thumb Code    22  c11_msg_handler.o(.text)
    SetDspSpkMode                            0x00000737   Thumb Code    22  c11_msg_handler.o(.text)
    SetDspSignal                             0x0000074d   Thumb Code    26  c11_msg_handler.o(.text)
    SetDspIrc                                0x00000767   Thumb Code    22  c11_msg_handler.o(.text)
    HeadphoneDetect                          0x000007a9   Thumb Code   134  key_task.o(.text)
    GetEncoderSwitchThread                   0x000008c3   Thumb Code   328  key_task.o(.text)
    key_task                                 0x00000b13   Thumb Code   278  key_task.o(.text)
    InitMsgQueue                             0x00000c49   Thumb Code    14  message.o(.text)
    PostMessage                              0x00000c95   Thumb Code   104  message.o(.text)
    SendMessage                              0x00000cfd   Thumb Code   100  message.o(.text)
    GetMessage                               0x00000d61   Thumb Code    68  message.o(.text)
    GetProtocolFloatValue                    0x00000de1   Thumb Code   200  rs232_protocol.o(.text)
    IsProtocolStringValid                    0x00000ea9   Thumb Code    48  rs232_protocol.o(.text)
    ProcCmdSPU                               0x00000ed9   Thumb Code     6  rs232_protocol.o(.text)
    GetCurrentDecodeStatus                   0x00000edf   Thumb Code    68  rs232_protocol.o(.text)
    GetPcmDecodeMode                         0x00000f23   Thumb Code   108  rs232_protocol.o(.text)
    ProcCmdZ1_                               0x00000f8f   Thumb Code    70  rs232_protocol.o(.text)
    GetZone1Channel                          0x00000fd5   Thumb Code   160  rs232_protocol.o(.text)
    ProcCmdZ1S                               0x00001075   Thumb Code   392  rs232_protocol.o(.text)
    ProcCmdZ1P                               0x000011fd   Thumb Code   196  rs232_protocol.o(.text)
    ProcCmdZ1M                               0x000012c1   Thumb Code    60  rs232_protocol.o(.text)
    ProcCmdZ1A_                              0x000012fd   Thumb Code    68  rs232_protocol.o(.text)
    ProcCmdZ1C                               0x00001341   Thumb Code    94  rs232_protocol.o(.text)
    ProcCmdZ1D                               0x0000139f   Thumb Code   110  rs232_protocol.o(.text)
    ProcCmdZ1ED                              0x0000140d   Thumb Code   128  rs232_protocol.o(.text)
    GetDolby2ChDecodeMode                    0x0000148d   Thumb Code    92  rs232_protocol.o(.text)
    ProcCmdZ1EF                              0x000014e9   Thumb Code   228  rs232_protocol.o(.text)
    ProcCmdZ1EE                              0x000015cd   Thumb Code    58  rs232_protocol.o(.text)
    ProcCmdZ1ES                              0x00001607   Thumb Code    58  rs232_protocol.o(.text)
    GetDolby5ChDecodeMode                    0x00001641   Thumb Code    44  rs232_protocol.o(.text)
    ProcCmdZ1EX                              0x0000166d   Thumb Code   404  rs232_protocol.o(.text)
    ProcCmdZ1E                               0x00001801   Thumb Code   266  rs232_protocol.o(.text)
    ProcCmdZ1EU                              0x0000190b   Thumb Code    50  rs232_protocol.o(.text)
    ProcCmdZ1VM                              0x0000193d   Thumb Code   190  rs232_protocol.o(.text)
    ProcCmdZ1DF_                             0x000019fb   Thumb Code   244  rs232_protocol.o(.text)
    ProtocolSetEq                            0x00001aef   Thumb Code    94  rs232_protocol.o(.text)
    IsProtocolEqBandValid                    0x00001b4d   Thumb Code   234  rs232_protocol.o(.text)
    IsBalanceValid                           0x00001c37   Thumb Code    52  rs232_protocol.o(.text)
    ProcCmdZ1EQL                             0x00001c6b   Thumb Code    94  rs232_protocol.o(.text)
    ProcCmdZ1EQC                             0x00001cc9   Thumb Code    94  rs232_protocol.o(.text)
    ProcCmdZ1EQR                             0x00001d27   Thumb Code    94  rs232_protocol.o(.text)
    ProcCmdZ1EQSR                            0x00001d85   Thumb Code    96  rs232_protocol.o(.text)
    ProcCmdZ1EQBSR                           0x00001de5   Thumb Code    96  rs232_protocol.o(.text)
    ProcCmdZ1EQBSL                           0x00001e45   Thumb Code    96  rs232_protocol.o(.text)
    ProcCmdZ1EQSL                            0x00001ea5   Thumb Code    96  rs232_protocol.o(.text)
    ProcCmdZ1EQSW                            0x00001f05   Thumb Code    96  rs232_protocol.o(.text)
    ProcCmdZ1EQ                              0x00001f65   Thumb Code   156  rs232_protocol.o(.text)
    ProcCmdZ2P                               0x00002001   Thumb Code   326  rs232_protocol.o(.text)
    GetZone2Channel                          0x00002147   Thumb Code   110  rs232_protocol.o(.text)
    ProcCmdZ2S                               0x000021b5   Thumb Code   760  rs232_protocol.o(.text)
    ProcCmdZ2V                               0x000024ad   Thumb Code   274  rs232_protocol.o(.text)
    ProcCmdZ2M                               0x000025bf   Thumb Code    60  rs232_protocol.o(.text)
    ProcCmdZ2_                               0x000025fb   Thumb Code    54  rs232_protocol.o(.text)
    ProCmdZ2VFD_                             0x00002631   Thumb Code    60  rs232_protocol.o(.text)
    ProcCmdRSN                               0x0000266d   Thumb Code   154  rs232_protocol.o(.text)
    ProcCmdSLL                               0x00002707   Thumb Code    78  rs232_protocol.o(.text)
    ProcCmdSLC                               0x00002755   Thumb Code    76  rs232_protocol.o(.text)
    ProcCmdSLR                               0x000027a1   Thumb Code    78  rs232_protocol.o(.text)
    ProcCmdSLSR                              0x000027ef   Thumb Code    78  rs232_protocol.o(.text)
    ProcCmdSLSL                              0x0000283d   Thumb Code    78  rs232_protocol.o(.text)
    ProcCmdSLBR                              0x0000288b   Thumb Code    78  rs232_protocol.o(.text)
    ProcCmdSLBL                              0x000028d9   Thumb Code    78  rs232_protocol.o(.text)
    ProcCmdSLSW                              0x00002927   Thumb Code    78  rs232_protocol.o(.text)
    IsDistanceValid                          0x00002975   Thumb Code   328  rs232_protocol.o(.text)
    ProcCmdSPL                               0x00002abd   Thumb Code   102  rs232_protocol.o(.text)
    ProcCmdSPC                               0x00002b23   Thumb Code   102  rs232_protocol.o(.text)
    ProcCmdSPR                               0x00002b89   Thumb Code   102  rs232_protocol.o(.text)
    ProcCmdSPSR                              0x00002bef   Thumb Code   102  rs232_protocol.o(.text)
    ProcCmdSPSL                              0x00002c55   Thumb Code   102  rs232_protocol.o(.text)
    ProcCmdSPBR                              0x00002cbb   Thumb Code   102  rs232_protocol.o(.text)
    ProcCmdSPBL                              0x00002d21   Thumb Code   102  rs232_protocol.o(.text)
    ProcCmdSPs                               0x00002d87   Thumb Code   102  rs232_protocol.o(.text)
    ProcCmdSZL                               0x00002ded   Thumb Code    80  rs232_protocol.o(.text)
    ProcCmdSZR                               0x00002e3d   Thumb Code   268  rs232_protocol.o(.text)
    ProcCmdSZSL                              0x00002f49   Thumb Code    80  rs232_protocol.o(.text)
    ProcCmdSZSR                              0x00002f99   Thumb Code    80  rs232_protocol.o(.text)
    ProcCmdSZSBL                             0x00002fe9   Thumb Code    80  rs232_protocol.o(.text)
    ProcCmdSZSBR                             0x00003039   Thumb Code    80  rs232_protocol.o(.text)
    ProcCmdSZC                               0x00003089   Thumb Code    80  rs232_protocol.o(.text)
    ProcCmdSZS                               0x000030d9   Thumb Code    80  rs232_protocol.o(.text)
    IsCrossoverValid                         0x00003129   Thumb Code   110  rs232_protocol.o(.text)
    GetCrossoverPoint                        0x00003197   Thumb Code   116  rs232_protocol.o(.text)
    ProcCmdSZXFL                             0x0000320b   Thumb Code   122  rs232_protocol.o(.text)
    ProcCmdSZXFC                             0x00003285   Thumb Code   122  rs232_protocol.o(.text)
    ProcCmdSZXFR                             0x000032ff   Thumb Code   286  rs232_protocol.o(.text)
    ProcCmdSZXSR                             0x0000341d   Thumb Code   122  rs232_protocol.o(.text)
    ProcCmdSZXSL                             0x00003497   Thumb Code   122  rs232_protocol.o(.text)
    ProcCmdSZXSBR                            0x00003511   Thumb Code   122  rs232_protocol.o(.text)
    ProcCmdSZXSBL                            0x0000358b   Thumb Code   122  rs232_protocol.o(.text)
    ProcCmdSZX                               0x00003605   Thumb Code   122  rs232_protocol.o(.text)
    ProcCmdZ1LPS                             0x0000367f   Thumb Code    72  rs232_protocol.o(.text)
    ProcCmdSSPL                              0x000036c7   Thumb Code    78  rs232_protocol.o(.text)
    ProcCmdSSPC                              0x00003715   Thumb Code    82  rs232_protocol.o(.text)
    ProcCmdSSPR                              0x00003767   Thumb Code    82  rs232_protocol.o(.text)
    ProcCmdSSPSR                             0x000037b9   Thumb Code   276  rs232_protocol.o(.text)
    ProcCmdSSPSL                             0x000038cd   Thumb Code    78  rs232_protocol.o(.text)
    ProcCmdSSPSBR                            0x0000391b   Thumb Code    82  rs232_protocol.o(.text)
    ProcCmdSSPSBL                            0x0000396d   Thumb Code    82  rs232_protocol.o(.text)
    ProcCmdSSPSW                             0x000039bf   Thumb Code    82  rs232_protocol.o(.text)
    ProcCmdMSZL                              0x00003a11   Thumb Code    94  rs232_protocol.o(.text)
    ProcCmdMSZR                              0x00003a6f   Thumb Code    94  rs232_protocol.o(.text)
    ProcCmdMSZSL                             0x00003acd   Thumb Code    94  rs232_protocol.o(.text)
    ProcCmdMSZSR                             0x00003b2b   Thumb Code    94  rs232_protocol.o(.text)
    ProcCmdMSZSBL                            0x00003b89   Thumb Code    94  rs232_protocol.o(.text)
    ProcCmdMSZSBR                            0x00003be7   Thumb Code    94  rs232_protocol.o(.text)
    ProcCmdMSZC                              0x00003c45   Thumb Code    92  rs232_protocol.o(.text)
    ProcCmdMSZS                              0x00003ca1   Thumb Code   330  rs232_protocol.o(.text)
    ProcCmdMSPL                              0x00003deb   Thumb Code   100  rs232_protocol.o(.text)
    ProcCmdMSPC                              0x00003e4f   Thumb Code   100  rs232_protocol.o(.text)
    ProcCmdMSPR                              0x00003eb3   Thumb Code   100  rs232_protocol.o(.text)
    ProcCmdMSPSR                             0x00003f17   Thumb Code   100  rs232_protocol.o(.text)
    ProcCmdMSPSL                             0x00003f7b   Thumb Code   100  rs232_protocol.o(.text)
    ProcCmdMSPBR                             0x00003fdf   Thumb Code   100  rs232_protocol.o(.text)
    ProcCmdMSPBL                             0x00004043   Thumb Code   100  rs232_protocol.o(.text)
    ProcCmdMSPs                              0x000040a7   Thumb Code   100  rs232_protocol.o(.text)
    ProcCmdMSLL                              0x0000410b   Thumb Code    78  rs232_protocol.o(.text)
    ProcCmdMSLC                              0x00004159   Thumb Code   272  rs232_protocol.o(.text)
    ProcCmdMSLR                              0x00004269   Thumb Code    80  rs232_protocol.o(.text)
    ProcCmdMSLSR                             0x000042b9   Thumb Code    78  rs232_protocol.o(.text)
    ProcCmdMSLSL                             0x00004307   Thumb Code    80  rs232_protocol.o(.text)
    ProcCmdMSLBR                             0x00004357   Thumb Code    80  rs232_protocol.o(.text)
    ProcCmdMSLBL                             0x000043a7   Thumb Code    80  rs232_protocol.o(.text)
    ProcCmdMSLSW                             0x000043f7   Thumb Code    80  rs232_protocol.o(.text)
    ProcCmdMSZXFL                            0x00004447   Thumb Code   120  rs232_protocol.o(.text)
    ProcCmdMSZXFC                            0x000044bf   Thumb Code   120  rs232_protocol.o(.text)
    ProcCmdMSZXFR                            0x00004537   Thumb Code   120  rs232_protocol.o(.text)
    ProcCmdMSZXSR                            0x000045af   Thumb Code   120  rs232_protocol.o(.text)
    ProcCmdMSZXSBR                           0x00004627   Thumb Code   348  rs232_protocol.o(.text)
    ProcCmdMSZXSBL                           0x00004783   Thumb Code   120  rs232_protocol.o(.text)
    ProcCmdMSZXSL                            0x000047fb   Thumb Code   120  rs232_protocol.o(.text)
    ProcCmdMSZX                              0x00004873   Thumb Code   120  rs232_protocol.o(.text)
    ProcCmdMZ1EQL                            0x000048eb   Thumb Code    94  rs232_protocol.o(.text)
    ProcCmdMZ1EQC                            0x00004949   Thumb Code    94  rs232_protocol.o(.text)
    ProcCmdMZ1EQR                            0x000049a7   Thumb Code    94  rs232_protocol.o(.text)
    ProcCmdMZ1EQSR                           0x00004a05   Thumb Code    94  rs232_protocol.o(.text)
    ProcCmdMZ1EQBSR                          0x00004a63   Thumb Code    94  rs232_protocol.o(.text)
    ProcCmdMZ1EQBSL                          0x00004ac1   Thumb Code    94  rs232_protocol.o(.text)
    ProcCmdMZ1EQSL                           0x00004b1f   Thumb Code   284  rs232_protocol.o(.text)
    ProcCmdMZ1EQSW                           0x00004c3b   Thumb Code    94  rs232_protocol.o(.text)
    ProcCmdMSSPL                             0x00004c99   Thumb Code    78  rs232_protocol.o(.text)
    ProcCmdMSSPC                             0x00004ce7   Thumb Code    82  rs232_protocol.o(.text)
    ProcCmdMSSPR                             0x00004d39   Thumb Code    82  rs232_protocol.o(.text)
    ProcCmdMSSPSR                            0x00004d8b   Thumb Code    82  rs232_protocol.o(.text)
    ProcCmdMSSPSL                            0x00004ddd   Thumb Code    82  rs232_protocol.o(.text)
    ProcCmdMSSPSBR                           0x00004e2f   Thumb Code    82  rs232_protocol.o(.text)
    ProcCmdMSSPSBL                           0x00004e81   Thumb Code    82  rs232_protocol.o(.text)
    ProcCmdMSSPSW                            0x00004ed3   Thumb Code    82  rs232_protocol.o(.text)
    ProcCmdZ1EMDIM                           0x00004f25   Thumb Code   122  rs232_protocol.o(.text)
    ProcCmdZ1EMP                             0x00004f9f   Thumb Code   104  rs232_protocol.o(.text)
    ProcCmdZ1EMC                             0x00005007   Thumb Code   364  rs232_protocol.o(.text)
    ProcCmdZ1EMDEL                           0x00005173   Thumb Code   306  rs232_protocol.o(.text)
    ProcCmdZ1VFL_                            0x000052a5   Thumb Code    88  rs232_protocol.o(.text)
    ProcCmdZ1VFR_                            0x000052fd   Thumb Code    88  rs232_protocol.o(.text)
    ProcCmdZ1VC_                             0x00005355   Thumb Code    88  rs232_protocol.o(.text)
    ProcCmdZ1VSL_                            0x000053ad   Thumb Code    88  rs232_protocol.o(.text)
    ProcCmdZ1VSR_                            0x00005405   Thumb Code    88  rs232_protocol.o(.text)
    ProcCmdZ1VBL_                            0x0000545d   Thumb Code    88  rs232_protocol.o(.text)
    ProcCmdZ1VBR_                            0x000054b5   Thumb Code    88  rs232_protocol.o(.text)
    ProcCmdZ1VS_                             0x0000550d   Thumb Code   426  rs232_protocol.o(.text)
    Rs232UpdateStreamType                    0x000056b7   Thumb Code  2246  rs232_protocol.o(.text)
    ProCmdZ1VFD_                             0x00005f7d   Thumb Code    68  rs232_protocol.o(.text)
    ProcCmdZ1IN1                             0x00005fc1   Thumb Code    76  rs232_protocol.o(.text)
    ProcCmdZ1IN2                             0x0000600d   Thumb Code    84  rs232_protocol.o(.text)
    ProcCmdZ1IN3                             0x00006061   Thumb Code   704  rs232_protocol.o(.text)
    ProcCmdZ1IN4                             0x00006321   Thumb Code    84  rs232_protocol.o(.text)
    ProcCmdZ1IN5                             0x00006375   Thumb Code    82  rs232_protocol.o(.text)
    ProcCmdZ1IN6                             0x000063c7   Thumb Code    84  rs232_protocol.o(.text)
    ProcCmdZ1IN7                             0x0000641b   Thumb Code    84  rs232_protocol.o(.text)
    ProcCmdZ1IN8                             0x0000646f   Thumb Code    84  rs232_protocol.o(.text)
    IsAnalogLevelValid                       0x000064c3   Thumb Code    52  rs232_protocol.o(.text)
    FindLevelPosition                        0x000064f7   Thumb Code   140  rs232_protocol.o(.text)
    ProcCmdZ1SAL1                            0x00006583   Thumb Code    82  rs232_protocol.o(.text)
    ProcCmdZ1SAL2                            0x000065d5   Thumb Code    82  rs232_protocol.o(.text)
    ProcCmdZ1SAL3                            0x00006627   Thumb Code    82  rs232_protocol.o(.text)
    ProcCmdZ1SAL4                            0x00006679   Thumb Code    82  rs232_protocol.o(.text)
    ProcCmdZ1SAL5                            0x000066cb   Thumb Code   314  rs232_protocol.o(.text)
    ProcCmdZ1SAL6                            0x00006805   Thumb Code    80  rs232_protocol.o(.text)
    ProcCmdZ1SAL7                            0x00006855   Thumb Code    82  rs232_protocol.o(.text)
    ProcCmdZ1SAL8                            0x000068a7   Thumb Code    82  rs232_protocol.o(.text)
    ProcCmdZ1ACN1                            0x000068f9   Thumb Code    86  rs232_protocol.o(.text)
    ProcCmdZ1ACN2                            0x0000694f   Thumb Code    86  rs232_protocol.o(.text)
    ProcCmdZ1ACN3                            0x000069a5   Thumb Code    86  rs232_protocol.o(.text)
    ProcCmdZ1ACN4                            0x000069fb   Thumb Code    86  rs232_protocol.o(.text)
    ProcCmdZ1ACN5                            0x00006a51   Thumb Code    86  rs232_protocol.o(.text)
    ProcCmdZ1ACN6                            0x00006aa7   Thumb Code    86  rs232_protocol.o(.text)
    ProcCmdZ1ACN7                            0x00006afd   Thumb Code    86  rs232_protocol.o(.text)
    ProcCmdZ1ACN8                            0x00006b53   Thumb Code    86  rs232_protocol.o(.text)
    ProcCmdZ1ACN7_1                          0x00006ba9   Thumb Code   348  rs232_protocol.o(.text)
    ProcCmdZ1ACNR                            0x00006d05   Thumb Code    66  rs232_protocol.o(.text)
    ProcCmdTAT                               0x00006d47   Thumb Code   152  rs232_protocol.o(.text)
    ProcCmdTAHDT                             0x00006ddf   Thumb Code   152  rs232_protocol.o(.text)
    ProcCmdTFT                               0x00006e77   Thumb Code   160  rs232_protocol.o(.text)
    ProcCmdTFHDT                             0x00006f17   Thumb Code   162  rs232_protocol.o(.text)
    ProcCmdTAP                               0x00006fb9   Thumb Code    86  rs232_protocol.o(.text)
    ProcCmdTAHDP                             0x0000700f   Thumb Code    86  rs232_protocol.o(.text)
    ProcCmdTFP                               0x00007065   Thumb Code    86  rs232_protocol.o(.text)
    ProcCmdTFHDP                             0x000070bb   Thumb Code   272  rs232_protocol.o(.text)
    ProcCmdT                                 0x000071cb   Thumb Code    62  rs232_protocol.o(.text)
    GetTunerPosition                         0x00007209   Thumb Code    38  rs232_protocol.o(.text)
    ProcCmdTAS                               0x0000722f   Thumb Code   164  rs232_protocol.o(.text)
    ProcCmdTAHDS                             0x000072d3   Thumb Code   166  rs232_protocol.o(.text)
    ProcCmdTAF                               0x00007379   Thumb Code   214  rs232_protocol.o(.text)
    ProcCmdTAHDF                             0x0000744f   Thumb Code   212  rs232_protocol.o(.text)
    ProcCmdTT_                               0x00007523   Thumb Code   412  rs232_protocol.o(.text)
    ProcCmdASSP                              0x000076bf   Thumb Code    60  rs232_protocol.o(.text)
    ProcCmdASHDMIAO                          0x000076fb   Thumb Code    82  rs232_protocol.o(.text)
    ProcCmdASAVD                             0x0000774d   Thumb Code    90  rs232_protocol.o(.text)
    ProcCmdASFP                              0x000077a7   Thumb Code   144  rs232_protocol.o(.text)
    ProcCmdASRSN                             0x00007837   Thumb Code    62  rs232_protocol.o(.text)
    ProcCmdASIRC                             0x00007875   Thumb Code    96  rs232_protocol.o(.text)
    ProcCmdASIR2C                            0x000078d5   Thumb Code   102  rs232_protocol.o(.text)
    ProcCmdASIRM                             0x0000793b   Thumb Code    78  rs232_protocol.o(.text)
    ProcCmdASIR2M                            0x00007989   Thumb Code    78  rs232_protocol.o(.text)
    ProcCmdASTO1                             0x000079d7   Thumb Code   102  rs232_protocol.o(.text)
    ProcCmdASTO2                             0x00007a3d   Thumb Code   392  rs232_protocol.o(.text)
    ProcCmdASTO3                             0x00007bc5   Thumb Code    96  rs232_protocol.o(.text)
    ProcCmdASAIS                             0x00007c25   Thumb Code    62  rs232_protocol.o(.text)
    ProcCmdASDD                              0x00007c63   Thumb Code   108  rs232_protocol.o(.text)
    ProcCmdASRD                              0x00007ccf   Thumb Code    88  rs232_protocol.o(.text)
    ProcCmdASPAO                             0x00007d27   Thumb Code    56  rs232_protocol.o(.text)
    IsVolumeValid                            0x00007d5f   Thumb Code    52  rs232_protocol.o(.text)
    IsMAXVolumeValid                         0x00007d93   Thumb Code    52  rs232_protocol.o(.text)
    ProcCmdASMVO                             0x00007dc7   Thumb Code    98  rs232_protocol.o(.text)
    GetMasterVolumePoint                     0x00007e29   Thumb Code    32  rs232_protocol.o(.text)
    ProcCmdAZ1SMV                            0x00007e49   Thumb Code   116  rs232_protocol.o(.text)
    ProcCmdAZ2SMV                            0x00007ebd   Thumb Code    82  rs232_protocol.o(.text)
    StrCmp                                   0x00007f0f   Thumb Code    30  rs232_protocol.o(.text)
    ProcRs232Msg                             0x00007f2d   Thumb Code   330  rs232_protocol.o(.text)
    C11Rs232                                 0x00008077   Thumb Code   186  rs232_protocol.o(.text)
    SetSpeakerMode                           0x00008151   Thumb Code    62  setup_func.o(.text)
    SetDistanceMode                          0x0000818f   Thumb Code   270  setup_func.o(.text)
    SetBalanceMode                           0x0000829d   Thumb Code    70  setup_func.o(.text)
    SetCrossoverPointsMode                   0x000082e3   Thumb Code   364  setup_func.o(.text)
    Phase_Relay                              0x0000844f   Thumb Code   136  setup_func.o(.text)
    SetSpkPhase                              0x000084d7   Thumb Code   358  setup_func.o(.text)
    SetSpeakerPhaseMode                      0x0000863d   Thumb Code    68  setup_func.o(.text)
    SetPanoramaMode                          0x00008681   Thumb Code     2  setup_func.o(.text)
    SetPanoramaToDefault                     0x00008683   Thumb Code     2  setup_func.o(.text)
    ChangeListenProfileMode                  0x00008685   Thumb Code    72  setup_func.o(.text)
    AssignedInputSetup                       0x000086cd   Thumb Code   106  setup_func.o(.text)
    SpkDimensionSetup                        0x00008737   Thumb Code    78  setup_func.o(.text)
    SpkPanoramaSetup                         0x00008785   Thumb Code    78  setup_func.o(.text)
    SpkWidthSetup                            0x000087d3   Thumb Code    78  setup_func.o(.text)
    SetSpkDistance                           0x00008821   Thumb Code    62  setup_func.o(.text)
    SpkDelaySetup                            0x0000885f   Thumb Code   104  setup_func.o(.text)
    SpkPhaseSetup                            0x000088c7   Thumb Code   190  setup_func.o(.text)
    SpkEqSetup                               0x00008985   Thumb Code   200  setup_func.o(.text)
    SpkCrossoverSetup                        0x00008a4d   Thumb Code   120  setup_func.o(.text)
    AvSyncDelaySetup                         0x00008ac5   Thumb Code    70  setup_func.o(.text)
    SpkBlanceTestMode                        0x00008b0b   Thumb Code   372  setup_func.o(.text)
    SetBalanceTestSignal                     0x00008c7f   Thumb Code    46  setup_func.o(.text)
    SpkBlanceSetup                           0x00008cad   Thumb Code   124  setup_func.o(.text)
    LateSetup                                0x00008d29   Thumb Code    74  setup_func.o(.text)
    PasswordModeSetup                        0x00008d73   Thumb Code   164  setup_func.o(.text)
    PasswordSetup                            0x00008e17   Thumb Code    64  setup_func.o(.text)
    BrightSetup                              0x00008e57   Thumb Code    76  setup_func.o(.text)
    AutoInputSeekSetup                       0x00008ea3   Thumb Code    64  setup_func.o(.text)
    Zone2InputSetup                          0x00008ee3   Thumb Code   384  setup_func.o(.text)
    GetVolumeIndex                           0x00009063   Thumb Code    36  setup_func.o(.text)
    Zone2VolumeSetup                         0x00009087   Thumb Code   110  setup_func.o(.text)
    IrControlSetup                           0x000090f5   Thumb Code    70  setup_func.o(.text)
    Zone2IrControlSetup                      0x0000913b   Thumb Code    74  setup_func.o(.text)
    Zone2IrModeSetup                         0x00009185   Thumb Code   118  setup_func.o(.text)
    RearIrModeSetup                          0x000091fb   Thumb Code    96  setup_func.o(.text)
    TriggerSetup                             0x0000925b   Thumb Code    72  setup_func.o(.text)
    TriggerSetup1                            0x000092a3   Thumb Code    72  setup_func.o(.text)
    TriggerSetup2                            0x000092eb   Thumb Code    72  setup_func.o(.text)
    RestoreDefaultSetup                      0x00009333   Thumb Code   106  setup_func.o(.text)
    SpkConfigSetup                           0x0000939d   Thumb Code   138  setup_func.o(.text)
    SpkDistanceSetup                         0x00009427   Thumb Code   120  setup_func.o(.text)
    SetAnalogInLevel                         0x0000949f   Thumb Code    50  setup_func.o(.text)
    AnalogLevelSetup                         0x000094d1   Thumb Code    92  setup_func.o(.text)
    SetAnalogInMode                          0x0000952d   Thumb Code    10  setup_func.o(.text)
    AnalogInSetup                            0x00009537   Thumb Code   250  setup_func.o(.text)
    HDMIInAudioSetup                         0x00009631   Thumb Code    66  setup_func.o(.text)
    SetHdmiAudioOut                          0x00009673   Thumb Code    40  setup_func.o(.text)
    CDPureAudio                              0x0000969b   Thumb Code    74  setup_func.o(.text)
    HDMIAUIDOOUT                             0x000096e5   Thumb Code    80  setup_func.o(.text)
    SetMasterVolumeLevel                     0x00009735   Thumb Code    58  setup_func.o(.text)
    MasterVolumeLevel                        0x0000976f   Thumb Code   100  setup_func.o(.text)
    SetZ2MasterVolumeLevel                   0x000097d3   Thumb Code    40  setup_func.o(.text)
    Z2MasterVolumeLevel                      0x000097fb   Thumb Code    74  setup_func.o(.text)
    MaxVolumeLevel                           0x00009845   Thumb Code   216  setup_func.o(.text)
    SetMaxVolumeLevel                        0x0000991d   Thumb Code    74  setup_func.o(.text)
    ReadName                                 0x00009967   Thumb Code    40  setup_func.o(.text)
    WriteName                                0x0000998f   Thumb Code    74  setup_func.o(.text)
    ChanegName                               0x000099d9   Thumb Code   134  setup_func.o(.text)
    InputNameSetup                           0x00009a5f   Thumb Code   140  setup_func.o(.text)
    LogoSetup                                0x00009aeb   Thumb Code   100  setup_func.o(.text)
    ReadPwd                                  0x00009b6d   Thumb Code    32  setup_menu.o(.text)
    WritePwd                                 0x00009b8d   Thumb Code    30  setup_menu.o(.text)
    read_curr_option                         0x00009bab   Thumb Code    60  setup_menu.o(.text)
    write_curr_option                        0x00009be7   Thumb Code    30  setup_menu.o(.text)
    execute_curr_option                      0x00009c05   Thumb Code    38  setup_menu.o(.text)
    load_default_option                      0x00009c2b   Thumb Code    36  setup_menu.o(.text)
    Inquire_restrict_option                  0x00009c4f   Thumb Code    38  setup_menu.o(.text)
    MenuLoadCurOption                        0x00009c75   Thumb Code    64  setup_menu.o(.text)
    MenuFindPage                             0x00009cb5   Thumb Code    42  setup_menu.o(.text)
    MenuCaptionShow                          0x00009cdf   Thumb Code    70  setup_menu.o(.text)
    MenuHeaderShow                           0x00009d25   Thumb Code    44  setup_menu.o(.text)
    VfdShowMenuOption                        0x00009d51   Thumb Code    76  setup_menu.o(.text)
    MenuItemShow                             0x00009d9d   Thumb Code  1188  setup_menu.o(.text)
    MenuDisplay                              0x0000a241   Thumb Code    40  setup_menu.o(.text)
    SetupMenuDisplay                         0x0000a269   Thumb Code    84  setup_menu.o(.text)
    SetupMenuInit                            0x0000a2bd   Thumb Code    88  setup_menu.o(.text)
    VfdInitDispPwd                           0x0000a315   Thumb Code    56  setup_menu.o(.text)
    SetupInit                                0x0000a34d   Thumb Code    66  setup_menu.o(.text)
    SetupExit                                0x0000a38f   Thumb Code   252  setup_menu.o(.text)
    SetupMenuProcBalance                     0x0000a48b   Thumb Code    98  setup_menu.o(.text)
    ProcSetupUpKey                           0x0000a4ed   Thumb Code   314  setup_menu.o(.text)
    ProcSetupDownKey                         0x0000a627   Thumb Code   330  setup_menu.o(.text)
    ProcSetupLeftKey                         0x0000a771   Thumb Code   446  setup_menu.o(.text)
    ProcSetupRightKey                        0x0000a92f   Thumb Code   448  setup_menu.o(.text)
    ProcSetupEnterKey                        0x0000aaef   Thumb Code   282  setup_menu.o(.text)
    SetupExitMenu                            0x0000ac09   Thumb Code    42  setup_menu.o(.text)
    setupload_memroy1                        0x0000ac33   Thumb Code   296  setup_menu.o(.text)
    SetupLoadEeprom                          0x0000ad5b   Thumb Code   488  setup_menu.o(.text)
    SetupLoadDefault                         0x0000af43   Thumb Code   240  setup_menu.o(.text)
    PwdKeyService                            0x0000b033   Thumb Code   524  setup_menu.o(.text)
    SetupKeyService                          0x0000b23f   Thumb Code   246  setup_menu.o(.text)
    SetupFlashHandler                        0x0000b335   Thumb Code    80  setup_menu.o(.text)
    UpdateVfdFlash                           0x0000b385   Thumb Code   150  setup_menu.o(.text)
    SetupProcMessage                         0x0000b41b   Thumb Code    70  setup_menu.o(.text)
    IsCurFocusTid                            0x0000b549   Thumb Code    18  task.o(.text)
    SetCurFocusTid                           0x0000b55b   Thumb Code    16  task.o(.text)
    GetCurFocusTid                           0x0000b56b   Thumb Code     6  task.o(.text)
    ProcMessage                              0x0000b571   Thumb Code    72  task.o(.text)
    Inline ARM to Thumb Veneer to VfdTimerHandler 0x0000b5c0   ARM Code       8  vfd_disp.o(.text)
    VfdRefresh                               0x0000b5c9   Thumb Code    16  vfd_disp.o(.text)
    GetVfdbufferChar                         0x0000b5d9   Thumb Code     8  vfd_disp.o(.text)
    SetVfdOwner                              0x0000b5e1   Thumb Code    36  vfd_disp.o(.text)
    VfdTimerHandler                          0x0000b605   Thumb Code    88  vfd_disp.o(.text)
    SetVfdDispMode                           0x0000b65d   Thumb Code    14  vfd_disp.o(.text)
    VfdDisplay                               0x0000b66b   Thumb Code   112  vfd_disp.o(.text)
    VfdDisplayBlank                          0x0000b6db   Thumb Code    98  vfd_disp.o(.text)
    VfdTempDisp                              0x0000b73d   Thumb Code   110  vfd_disp.o(.text)
    VfdTempDispBlank                         0x0000b7ab   Thumb Code    90  vfd_disp.o(.text)
    Inline ARM to Thumb Veneer to MsgSetSoftMute 0x0000b824   ARM Code       8  zone1_task.o(.text)
    IsZone1VolumeValid                       0x0000b82d   Thumb Code    22  zone1_task.o(.text)
    MsgSetMute                               0x0000b843   Thumb Code    38  zone1_task.o(.text)
    MsgSetStream                             0x0000b869   Thumb Code    36  zone1_task.o(.text)
    MsgSetInputSource                        0x0000b88d   Thumb Code    34  zone1_task.o(.text)
    MsgSetDSPSetting                         0x0000b8af   Thumb Code    34  zone1_task.o(.text)
    MsgSetDSPHDMISetting                     0x0000b8d1   Thumb Code    34  zone1_task.o(.text)
    MsgSetDspChannel                         0x0000b8f3   Thumb Code    34  zone1_task.o(.text)
    MsgSetSoftMute                           0x0000b915   Thumb Code    34  zone1_task.o(.text)
    MsgSetPower                              0x0000b937   Thumb Code    34  zone1_task.o(.text)
    MsgSetVfdShow                            0x0000b959   Thumb Code    34  zone1_task.o(.text)
    MsgSetDimer                              0x0000b97b   Thumb Code    36  zone1_task.o(.text)
    MsgSetKey                                0x0000b99f   Thumb Code    60  zone1_task.o(.text)
    MsgSetVolume                             0x0000b9db   Thumb Code    46  zone1_task.o(.text)
    MsgSetFlash                              0x0000ba09   Thumb Code    40  zone1_task.o(.text)
    IsZone1PowerOn                           0x0000ba31   Thumb Code    14  zone1_task.o(.text)
    SetRefresh                               0x0000ba3f   Thumb Code    10  zone1_task.o(.text)
    RefreshHandle                            0x0000ba49   Thumb Code    48  zone1_task.o(.text)
    ShowVersion                              0x0000ba79   Thumb Code    88  zone1_task.o(.text)
    VfdUpdateVolumeValue                     0x0000bad1   Thumb Code    60  zone1_task.o(.text)
    VfdUpdateStreamType                      0x0000bb0d   Thumb Code  3100  zone1_task.o(.text)
    VfdUpdateZone1                           0x0000c729   Thumb Code    74  zone1_task.o(.text)
    GetSrcName                               0x0000c773   Thumb Code   108  zone1_task.o(.text)
    SelectSource                             0x0000c7df   Thumb Code  1038  zone1_task.o(.text)
    ProcInputSelect                          0x0000cbed   Thumb Code   192  zone1_task.o(.text)
    PowerOnDisplay                           0x0000ccad   Thumb Code    36  zone1_task.o(.text)
    SetMasterVolumeValue                     0x0000ccd1   Thumb Code    82  zone1_task.o(.text)
    GetVolumeEepromSetValue                  0x0000cd23   Thumb Code    38  zone1_task.o(.text)
    SystemPowerOn                            0x0000cd49   Thumb Code   190  zone1_task.o(.text)
    SystemPowerOff                           0x0000ce07   Thumb Code    92  zone1_task.o(.text)
    Zone1Mute                                0x0000ce63   Thumb Code    52  zone1_task.o(.text)
    SetAutoseekFlag                          0x0000ce97   Thumb Code    32  zone1_task.o(.text)
    IsAutoSeekOn                             0x0000ceb7   Thumb Code   250  zone1_task.o(.text)
    IsEverAutoseek                           0x0000cfb1   Thumb Code    22  zone1_task.o(.text)
    SeekSelect                               0x0000cfc7   Thumb Code   208  zone1_task.o(.text)
    ProcAutoSeekSur                          0x0000d097   Thumb Code   528  zone1_task.o(.text)
    ProcZone1PowerOn                         0x0000d2a7   Thumb Code   194  zone1_task.o(.text)
    ProcZone1PowerOff                        0x0000d369   Thumb Code   320  zone1_task.o(.text)
    LoadSystemStartupValue                   0x0000d4a9   Thumb Code    94  zone1_task.o(.text)
    Zone1ProcAutoSeek                        0x0000d507   Thumb Code   480  zone1_task.o(.text)
    PcmProcCesKey                            0x0000d6e7   Thumb Code    78  zone1_task.o(.text)
    Ac3ProcCesKey                            0x0000d735   Thumb Code   144  zone1_task.o(.text)
    DtsProcCesKey                            0x0000d7c5   Thumb Code   120  zone1_task.o(.text)
    PcmProcNeoKey                            0x0000d83d   Thumb Code   250  zone1_task.o(.text)
    PcmProcPliiKey                           0x0000d937   Thumb Code   186  zone1_task.o(.text)
    PcmProcSurKey                            0x0000d9f1   Thumb Code   228  zone1_task.o(.text)
    Ac3ProcPliiKey                           0x0000dad5   Thumb Code   290  zone1_task.o(.text)
    DtsProcPliiKey                           0x0000dbf7   Thumb Code   100  zone1_task.o(.text)
    Ac3ProcSurKey                            0x0000dc5b   Thumb Code   266  zone1_task.o(.text)
    IsHidenKey                               0x0000dd65   Thumb Code   186  zone1_task.o(.text)
    decode_mode_refesh                       0x0000de1f   Thumb Code    74  zone1_task.o(.text)
    Zone1ProcMessage                         0x0000e521   Thumb Code  1458  zone1_task.o(.text)
    IsZone2PowerOn                           0x0000eaf1   Thumb Code    14  zone2_task.o(.text)
    IsZone2VolumeValid                       0x0000eaff   Thumb Code    22  zone2_task.o(.text)
    SetZ2MasterVolumeValue                   0x0000eb15   Thumb Code    28  zone2_task.o(.text)
    ProcZone2PowerOn                         0x0000eb31   Thumb Code   170  zone2_task.o(.text)
    ProcZone2PowerOff                        0x0000ebdb   Thumb Code   120  zone2_task.o(.text)
    Zone2ProcInputSelect                     0x0000ec53   Thumb Code    88  zone2_task.o(.text)
    Zone2RadioMode                           0x0000ecab   Thumb Code   244  zone2_task.o(.text)
    Zone2ProcMessage                         0x0000f101   Thumb Code   578  zone2_task.o(.text)
    MsgSetIrc                                0x0000f3d1   Thumb Code    36  auto_sound.o(.text)
    AutoSoundInit                            0x0000f3f5   Thumb Code    42  auto_sound.o(.text)
    AutoSoundExit                            0x0000f41f   Thumb Code    66  auto_sound.o(.text)
    InitSpkPara                              0x0000f461   Thumb Code   142  auto_sound.o(.text)
    IsAnySpkValid                            0x0000f4ef   Thumb Code    46  auto_sound.o(.text)
    DisplayConnectHelp                       0x0000f51d   Thumb Code    28  auto_sound.o(.text)
    DisplayNA                                0x0000f539   Thumb Code    54  auto_sound.o(.text)
    GetIrc2EqValue                           0x0000f56f   Thumb Code  1008  auto_sound.o(.text)
    ASProcSetupConfig                        0x0000f95f   Thumb Code   272  auto_sound.o(.text)
    ASProcSpeakerCheck                       0x0000fa6f   Thumb Code  1504  auto_sound.o(.text)
    ASProcSetDistance                        0x0001004f   Thumb Code   722  auto_sound.o(.text)
    ASProcSetBalance                         0x00010321   Thumb Code  1164  auto_sound.o(.text)
    sort                                     0x000107ad   Thumb Code    58  auto_sound.o(.text)
    ASProcSetCrossoverPoints                 0x000107e7   Thumb Code   612  auto_sound.o(.text)
    ASProcSetRoomEQ                          0x00010a4b   Thumb Code   812  auto_sound.o(.text)
    FindBalancePosition                      0x00010da7   Thumb Code   174  auto_sound.o(.text)
    SPK_Phase_Display                        0x00010e55   Thumb Code   112  auto_sound.o(.text)
    ASProcSetSpeakerphase                    0x00010ec5   Thumb Code  3110  auto_sound.o(.text)
    AutoSoundProcMessage                     0x00011aeb   Thumb Code    40  auto_sound.o(.text)
    SetRadioStatus                           0x00011b4d   Thumb Code     6  radio_task.o(.text)
    GetRadioStatus                           0x00011b53   Thumb Code     6  radio_task.o(.text)
    IsFreqValid                              0x00011b59   Thumb Code   114  radio_task.o(.text)
    MsgSetRadioFreq                          0x00011bcb   Thumb Code    56  radio_task.o(.text)
    MsgSetRadioSearch                        0x00011c03   Thumb Code    36  radio_task.o(.text)
    MsgSetRadioLoadPreset                    0x00011c27   Thumb Code    36  radio_task.o(.text)
    MsgTextDisplay                           0x00011c4b   Thumb Code    32  radio_task.o(.text)
    MsgSetRadioSavePreset                    0x00011c85   Thumb Code    60  radio_task.o(.text)
    SaveFmPreset                             0x00011cc1   Thumb Code   248  radio_task.o(.text)
    LoadRadioPreset                          0x00011db9   Thumb Code   280  radio_task.o(.text)
    IsTunerIfCorrect                         0x00011ed1   Thumb Code    14  radio_task.o(.text)
    ISValidTunerPostion                      0x00011edf   Thumb Code   388  radio_task.o(.text)
    RadioDisplay                             0x00012063   Thumb Code   634  radio_task.o(.text)
    GetTextDispBuffer                        0x000122dd   Thumb Code   188  radio_task.o(.text)
    Radio_Text_Display                       0x00012399   Thumb Code   448  radio_task.o(.text)
    RadioChangeMode                          0x00012559   Thumb Code   420  radio_task.o(.text)
    RadioInit                                0x000126fd   Thumb Code   534  radio_task.o(.text)
    RadioExit                                0x00012913   Thumb Code   314  radio_task.o(.text)
    CalcRadioPosition                        0x00012a4d   Thumb Code   222  radio_task.o(.text)
    CalcRadioFreq                            0x00012b2b   Thumb Code   166  radio_task.o(.text)
    CalcCurrenTunerFreq                      0x00012bd1   Thumb Code    60  radio_task.o(.text)
    UpdateSaveVfd                            0x00012cb3   Thumb Code    56  radio_task.o(.text)
    TextDisplayExit                          0x00012d09   Thumb Code    26  radio_task.o(.text)
    SaveRadioStatus                          0x00012d23   Thumb Code   122  radio_task.o(.text)
    AcqStatusSave                            0x00012d9d   Thumb Code     8  radio_task.o(.text)
    GetCurrProgram                           0x00012da5   Thumb Code     6  radio_task.o(.text)
    C11_Tuner_SIS_Change                     0x00012dab   Thumb Code    14  radio_task.o(.text)
    C11_Tuner_PSD_Change                     0x00012db9   Thumb Code     2  radio_task.o(.text)
    PreProcSaveKey                           0x00012dbb   Thumb Code   234  radio_task.o(.text)
    PreProcTextDisplayKey                    0x00012ea5   Thumb Code    66  radio_task.o(.text)
    RadioKeyService                          0x00012ee7   Thumb Code  1096  radio_task.o(.text)
    RadioProcMessage                         0x0001332f   Thumb Code  1930  radio_task.o(.text)
    RadioLoop                                0x00013ab9   Thumb Code   146  radio_task.o(.text)
    Uart0Isr                                 0x00013bbc   ARM Code      68  uart.o(.text)
    Uart1Isr                                 0x00013c00   ARM Code      68  uart.o(.text)
    SetUart0Baudrate                         0x00013c55   Thumb Code    36  uart.o(.text)
    Uart0Init                                0x00013c79   Thumb Code    60  uart.o(.text)
    Uart0Send                                0x00013cb5   Thumb Code    40  uart.o(.text)
    SetUart1Baudrate                         0x00013cdd   Thumb Code    36  uart.o(.text)
    Uart1Init                                0x00013d01   Thumb Code    74  uart.o(.text)
    Uart1Send                                0x00013d4d   Thumb Code    40  uart.o(.text)
    UartInit                                 0x00013d75   Thumb Code    24  uart.o(.text)
    Cs8416WriteByte                          0x00013db9   Thumb Code    52  cs8416.o(.text)
    Cs8416ReadByte                           0x00013ded   Thumb Code    40  cs8416.o(.text)
    Cs8416GetFreq                            0x00013e15   Thumb Code    52  cs8416.o(.text)
    CheckCs8416Unlock                        0x00013e49   Thumb Code    52  cs8416.o(.text)
    IsCs8416Unlock                           0x00013e7d   Thumb Code    56  cs8416.o(.text)
    IsCs8416Pcm                              0x00013eb5   Thumb Code    56  cs8416.o(.text)
    InitCs8416                               0x00013eed   Thumb Code    54  cs8416.o(.text)
    SelectDSD                                0x00013f59   Thumb Code   186  dac.o(.text)
    write_word                               0x00014013   Thumb Code    92  dac.o(.text)
    Pcm1796Write                             0x0001406f   Thumb Code    20  dac.o(.text)
    DacInvert                                0x00014083   Thumb Code   182  dac.o(.text)
    Auto_Setup_DAC_Phase                     0x00014139   Thumb Code    50  dac.o(.text)
    InitDACPhase                             0x0001416b   Thumb Code    40  dac.o(.text)
    DacMute                                  0x00014193   Thumb Code    34  dac.o(.text)
    InitDACReg                               0x000141b5   Thumb Code    40  dac.o(.text)
    DSD_Choose                               0x000141dd   Thumb Code    28  dac.o(.text)
    InitDSDMode                              0x000141f9   Thumb Code   170  dac.o(.text)
    EepromWriteByte                          0x00014331   Thumb Code    52  eeprom.o(.text)
    EepromReadByte                           0x00014365   Thumb Code    40  eeprom.o(.text)
    FillEepromValue                          0x0001438d   Thumb Code    32  eeprom.o(.text)
    DebugEepromValue                         0x000143ad   Thumb Code    68  eeprom.o(.text)
    wait_timer                               0x00014415   Thumb Code    16  i2cdrv.o(.text)
    I2CWriteNByte                            0x00014711   Thumb Code   114  i2cdrv.o(.text)
    I2CReadNByte                             0x00014783   Thumb Code   186  i2cdrv.o(.text)
    I2C_bytewrite                            0x0001483d   Thumb Code   148  i2cdrv.o(.text)
    I2C_byteread                             0x000148d1   Thumb Code   186  i2cdrv.o(.text)
    read165                                  0x00014991   Thumb Code    80  ic165.o(.text)
    Ext4094Sendbyte                          0x00014a25   Thumb Code    34  ic4094.o(.text)
    Ext4094SetBit                            0x00014a47   Thumb Code    28  ic4094.o(.text)
    Ext4094ClearBit                          0x00014a63   Thumb Code    28  ic4094.o(.text)
    Set_SLSR_Mas9116_Mute                    0x00014a7f   Thumb Code    28  ic4094.o(.text)
    Set_HDMI_ISR                             0x00014a9b   Thumb Code    28  ic4094.o(.text)
    Set_HDMI_RST                             0x00014ab7   Thumb Code    28  ic4094.o(.text)
    Set_UART_SEL                             0x00014ad3   Thumb Code    28  ic4094.o(.text)
    Set_Zone2_Mas9116_Mute                   0x00014aef   Thumb Code    28  ic4094.o(.text)
    Set_FLFR_Mas9116_Mute                    0x00014b0b   Thumb Code    28  ic4094.o(.text)
    Set_CENLFE_Mas9116_Mute                  0x00014b27   Thumb Code    28  ic4094.o(.text)
    Set_SBLSBR_Mas9116_Mute                  0x00014b43   Thumb Code    28  ic4094.o(.text)
    Set_Mas9116_HardMute                     0x00014b5f   Thumb Code    76  ic4094.o(.text)
    LPC2132HwReset                           0x00014bab   Thumb Code    26  ic4094.o(.text)
    IC4094_Default                           0x00014bc5   Thumb Code    62  ic4094.o(.text)
    HDMI_Software_Update                     0x00014c03   Thumb Code    24  ic4094.o(.text)
    SetIoport0                               0x00014c61   Thumb Code    16  ioport.o(.text)
    SensePort0                               0x00014c71   Thumb Code    18  ioport.o(.text)
    SetIoport1                               0x00014c83   Thumb Code    16  ioport.o(.text)
    SensePort1                               0x00014c93   Thumb Code    18  ioport.o(.text)
    SetIoport2                               0x00014ca5   Thumb Code    16  ioport.o(.text)
    SensePort2                               0x00014cb5   Thumb Code    18  ioport.o(.text)
    SetIoport3                               0x00014cc7   Thumb Code    16  ioport.o(.text)
    SensePort3                               0x00014cd7   Thumb Code    18  ioport.o(.text)
    SetIoport4                               0x00014ce9   Thumb Code    20  ioport.o(.text)
    SensePort4                               0x00014cfd   Thumb Code    20  ioport.o(.text)
    SystemPower                              0x00014d11   Thumb Code    22  ioport.o(.text)
    PowerLed                                 0x00014d27   Thumb Code    22  ioport.o(.text)
    LedStandby                               0x00014d3d   Thumb Code    78  ioport.o(.text)
    InitPower                                0x00014d8b   Thumb Code    16  ioport.o(.text)
    HDRadioPower                             0x00014d9b   Thumb Code    22  ioport.o(.text)
    InitHDRaidoPower                         0x00014db1   Thumb Code    16  ioport.o(.text)
    SetResetPin                              0x00014dc1   Thumb Code    20  ioport.o(.text)
    InitResetPin                             0x00014dd5   Thumb Code    14  ioport.o(.text)
    SystemReset                              0x00014de3   Thumb Code    32  ioport.o(.text)
    InitDac                                  0x00014e03   Thumb Code   122  ioport.o(.text)
    SetMas9116Cs0                            0x00014e7d   Thumb Code    22  ioport.o(.text)
    SetMas9116Cs1                            0x00014e93   Thumb Code    22  ioport.o(.text)
    SetMas9116Cs2                            0x00014ea9   Thumb Code    22  ioport.o(.text)
    SetMas9116Cs3                            0x00014ebf   Thumb Code    22  ioport.o(.text)
    SetMas9116Cs4                            0x00014ed5   Thumb Code    22  ioport.o(.text)
    SetMas9116Cs5                            0x00014eeb   Thumb Code    22  ioport.o(.text)
    SelectMas9116                            0x00014f01   Thumb Code   314  ioport.o(.text)
    InitMas9116                              0x0001503b   Thumb Code    78  ioport.o(.text)
    SetMax335Data                            0x00015089   Thumb Code    24  ioport.o(.text)
    SetMax335Clk                             0x000150a1   Thumb Code    24  ioport.o(.text)
    SetMax335Cs1                             0x000150b9   Thumb Code    22  ioport.o(.text)
    SetMax335Cs2                             0x000150cf   Thumb Code    22  ioport.o(.text)
    SetMax335Cs3                             0x000150e5   Thumb Code    22  ioport.o(.text)
    SetMax335Cs4                             0x000150fb   Thumb Code    22  ioport.o(.text)
    SetMax335Cs5                             0x00015111   Thumb Code    20  ioport.o(.text)
    SetMax335Cs6                             0x00015125   Thumb Code    20  ioport.o(.text)
    SetMax335Cs7                             0x00015139   Thumb Code    22  ioport.o(.text)
    SetMax335Cs8                             0x0001514f   Thumb Code    22  ioport.o(.text)
    SelectMax335                             0x00015165   Thumb Code   144  ioport.o(.text)
    InitMAS335                               0x000151f5   Thumb Code    72  ioport.o(.text)
    Set7CH1Mute                              0x0001523d   Thumb Code    22  ioport.o(.text)
    SetZone2Mute                             0x00015253   Thumb Code    22  ioport.o(.text)
    SetBalance_Mute                          0x00015269   Thumb Code    22  ioport.o(.text)
    SetHeadphoneMute                         0x0001527f   Thumb Code    22  ioport.o(.text)
    Zone2Mute                                0x00015295   Thumb Code    26  ioport.o(.text)
    InitMuteControl                          0x000152af   Thumb Code    72  ioport.o(.text)
    PowerOffMuteControl                      0x000152f7   Thumb Code    24  ioport.o(.text)
    Init165                                  0x0001530f   Thumb Code    28  ioport.o(.text)
    SenseEncoderSwitchPlus                   0x0001532b   Thumb Code    14  ioport.o(.text)
    SenseEncoderSwitchMinus                  0x00015339   Thumb Code    10  ioport.o(.text)
    InitEncoderSwitch                        0x00015343   Thumb Code    26  ioport.o(.text)
    DSP_Input_Stream_Select                  0x0001535d   Thumb Code    20  ioport.o(.text)
    Init_Dsp_Input_Select                    0x00015371   Thumb Code    14  ioport.o(.text)
    DSD_Select                               0x0001537f   Thumb Code    42  ioport.o(.text)
    DSP_Select                               0x000153a9   Thumb Code    42  ioport.o(.text)
    cd_dsp_channle_Select                    0x000153d3   Thumb Code    48  ioport.o(.text)
    Init_DSD_Select                          0x00015403   Thumb Code    14  ioport.o(.text)
    SenseAnalogSignal                        0x00015411   Thumb Code    14  ioport.o(.text)
    Set4094Cs                                0x0001541f   Thumb Code    24  ioport.o(.text)
    Set4094OE                                0x00015437   Thumb Code    42  ioport.o(.text)
    SetData4094                              0x00015461   Thumb Code    24  ioport.o(.text)
    Set4094Clk                               0x00015479   Thumb Code    24  ioport.o(.text)
    Init4094                                 0x00015491   Thumb Code    30  ioport.o(.text)
    SetDspReset                              0x000154af   Thumb Code    20  ioport.o(.text)
    InitDspResetPin                          0x000154c3   Thumb Code    14  ioport.o(.text)
    DSPHwReset                               0x000154d1   Thumb Code    50  ioport.o(.text)
    SenseDspIrq                              0x00015503   Thumb Code    18  ioport.o(.text)
    SenseDspBusy                             0x00015515   Thumb Code    18  ioport.o(.text)
    Set_Spi_Cs                               0x00015527   Thumb Code    24  ioport.o(.text)
    Set_Spi_Clk                              0x0001553f   Thumb Code    24  ioport.o(.text)
    Set_Spi_MOSI                             0x00015557   Thumb Code    20  ioport.o(.text)
    Sense_Spi_MISO                           0x0001556b   Thumb Code    14  ioport.o(.text)
    Init_Dsp_Spi_Pin                         0x00015579   Thumb Code    64  ioport.o(.text)
    set_vfd_sda                              0x000155b9   Thumb Code    52  ioport.o(.text)
    set_vfd_scl                              0x000155ed   Thumb Code    52  ioport.o(.text)
    sense_vfd_sda                            0x00015621   Thumb Code    20  ioport.o(.text)
    sense_vfd_scl                            0x00015635   Thumb Code    20  ioport.o(.text)
    set_sda1                                 0x00015649   Thumb Code    52  ioport.o(.text)
    set_scl1                                 0x0001567d   Thumb Code    52  ioport.o(.text)
    sense_sda1                               0x000156b1   Thumb Code    20  ioport.o(.text)
    sense_scl1                               0x000156c5   Thumb Code    20  ioport.o(.text)
    set_sda2                                 0x000156d9   Thumb Code    52  ioport.o(.text)
    set_scl2                                 0x0001570d   Thumb Code    52  ioport.o(.text)
    sense_sda2                               0x00015741   Thumb Code    20  ioport.o(.text)
    sense_scl2                               0x00015755   Thumb Code    20  ioport.o(.text)
    set_sda_hdmi                             0x00015769   Thumb Code    52  ioport.o(.text)
    set_scl_hdmi                             0x0001579d   Thumb Code    52  ioport.o(.text)
    sense_sda_hdmi                           0x000157d1   Thumb Code    20  ioport.o(.text)
    sense_scl_hdmi                           0x000157e5   Thumb Code    20  ioport.o(.text)
    I2cPinInit                               0x000157f9   Thumb Code   144  ioport.o(.text)
    EnableEint0                              0x00015889   Thumb Code    10  ioport.o(.text)
    DisableEint0                             0x00015893   Thumb Code    10  ioport.o(.text)
    EnableEint1                              0x0001589d   Thumb Code    10  ioport.o(.text)
    DisableEint1                             0x000158a7   Thumb Code    10  ioport.o(.text)
    EnableEint2                              0x000158b1   Thumb Code    10  ioport.o(.text)
    DisableEint2                             0x000158bb   Thumb Code    10  ioport.o(.text)
    EnableEint3                              0x000158c5   Thumb Code    10  ioport.o(.text)
    DisableEint3                             0x000158cf   Thumb Code    10  ioport.o(.text)
    Zone1SelectIr                            0x000158d9   Thumb Code   136  ioport.o(.text)
    remote_config                            0x00015961   Thumb Code    60  ioport.o(.text)
    Zone2SelectIr                            0x0001599d   Thumb Code    92  ioport.o(.text)
    SetIoStandby                             0x000159f9   Thumb Code   180  ioport.o(.text)
    SetIoPowerOn                             0x00015aad   Thumb Code     2  ioport.o(.text)
    HardwareInit                             0x00015aaf   Thumb Code   102  ioport.o(.text)
    exint3                                   0x00015b40   ARM Code     200  ioport.o(.text)
    exint2                                   0x00015c08   ARM Code     236  ioport.o(.text)
    exint1                                   0x00015cf4   ARM Code     236  ioport.o(.text)
    exint0                                   0x00015de0   ARM Code     200  ioport.o(.text)
    Inline ARM to Thumb Veneer to ir_core_philips 0x00015ed8   ARM Code       8  ir.o(.text)
    repeat_IRkey_allowed                     0x00015ee1   Thumb Code    48  ir.o(.text)
    InitRemoteRepeatKey                      0x00015f11   Thumb Code    24  ir.o(.text)
    AddRemoteRepeatKey                       0x00015f29   Thumb Code    48  ir.o(.text)
    DeleteRemoteRepeatKey                    0x00015f59   Thumb Code   104  ir.o(.text)
    zone2_repeat_IRkey_allowed               0x00015fc1   Thumb Code    18  ir.o(.text)
    ir_core_philips                          0x00015fd3   Thumb Code   646  ir.o(.text)
    ir2_core_philips                         0x00016259   Thumb Code   574  ir.o(.text)
    DelayMs                                  0x000164bd   Thumb Code    24  timer.o(.text)
    Timer0_Handler                           0x000164d5   Thumb Code   208  timer.o(.text)
    Timer0Init                               0x000165a5   Thumb Code    34  timer.o(.text)
    timer0_irq                               0x00016620   ARM Code     812  timer.o(.text)
    VfdSendNByte                             0x000169c1   Thumb Code    56  vfddriver.o(.text)
    VfdSendByte                              0x000169f9   Thumb Code    52  vfddriver.o(.text)
    VfdUpdateBuffer                          0x00016a2d   Thumb Code    78  vfddriver.o(.text)
    VfdSetDimerValue                         0x00016a7b   Thumb Code    34  vfddriver.o(.text)
    Mas9116Read                              0x00016b21   Thumb Code   176  mas9116.o(.text)
    CalcMas9116Volume                        0x00016bd1   Thumb Code    54  mas9116.o(.text)
    Mas9116SetGain                           0x00016c07   Thumb Code   146  mas9116.o(.text)
    Mas9116ReadRC5                           0x00016c99   Thumb Code     6  mas9116.o(.text)
    Mas9116Reset                             0x00016c9f   Thumb Code   138  mas9116.o(.text)
    SetZone2Volume                           0x00016d35   Thumb Code    36  volume.o(.text)
    Set2ChVolume                             0x00016d59   Thumb Code    36  volume.o(.text)
    SetBalanceVolume                         0x00016d7d   Thumb Code    40  volume.o(.text)
    Set7Ch1MainVolume                        0x00016da5   Thumb Code   100  volume.o(.text)
    AutoSoundSetVolume                       0x00016e09   Thumb Code    42  volume.o(.text)
    SoftMute                                 0x00016e33   Thumb Code   152  volume.o(.text)
    VolumeInit                               0x00016ecb   Thumb Code   116  volume.o(.text)
    Max335SendByte                           0x00016fad   Thumb Code    74  max335.o(.text)
    SetMax335Switch                          0x00016ff7   Thumb Code    52  max335.o(.text)
    UpdateMax335                             0x0001702b   Thumb Code    62  max335.o(.text)
    DigiSendByte                             0x00017085   Thumb Code    52  channel.o(.text)
    SetTrigerOut                             0x000170b9   Thumb Code    32  channel.o(.text)
    SetTrigerOut1                            0x000170d9   Thumb Code    32  channel.o(.text)
    SetTrigerOut2                            0x000170f9   Thumb Code    32  channel.o(.text)
    DigitalInSelectChannel                   0x00017119   Thumb Code    20  channel.o(.text)
    DigitalInSelect71Channel                 0x0001712d   Thumb Code    16  channel.o(.text)
    Zone2DigiSelectChannel                   0x0001713d   Thumb Code    20  channel.o(.text)
    CheckAnalogIn                            0x00017151   Thumb Code    44  channel.o(.text)
    AnalogInOff                              0x0001717d   Thumb Code    44  channel.o(.text)
    Zone2AnalogInOff                         0x000171a9   Thumb Code    44  channel.o(.text)
    AnalogInSelectChannel                    0x000171d5   Thumb Code    58  channel.o(.text)
    Zone2SelectChannel                       0x0001720f   Thumb Code   378  channel.o(.text)
    AnalogInputTypeSelect                    0x00017389   Thumb Code   118  channel.o(.text)
    Analog7CH1OutSelectChannel               0x000173ff   Thumb Code    88  channel.o(.text)
    SystemSelectInputChannel                 0x0001762f   Thumb Code    54  channel.o(.text)
    SystemSearchInputChannel                 0x00017665   Thumb Code   102  channel.o(.text)
    CheckInput                               0x000176cb   Thumb Code    36  channel.o(.text)
    HdmiSendByte                             0x000176f9   Thumb Code    52  hdmi.o(.text)
    HdmiReadByte                             0x0001772d   Thumb Code    40  hdmi.o(.text)
    HDMI_Port_Select                         0x00017755   Thumb Code   118  hdmi.o(.text)
    HDMI_Loop                                0x000177cb   Thumb Code   400  hdmi.o(.text)
    DSD_Loop                                 0x0001795b   Thumb Code   244  hdmi.o(.text)
    HDMI_Busy                                0x00017a4f   Thumb Code    76  hdmi.o(.text)
    HDMI_secret_loop                         0x00017a9b   Thumb Code   442  hdmi.o(.text)
    HDMI_DSD_Loop                            0x00017c55   Thumb Code   112  hdmi.o(.text)
    Delay_SPI                                0x00017ced   Thumb Code    24  dsp_spi.o(.text)
    DspSpiWriteNByte                         0x00017d8f   Thumb Code   196  dsp_spi.o(.text)
    DspSpiReadNByte                          0x00017e53   Thumb Code   118  dsp_spi.o(.text)
    IdmSerialWrite                           0x00017f45   Thumb Code    34  tuner_new.o(.text)
    IdmSerialRead                            0x00017f67   Thumb Code   490  tuner_new.o(.text)
    CalcCheckSum                             0x00018151   Thumb Code    42  tuner_new.o(.text)
    Build_IDM_write_message                  0x0001817b   Thumb Code   128  tuner_new.o(.text)
    IDMtransfer                              0x000181fb   Thumb Code    48  tuner_new.o(.text)
    StationChangeStartFM                     0x0001822b   Thumb Code    42  tuner_new.o(.text)
    Tune_Select                              0x00018255   Thumb Code    60  tuner_new.o(.text)
    Tune_Step                                0x00018291   Thumb Code    42  tuner_new.o(.text)
    Tune_GetStatus                           0x000182bb   Thumb Code    46  tuner_new.o(.text)
    Sys_Audio_Control                        0x000182e9   Thumb Code    56  tuner_new.o(.text)
    Tuner_Req_Tune_Up                        0x00018321   Thumb Code    20  tuner_new.o(.text)
    Tuner_Req_Tune_Down                      0x00018335   Thumb Code    20  tuner_new.o(.text)
    Radio_IsTuned                            0x00018349   Thumb Code   112  tuner_new.o(.text)
    Tuner_Seek_Command                       0x000183b9   Thumb Code    96  tuner_new.o(.text)
    get_acq_status                           0x00018419   Thumb Code    34  tuner_new.o(.text)
    idm_get_FM_status                        0x0001843b   Thumb Code    28  tuner_new.o(.text)
    Radio_GetStatus                          0x00018457   Thumb Code    88  tuner_new.o(.text)
    IsSISAcquired                            0x000184af   Thumb Code    10  tuner_new.o(.text)
    Tuner_HDSEEK_Command                     0x000184b9   Thumb Code   140  tuner_new.o(.text)
    EnableRBDS                               0x00018545   Thumb Code     2  tuner_new.o(.text)
    get_rbds_group                           0x00018547   Thumb Code    62  tuner_new.o(.text)
    idm_set_FM_stereo_mode                   0x00018585   Thumb Code    48  tuner_new.o(.text)
    Tuner_Mute_Command                       0x000185b5   Thumb Code    28  tuner_new.o(.text)
    Tuner_Volume_Init                        0x000185d1   Thumb Code    28  tuner_new.o(.text)
    Tuner_Write_Freq_Command                 0x000185ed   Thumb Code    66  tuner_new.o(.text)
    InitTuner                                0x0001862f   Thumb Code    20  tuner_new.o(.text)
    select_program                           0x00018643   Thumb Code    44  tuner_new.o(.text)
    get_basic_sis_data                       0x0001866f   Thumb Code    28  tuner_new.o(.text)
    FlushPSD                                 0x0001868b   Thumb Code    38  tuner_new.o(.text)
    FlushAllPSD                              0x000186b1   Thumb Code    34  tuner_new.o(.text)
    FlushSIS                                 0x000186d3   Thumb Code    28  tuner_new.o(.text)
    GetSISstationMessage                     0x000186ef   Thumb Code    66  tuner_new.o(.text)
    GetSysStatus                             0x00018731   Thumb Code    28  tuner_new.o(.text)
    ReadSoftwareVersion                      0x0001874d   Thumb Code   168  tuner_new.o(.text)
    ChangeFMMode                             0x000187f5   Thumb Code    38  tuner_new.o(.text)
    Tuner_Req_Radio_Monitor_Command          0x0001881b   Thumb Code     2  tuner_new.o(.text)
    RBDS_Blk2_Decode                         0x0001881d   Thumb Code    34  rbds.o(.text)
    RBDS_GetCallSign                         0x0001883f   Thumb Code   198  rbds.o(.text)
    RBDS_B2_0_Decode                         0x00018905   Thumb Code    36  rbds.o(.text)
    RBDS_B2_2_Decode                         0x00018929   Thumb Code    20  rbds.o(.text)
    RBDS_GetPSDesc                           0x0001893d   Thumb Code    50  rbds.o(.text)
    RBDS_GetRadioText                        0x0001896f   Thumb Code   174  rbds.o(.text)
    RBDS_Init                                0x00018a1d   Thumb Code    30  rbds.o(.text)
    RBDS_Decode                              0x00018a3b   Thumb Code   242  rbds.o(.text)
    RBDS_IsValid                             0x00018b2d   Thumb Code     6  rbds.o(.text)
    RBDS_SetInvalid                          0x00018b33   Thumb Code    36  rbds.o(.text)
    RBDS_GetPSDescriptionStr                 0x00018b57   Thumb Code     4  rbds.o(.text)
    RBDS_GetRadioTextStr                     0x00018b5b   Thumb Code     4  rbds.o(.text)
    RBDS_SetEnable                           0x00018b5f   Thumb Code    40  rbds.o(.text)
    RBDS_IsEnabled                           0x00018b87   Thumb Code     6  rbds.o(.text)
    ConvertDbValue                           0x00018bf1   Thumb Code    70  bassmanager.o(.text)
    DSP_BASS_CONTROL                         0x00018c37   Thumb Code   174  bassmanager.o(.text)
    DSP_BASS_MGR_5XOVER_CONTROL              0x00018ce5   Thumb Code    88  bassmanager.o(.text)
    DSP_BASS_MGR_HPF_CONTROL                 0x00018d3d   Thumb Code    88  bassmanager.o(.text)
    DSP_SET_BASS_CORNER                      0x00018d95   Thumb Code   306  bassmanager.o(.text)
    DSP_BASS_INPUT_LEVEL                     0x00018ec7   Thumb Code   186  bassmanager.o(.text)
    DSP_BASS_LFE_OUTPUT_LEVEL                0x00018f81   Thumb Code   202  bassmanager.o(.text)
    DSP_BASS_FRONT_SUM_OUTPUT_LEVEL          0x0001904b   Thumb Code   168  bassmanager.o(.text)
    DSP_BASS_BACK_SUM_OUTPUT_LEVEL           0x000190f3   Thumb Code   176  bassmanager.o(.text)
    DSP_BASS_SUM1_INPUT_LEVEL                0x000191a3   Thumb Code   168  bassmanager.o(.text)
    DSP_BASS_SUM2_INPUT_LEVEL                0x0001924b   Thumb Code   160  bassmanager.o(.text)
    DSP_BASS_SUM3_INPUT_LEVLE                0x000192eb   Thumb Code   168  bassmanager.o(.text)
    DSP_BASS_SUM4_INPUT_LEVLE                0x00019393   Thumb Code   174  bassmanager.o(.text)
    DSP_BASS_SUM5_INPUT_LEVLE                0x00019441   Thumb Code   190  bassmanager.o(.text)
    DSP_BASS_X_INPUT_LEVEL_FRONT             0x000194ff   Thumb Code   176  bassmanager.o(.text)
    DSP_BASS_X_INPUT_LEVEL_BACK              0x000195af   Thumb Code   176  bassmanager.o(.text)
    DSP_BASS_INPUT_SUB_LEVEL                 0x0001965f   Thumb Code    96  bassmanager.o(.text)
    DSP_BASS_FRONT_SUM_OUTPUT_SUB_LEVEL      0x000196bf   Thumb Code    96  bassmanager.o(.text)
    DSP_BASS_BACK_SUM_OUTPUT_SUB_LEVEL       0x0001971f   Thumb Code    96  bassmanager.o(.text)
    ConfigSpkMode                            0x0001977f   Thumb Code   508  bassmanager.o(.text)
    C11SetBass                               0x0001997b   Thumb Code   584  bassmanager.o(.text)
    BassOn                                   0x00019bc3   Thumb Code    46  bassmanager.o(.text)
    SetBassManagerSpeaker                    0x00019bf1   Thumb Code   234  bassmanager.o(.text)
    DSP_MAIN_PPM_CONTROL                     0x00019ce1   Thumb Code   152  delaymanager.o(.text)
    DSP_Delay_Unit                           0x00019d79   Thumb Code   134  delaymanager.o(.text)
    DSP_Delay_Channel_Setting                0x00019dff   Thumb Code   186  delaymanager.o(.text)
    DSP_Delay_Max_Setting                    0x00019eb9   Thumb Code   182  delaymanager.o(.text)
    DSP_EXT_BUFF_ADDR                        0x00019f6f   Thumb Code    88  delaymanager.o(.text)
    DSP_EXT_BUFF_SIZE                        0x00019fc7   Thumb Code    88  delaymanager.o(.text)
    DSP_DLYAUXCNTL                           0x0001a01f   Thumb Code    88  delaymanager.o(.text)
    DSP_Delay_Firmware_Init                  0x0001a077   Thumb Code   104  delaymanager.o(.text)
    DSP_AV_Delay                             0x0001a0df   Thumb Code    96  delaymanager.o(.text)
    DspReadDelay                             0x0001a13f   Thumb Code    54  delaymanager.o(.text)
    DSP_AC3_Control                          0x0001a179   Thumb Code   140  dolbymanager.o(.text)
    DSP_AC3_STEREO_MODE_CONTROL              0x0001a205   Thumb Code    84  dolbymanager.o(.text)
    DSP_AC3_COMPRESSION_CONTROL              0x0001a259   Thumb Code    76  dolbymanager.o(.text)
    DSP_AC3_CUT_X                            0x0001a2a5   Thumb Code    88  dolbymanager.o(.text)
    DSP_AC3_BOOST_Y                          0x0001a2fd   Thumb Code    88  dolbymanager.o(.text)
    DSP_AC3_DRC_INIT                         0x0001a355   Thumb Code    24  dolbymanager.o(.text)
    DspReadDolby                             0x0001a36d   Thumb Code    54  dolbymanager.o(.text)
    DspReadCrossbar                          0x0001a3a3   Thumb Code    54  dolbymanager.o(.text)
    DspReadRegist                            0x0001a3d9   Thumb Code    54  dolbymanager.o(.text)
    DSP_PLII_Control                         0x0001a415   Thumb Code   132  dolbyprologicii.o(.text)
    DSP_PLII_DECODE_MODE                     0x0001a499   Thumb Code   164  dolbyprologicii.o(.text)
    DSP_PLII_CONTROL_REGISTER                0x0001a53d   Thumb Code   134  dolbyprologicii.o(.text)
    DSP_PLII_CENTER_WIDTH_CONFIGURATION      0x0001a5c3   Thumb Code   174  dolbyprologicii.o(.text)
    DSP_PLII_DIMENSION_CONFIGURATION         0x0001a671   Thumb Code   170  dolbyprologicii.o(.text)
    DSP_PLII_Firmware_Cfg                    0x0001a71b   Thumb Code    20  dolbyprologicii.o(.text)
    DSP_PLIIx_Control                        0x0001a735   Thumb Code   132  dolbyprologiciix.o(.text)
    DSP_PLIIx_DECODE_MODE_STEREO             0x0001a7b9   Thumb Code   164  dolbyprologiciix.o(.text)
    DSP_PLIIx_CNOTROL_REGISTER               0x0001a85d   Thumb Code   134  dolbyprologiciix.o(.text)
    DSP_PLIIx_CENTER_WIDTH_CONFIGURATION     0x0001a8e3   Thumb Code   174  dolbyprologiciix.o(.text)
    DSP_PLIIx_DIMENSION_CONFIGURATION        0x0001a991   Thumb Code   170  dolbyprologiciix.o(.text)
    DSP_PLIIx_DECODE_MODE_MULTI              0x0001aa3b   Thumb Code   160  dolbyprologiciix.o(.text)
    DspReadDolbyPLIIX                        0x0001aadb   Thumb Code    54  dolbyprologiciix.o(.text)
    DispBuffer                               0x0001ab15   Thumb Code    40  dsp_task.o(.text)
    DisplayBuffer                            0x0001ab3d   Thumb Code    50  dsp_task.o(.text)
    ClearDspBuffer                           0x0001ab6f   Thumb Code    22  dsp_task.o(.text)
    AnalyseDspMsg                            0x0001ab85   Thumb Code   282  dsp_task.o(.text)
    DspLoop                                  0x0001ac9f   Thumb Code   296  dsp_task.o(.text)
    ReConvert_8_24_Value                     0x0001aee9   Thumb Code    28  dspdrv.o(.text)
    ConvertBalanceValue                      0x0001af05   Thumb Code    62  dspdrv.o(.text)
    ArrayToDWORD                             0x0001af43   Thumb Code   112  dspdrv.o(.text)
    ArrayToHWORD                             0x0001afb3   Thumb Code    56  dspdrv.o(.text)
    Set_Prologic2Width                       0x0001afeb   Thumb Code    46  dspdrv.o(.text)
    Set_Prologic2Dimension                   0x0001b019   Thumb Code    46  dspdrv.o(.text)
    Set_Prologic2Panorama_On_Or_Off          0x0001b047   Thumb Code    62  dspdrv.o(.text)
    DspProcSpkMode                           0x0001b085   Thumb Code    20  dspdrv.o(.text)
    DspProcDelay                             0x0001b099   Thumb Code   312  dspdrv.o(.text)
    DspProcCorner                            0x0001b1d1   Thumb Code    98  dspdrv.o(.text)
    DspProcSignal                            0x0001b233   Thumb Code    54  dspdrv.o(.text)
    DspProcIrc                               0x0001b269   Thumb Code   210  dspdrv.o(.text)
    SetDh2On                                 0x0001b33b   Thumb Code   202  dspdrv.o(.text)
    DspChannelOut5_1                         0x0001b405   Thumb Code    28  dspdrv.o(.text)
    DspChannelOut7_1                         0x0001b421   Thumb Code    28  dspdrv.o(.text)
    DspChannelOutSetting                     0x0001b43d   Thumb Code    36  dspdrv.o(.text)
    DspLoadDefaultSetting                    0x0001b461   Thumb Code   220  dspdrv.o(.text)
    CheckDspMessage                          0x0001b53d   Thumb Code    84  dspdrv.o(.text)
    DspMasterBoot                            0x0001b591   Thumb Code    76  dspdrv.o(.text)
    DspProcPower                             0x0001b5dd   Thumb Code   150  dspdrv.o(.text)
    DSPFirmwareWrite                         0x0001b673   Thumb Code    90  dspdrv.o(.text)
    SetMixerAllStereo                        0x0001b6cd   Thumb Code   488  dspdrv.o(.text)
    SetMixerAllMono                          0x0001b8b5   Thumb Code   178  dspdrv.o(.text)
    DspSetCrossbarEffect                     0x0001b967   Thumb Code    82  dspdrv.o(.text)
    GetNormalFreq                            0x0001b9b9   Thumb Code     6  dspdrv.o(.text)
    DspDecodePcm                             0x0001b9bf   Thumb Code   420  dspdrv.o(.text)
    DspDecodeAc3                             0x0001bb63   Thumb Code  1068  dspdrv.o(.text)
    AC3_Cfg_Change_Deal                      0x0001bf8f   Thumb Code    86  dspdrv.o(.text)
    AnalyseAc3Cfg                            0x0001bfe5   Thumb Code    80  dspdrv.o(.text)
    TureHD_Cfg_Change_Deal                   0x0001c035   Thumb Code    68  dspdrv.o(.text)
    AnalyseTureHDCfg                         0x0001c079   Thumb Code    98  dspdrv.o(.text)
    DspDecodeDTS                             0x0001c0db   Thumb Code  1106  dspdrv.o(.text)
    DTS_Cfg_Change_Deal                      0x0001c52d   Thumb Code   156  dspdrv.o(.text)
    AnalyseDtsCfg                            0x0001c5c9   Thumb Code   138  dspdrv.o(.text)
    DtsHD_Cfg_Change_Deal                    0x0001c653   Thumb Code    68  dspdrv.o(.text)
    ReadDsp                                  0x0001c697   Thumb Code   342  dspdrv.o(.text)
    DspReadDTSHDChannel                      0x0001c7ed   Thumb Code    58  dspdrv.o(.text)
    AnalyseDtsHDCfg                          0x0001c827   Thumb Code   204  dspdrv.o(.text)
    AnalyseDtsHRACfg                         0x0001c8f3   Thumb Code   146  dspdrv.o(.text)
    DSP_DTS_HD_HRA_Read                      0x0001c985   Thumb Code    54  dspdrv.o(.text)
    lpcm_20_config                           0x0001c9bb   Thumb Code    28  dspdrv.o(.text)
    lpcm_20_config1                          0x0001c9d7   Thumb Code    70  dspdrv.o(.text)
    ProcAutodetecResponse                    0x0001ca1d   Thumb Code  1756  dspdrv.o(.text)
    DspProcUnsolicitedMsg                    0x0001d0f9   Thumb Code    48  dspdrv.o(.text)
    SetLate                                  0x0001d129   Thumb Code   396  dspdrv.o(.text)
    CALC_EQ_FC                               0x0001d2c1   Thumb Code    30  eq_manager.o(.text)
    CALC_EQ_Q                                0x0001d2df   Thumb Code    30  eq_manager.o(.text)
    CALC_EQ_G                                0x0001d2fd   Thumb Code    68  eq_manager.o(.text)
    DSP_Eq_Control                           0x0001d341   Thumb Code   146  eq_manager.o(.text)
    DSP_Eq_Config                            0x0001d3d3   Thumb Code   136  eq_manager.o(.text)
    DSP_Eq_Channels                          0x0001d45b   Thumb Code    82  eq_manager.o(.text)
    DSP_Eq_Bands                             0x0001d4ad   Thumb Code    76  eq_manager.o(.text)
    DSP_Eq_Flash                             0x0001d4f9   Thumb Code   142  eq_manager.o(.text)
    DSP_EQ_CH_PREATTENUATION                 0x0001d587   Thumb Code   222  eq_manager.o(.text)
    DSP_EQ_POSTGAIN                          0x0001d665   Thumb Code   228  eq_manager.o(.text)
    DSP_EQ_CHANGER                           0x0001d749   Thumb Code    78  eq_manager.o(.text)
    EqModuleconfig                           0x0001d797   Thumb Code   532  eq_manager.o(.text)
    DSP_Power_on_config                      0x0001d9ab   Thumb Code   622  eq_manager.o(.text)
    DSP_EQ_Firmware_Init                     0x0001dc19   Thumb Code    62  eq_manager.o(.text)
    EqOn                                     0x0001dc57   Thumb Code    56  eq_manager.o(.text)
    DspReadEq                                0x0001dc8f   Thumb Code   110  eq_manager.o(.text)
    Convert_8_24_Value                       0x0001dd21   Thumb Code    28  irc1_manager.o(.text)
    InitMicParameter                         0x0001dd3d   Thumb Code    56  irc1_manager.o(.text)
    DSP_IRC_1_Control                        0x0001dd75   Thumb Code   130  irc1_manager.o(.text)
    DSP_Rx_Channel                           0x0001ddf7   Thumb Code    76  irc1_manager.o(.text)
    DSP_Rx_Gain                              0x0001de43   Thumb Code    78  irc1_manager.o(.text)
    DSP_IRC1_Tx_Channel                      0x0001de91   Thumb Code    74  irc1_manager.o(.text)
    DSP_IRC1_Test_Duration                   0x0001dedb   Thumb Code    76  irc1_manager.o(.text)
    DSP_IRC_1_Test_Signal                    0x0001df27   Thumb Code    76  irc1_manager.o(.text)
    DspReadIrc1                              0x0001df73   Thumb Code    54  irc1_manager.o(.text)
    GetSpkDistance                           0x0001dfa9   Thumb Code    18  irc1_manager.o(.text)
    IsIrc1ValidResult                        0x0001dfbb   Thumb Code    24  irc1_manager.o(.text)
    Dsp_IRC2_Control                         0x0001dfe1   Thumb Code    76  irc2_manager.o(.text)
    Dsp_IRC2_Speaker_Select                  0x0001e02d   Thumb Code   122  irc2_manager.o(.text)
    Dsp_IRC2_Max_EQ_Fc                       0x0001e0a7   Thumb Code    76  irc2_manager.o(.text)
    DspReadIrc2                              0x0001e0f3   Thumb Code    54  irc2_manager.o(.text)
    IsIrc2ValidResult                        0x0001e129   Thumb Code    26  irc2_manager.o(.text)
    OS_OUTPUT_MODE_CONTROL                   0x0001e149   Thumb Code   166  os_manager.o(.text)
    OS_OUTPUT_MODE_CONTROL_FOR_DSPB          0x0001e1ef   Thumb Code   166  os_manager.o(.text)
    OS_OUTPUT_MODE_CONTROL_Debug             0x0001e295   Thumb Code    76  os_manager.o(.text)
    OS_OUTPUT_MODE_CONTROL_FOR_DSPB_Debug    0x0001e2e1   Thumb Code    76  os_manager.o(.text)
    DspReadOS                                0x0001e32d   Thumb Code    54  os_manager.o(.text)
    DSP_SGEN_ENABLE                          0x0001e369   Thumb Code    36  signalgenerator.o(.text)
    DSP_SGEN_CHANNEL_ENABLE                  0x0001e38d   Thumb Code   194  signalgenerator.o(.text)
    DSP_CHANNEL_SIGNAL_SELECT                0x0001e44f   Thumb Code   224  signalgenerator.o(.text)
    DspReadSgen                              0x0001e52f   Thumb Code    54  signalgenerator.o(.text)
    DSP_TRUEHD_Control                       0x0001e569   Thumb Code   128  dolbytruehd.o(.text)
    DSP_TRUEHD_Decode_Mode_Control           0x0001e5e9   Thumb Code   166  dolbytruehd.o(.text)
    DSP_TRUEHD_DRC_Control                   0x0001e68f   Thumb Code    76  dolbytruehd.o(.text)
    DSP_TRUEHD_Cut_Scalefactor               0x0001e6db   Thumb Code    88  dolbytruehd.o(.text)
    DSP_TRUEHD_Boost_Scalefactor             0x0001e733   Thumb Code    88  dolbytruehd.o(.text)
    DSP_TRUEHD_DRC_INIT                      0x0001e78b   Thumb Code    24  dolbytruehd.o(.text)
    DspReadTRUEHD                            0x0001e7a3   Thumb Code    54  dolbytruehd.o(.text)
    DSP_BOOT                                 0x0001e7dd   Thumb Code   186  dsp_api.o(.text)
    DSP_CFG_OUTPUT_FS                        0x0001e897   Thumb Code   194  dsp_api.o(.text)
    DSP_CFG_AUDIO_SRC                        0x0001e959   Thumb Code   172  dsp_api.o(.text)
    DSP_CFG_DECODER                          0x0001ea05   Thumb Code    78  dsp_api.o(.text)
    DSP_CFG_MATRIX                           0x0001ea53   Thumb Code    78  dsp_api.o(.text)
    DSP_CFG_VIRTUALIZER                      0x0001eaa1   Thumb Code    78  dsp_api.o(.text)
    DSP_CFG_PPM                              0x0001eaef   Thumb Code    76  dsp_api.o(.text)
    DSP_CFG_PPM_Mode                         0x0001eb3b   Thumb Code    78  dsp_api.o(.text)
    DSP_CFG_PPM_Mode_Pl2x                    0x0001eb89   Thumb Code    76  dsp_api.o(.text)
    DSP_CFG_MCLK_FACTOR                      0x0001ebd5   Thumb Code   166  dsp_api.o(.text)
    Change_DSP_Decoder_Code                  0x0001ec7b   Thumb Code   144  dsp_api.o(.text)
    Change_DSP_MATRIX_Code                   0x0001ed0b   Thumb Code   256  dsp_api.o(.text)
    Change_DSP_VIRTUALIZER_Code              0x0001ee0b   Thumb Code   134  dsp_api.o(.text)
    Change_DSP_PPM_Code                      0x0001ee91   Thumb Code    62  dsp_api.o(.text)
    Change_Input_Audio_Source                0x0001eecf   Thumb Code   788  dsp_api.o(.text)
    DSP_Update_Flash                         0x0001f1e3   Thumb Code    36  dsp_api.o(.text)
    DSP_API_Read                             0x0001f207   Thumb Code    54  dsp_api.o(.text)
    __c89vsprintf                            0x0001f241   Thumb Code    36  c89vsprintf.o(.text)
    __2sprintf                               0x0001f269   Thumb Code    40  __2sprintf.o(.text)
    _printf_pre_padding                      0x0001f295   Thumb Code    50  _printf_pad.o(.text)
    _printf_post_padding                     0x0001f2c7   Thumb Code    36  _printf_pad.o(.text)
    Inline ARM to Thumb Veneer to _printf_int_dec 0x0001f2ec   ARM Code       8  _printf_dec.o(.text)
    _printf_int_dec                          0x0001f2f5   Thumb Code    94  _printf_dec.o(.text)
    __printf                                 0x0001f365   Thumb Code   406  __printf_flags_ss_wp.o(.text)
    strlen                                   0x0001f501   Thumb Code    64  strlen.o(.text)
    Inline Thumb to ARM Veneer to __aeabi_memcpy 0x0001f545   Thumb Code     4  rt_memcpy.o(.text)
    __aeabi_memcpy                           0x0001f548   ARM Code       0  rt_memcpy.o(.text)
    __rt_memcpy                              0x0001f548   ARM Code     212  rt_memcpy.o(.text)
    _memcpy_lastbytes                        0x0001f5fc   ARM Code       0  rt_memcpy.o(.text)
    Inline Thumb to ARM Veneer to __aeabi_memcpy4 0x0001f61d   Thumb Code     4  rt_memcpy_w.o(.text)
    __aeabi_memcpy4                          0x0001f620   ARM Code       0  rt_memcpy_w.o(.text)
    __aeabi_memcpy8                          0x0001f620   ARM Code       0  rt_memcpy_w.o(.text)
    __rt_memcpy_w                            0x0001f620   ARM Code     100  rt_memcpy_w.o(.text)
    _memcpy_lastbytes_aligned                0x0001f66c   ARM Code       0  rt_memcpy_w.o(.text)
    Inline Thumb to ARM Veneer to __aeabi_memset 0x0001f685   Thumb Code     4  aeabi_memset.o(.text)
    __aeabi_memset                           0x0001f688   ARM Code      16  aeabi_memset.o(.text)
    Inline Thumb to ARM Veneer to __aeabi_memclr 0x0001f699   Thumb Code     4  rt_memclr.o(.text)
    __aeabi_memclr                           0x0001f69c   ARM Code       0  rt_memclr.o(.text)
    __rt_memclr                              0x0001f69c   ARM Code      64  rt_memclr.o(.text)
    _memset                                  0x0001f6a0   ARM Code       0  rt_memclr.o(.text)
    Inline Thumb to ARM Veneer to strncpy    0x0001f6dd   Thumb Code     4  strncpy.o(.text)
    strncpy                                  0x0001f6e0   ARM Code     108  strncpy.o(.text)
    Inline Thumb to ARM Veneer to __aeabi_idivmod 0x0001f751   Thumb Code     4  aeabi_sdiv.o(.text)
    __aeabi_idiv                             0x0001f754   ARM Code       0  aeabi_sdiv.o(.text)
    __aeabi_idivmod                          0x0001f754   ARM Code     384  aeabi_sdiv.o(.text)
    __use_two_region_memory                  0x0001f8d5   Thumb Code     2  heapauxi.o(.text)
    __rt_heap_escrow$2region                 0x0001f8d7   Thumb Code     2  heapauxi.o(.text)
    __rt_heap_expand$2region                 0x0001f8d9   Thumb Code     2  heapauxi.o(.text)
    Inline ARM to Thumb Veneer to __set_errno 0x0001f8dc   ARM Code       8  _rserrno.o(.text)
    __read_errno                             0x0001f8e5   Thumb Code    14  _rserrno.o(.text)
    __set_errno                              0x0001f8f3   Thumb Code    12  _rserrno.o(.text)
    _printf_truncate_signed                  0x0001f8ff   Thumb Code    22  _printf_truncate.o(.text)
    _printf_truncate_unsigned                0x0001f915   Thumb Code    22  _printf_truncate.o(.text)
    _printf_str                              0x0001f92b   Thumb Code    88  _printf_str.o(.text)
    _printf_int_common                       0x0001f983   Thumb Code   186  _printf_intcommon.o(.text)
    Inline ARM to Thumb Veneer to _printf_charcount 0x0001fa3c   ARM Code       8  _printf_charcount.o(.text)
    _printf_charcount                        0x0001fa45   Thumb Code    40  _printf_charcount.o(.text)
    __lib_sel_fp_printf                      0x0001fa6d   Thumb Code     2  _printf_fp_dec.o(.text)
    _printf_fp_dec_real                      0x0001fc0d   Thumb Code   626  _printf_fp_dec.o(.text)
    _printf_char_common                      0x0001fe97   Thumb Code    34  _printf_char_common.o(.text)
    _sputc                                   0x0001febd   Thumb Code    10  _sputc.o(.text)
    _printf_wctomb                           0x0001fec9   Thumb Code   188  _printf_wctomb.o(.text)
    Inline ARM to Thumb Veneer to _printf_longlong_dec 0x0001ff88   ARM Code       8  _printf_longlong_dec.o(.text)
    _printf_longlong_dec                     0x0001ff91   Thumb Code    98  _printf_longlong_dec.o(.text)
    Inline ARM to Thumb Veneer to _printf_int_oct 0x00020004   ARM Code       8  _printf_oct_int_ll.o(.text)
    _printf_longlong_oct                     0x0002000d   Thumb Code    72  _printf_oct_int_ll.o(.text)
    _printf_int_oct                          0x00020055   Thumb Code    28  _printf_oct_int_ll.o(.text)
    _printf_ll_oct                           0x00020071   Thumb Code    10  _printf_oct_int_ll.o(.text)
    Inline ARM to Thumb Veneer to _printf_hex_ptr 0x00020084   ARM Code       8  _printf_hex_int_ll_ptr.o(.text)
    _printf_longlong_hex                     0x0002008d   Thumb Code    92  _printf_hex_int_ll_ptr.o(.text)
    _printf_int_hex                          0x000200e9   Thumb Code    32  _printf_hex_int_ll_ptr.o(.text)
    _printf_ll_hex                           0x00020109   Thumb Code    10  _printf_hex_int_ll_ptr.o(.text)
    _printf_hex_ptr                          0x00020113   Thumb Code    22  _printf_hex_int_ll_ptr.o(.text)
    __aeabi_memclr4                          0x0002012c   ARM Code       0  rt_memclr_w.o(.text)
    __aeabi_memclr8                          0x0002012c   ARM Code       0  rt_memclr_w.o(.text)
    __rt_memclr_w                            0x0002012c   ARM Code      84  rt_memclr_w.o(.text)
    _memset_w                                0x00020130   ARM Code       0  rt_memclr_w.o(.text)
    Inline Thumb to ARM Veneer to __rt_udiv10 0x00020181   Thumb Code     4  rtudiv10.o(.text)
    __rt_udiv10                              0x00020184   ARM Code      44  rtudiv10.o(.text)
    Inline Thumb to ARM Veneer to __rt_locale 0x000201b1   Thumb Code     4  rt_locale_intlibspace.o(.text)
    __rt_locale                              0x000201b4   ARM Code      12  rt_locale_intlibspace.o(.text)
    Inline Thumb to ARM Veneer to __aeabi_errno_addr 0x000201c1   Thumb Code     4  rt_errno_addr_intlibspace.o(.text)
    __aeabi_errno_addr                       0x000201c4   ARM Code      12  rt_errno_addr_intlibspace.o(.text)
    __errno$intlibspace                      0x000201c4   ARM Code       0  rt_errno_addr_intlibspace.o(.text)
    __rt_errno_addr$intlibspace              0x000201c4   ARM Code       0  rt_errno_addr_intlibspace.o(.text)
    Inline Thumb to ARM Veneer to _ll_udiv10 0x000201d1   Thumb Code     4  lludiv10.o(.text)
    _ll_udiv10                               0x000201d4   ARM Code     160  lludiv10.o(.text)
    _printf_fp_infnan                        0x00020275   Thumb Code   128  _printf_fp_infnan.o(.text)
    Inline ARM to Thumb Veneer to _printf_char 0x00020304   ARM Code       8  _printf_char.o(.text)
    _printf_cs_common                        0x0002030d   Thumb Code    26  _printf_char.o(.text)
    _printf_char                             0x00020327   Thumb Code    16  _printf_char.o(.text)
    _printf_string                           0x00020337   Thumb Code     8  _printf_char.o(.text)
    Inline ARM to Thumb Veneer to _printf_wchar 0x00020340   ARM Code       8  _printf_wchar.o(.text)
    _printf_lcs_common                       0x00020349   Thumb Code    26  _printf_wchar.o(.text)
    _printf_wchar                            0x00020363   Thumb Code    16  _printf_wchar.o(.text)
    _printf_wstring                          0x00020373   Thumb Code     8  _printf_wchar.o(.text)
    _btod_etento                             0x0002037d   Thumb Code   210  bigflt0.o(.text)
    _wcrtomb                                 0x00020455   Thumb Code    74  _wcrtomb.o(.text)
    __user_libspace                          0x000204a0   ARM Code      12  libspace.o(.text)
    __user_perproc_libspace                  0x000204a0   ARM Code       0  libspace.o(.text)
    __user_perthread_libspace                0x000204a0   ARM Code       0  libspace.o(.text)
    __user_setup_stackheap                   0x000204ac   ARM Code      96  sys_stackheap_outer.o(.text)
    Inline Thumb to ARM Veneer to __rt_ctype_table 0x0002050d   Thumb Code     4  rt_ctype_table.o(.text)
    __rt_ctype_table                         0x00020510   ARM Code      24  rt_ctype_table.o(.text)
    exit                                     0x00020529   Thumb Code    12  exit.o(.text)
    strcmp                                   0x00020534   ARM Code     156  strcmp.o(.text)
    Inline ARM to Thumb Veneer to _sys_exit  0x000205d4   ARM Code       8  sys_exit.o(.text)
    _sys_exit                                0x000205dd   Thumb Code     8  sys_exit.o(.text)
    __I$use$semihosting                      0x000205e8   ARM Code       0  use_no_semi.o(.text)
    __use_no_semihosting_swi                 0x000205e8   ARM Code       4  use_no_semi.o(.text)
    Inline Thumb to ARM Veneer to __aeabi_uidivmod 0x000205ed   Thumb Code     4  aeabi_sdiv.o(.text_udiv)
    __semihosting_library_function           0x000205ec   ARM Code       0  indicate_semi.o(.text)
    __aeabi_uidiv                            0x000205f0   ARM Code       0  aeabi_sdiv.o(.text_udiv)
    __aeabi_uidivmod                         0x000205f0   ARM Code      36  aeabi_sdiv.o(.text_udiv)
    Inline Thumb to ARM Veneer to _btod_d2e  0x00020615   Thumb Code     4  btod.o(CL$$btod_d2e)
    _btod_d2e                                0x00020618   ARM Code      56  btod.o(CL$$btod_d2e)
    _d2e_denorm_low                          0x00020650   ARM Code      84  btod.o(CL$$btod_d2e_denorm_low)
    _d2e_norm_op1                            0x000206a4   ARM Code     104  btod.o(CL$$btod_d2e_norm_op1)
    __btod_div_common                        0x0002070c   ARM Code     716  btod.o(CL$$btod_div_common)
    _e2e                                     0x00020a58   ARM Code     220  btod.o(CL$$btod_e2e)
    Inline Thumb to ARM Veneer to _btod_ediv 0x00020b35   Thumb Code     4  btod.o(CL$$btod_ediv)
    _btod_ediv                               0x00020b38   ARM Code      52  btod.o(CL$$btod_ediv)
    Inline Thumb to ARM Veneer to _btod_emul 0x00020b6d   Thumb Code     4  btod.o(CL$$btod_emul)
    _btod_emul                               0x00020b70   ARM Code      52  btod.o(CL$$btod_emul)
    __btod_mult_common                       0x00020ba4   ARM Code     616  btod.o(CL$$btod_mult_common)
    Long ARM to Thumb Veneer to _printf_int_hex 0x00020e0c   ARM Code      12  anon$$obj.o(Veneer$$Code)
    Long ARM to Thumb Veneer to _printf_ll_oct 0x00020e18   ARM Code      12  anon$$obj.o(Veneer$$Code)
    Long ARM to Thumb Veneer to _printf_ll_hex 0x00020e24   ARM Code      12  anon$$obj.o(Veneer$$Code)
    Long ARM to Thumb Veneer to _printf_string 0x00020e30   ARM Code      12  anon$$obj.o(Veneer$$Code)
    Long ARM to Thumb Veneer to _printf_wstring 0x00020e3c   ARM Code      12  anon$$obj.o(Veneer$$Code)
    Long ARM to Thumb Veneer to ir2_core_philips 0x00020e48   ARM Code      12  anon$$obj.o(Veneer$$Code)
    Long ARM to Thumb Veneer to RefreshHandle 0x00020e54   ARM Code      12  anon$$obj.o(Veneer$$Code)
    Long ARM to Thumb Veneer to MsgSetVfdShow 0x00020e60   ARM Code      12  anon$$obj.o(Veneer$$Code)
    Long ARM to Thumb Veneer to MsgSetDSPHDMISetting 0x00020e6c   ARM Code      12  anon$$obj.o(Veneer$$Code)
    Long ARM to Thumb Veneer to _printf_fp_dec_real 0x00020e78   ARM Code      12  anon$$obj.o(Veneer$$Code)
    __ARM_common_call_via_r0                 0x00020e85   Thumb Code     2  main.o(i.__ARM_common_call_via_r0)
    __ARM_common_call_via_r1                 0x00020e87   Thumb Code     2  task.o(i.__ARM_common_call_via_r1)
    __ARM_common_call_via_r2                 0x00020e89   Thumb Code     2  rs232_protocol.o(i.__ARM_common_call_via_r2)
    __ARM_common_call_via_r3                 0x00020e8b   Thumb Code     2  setup_menu.o(i.__ARM_common_call_via_r3)
    Inline Thumb to ARM Veneer to __ARM_common_switch8 0x00020e8d   Thumb Code     4  rs232_protocol.o(i.__ARM_common_switch8)
    __ARM_common_switch8                     0x00020e90   ARM Code      32  rs232_protocol.o(i.__ARM_common_switch8)
    Inline Thumb to ARM Veneer to __ARM_fpclassify 0x00020eb1   Thumb Code     4  fpclassify.o(i.__ARM_fpclassify)
    __ARM_fpclassify                         0x00020eb4   ARM Code      48  fpclassify.o(i.__ARM_fpclassify)
    __kernel_poly                            0x00020ee4   ARM Code     256  poly.o(i.__kernel_poly)
    __mathlib_dbl_underflow                  0x00020fe4   ARM Code      20  dunder.o(i.__mathlib_dbl_underflow)
    _is_digit                                0x00020ff9   Thumb Code    14  __printf_wp.o(i._is_digit)
    Inline Thumb to ARM Veneer to pow        0x00021009   Thumb Code     4  pow.o(i.pow)
    pow                                      0x0002100c   ARM Code    3844  pow.o(i.pow)
    sqrt                                     0x00021f10   ARM Code     116  sqrt.o(i.sqrt)
    Inline Thumb to ARM Veneer to _get_lc_numeric 0x00021f85   Thumb Code     4  lc_numeric_c.o(locale$$code)
    _get_lc_numeric                          0x00021f88   ARM Code      80  lc_numeric_c.o(locale$$code)
    Inline Thumb to ARM Veneer to _get_lc_ctype 0x00021fd9   Thumb Code     4  lc_ctype_c.o(locale$$code)
    _get_lc_ctype                            0x00021fdc   ARM Code      80  lc_ctype_c.o(locale$$code)
    Inline Thumb to ARM Veneer to __aeabi_d2f 0x0002202d   Thumb Code     4  d2f.o(x$fpl$d2f)
    __aeabi_d2f                              0x00022030   ARM Code       0  d2f.o(x$fpl$d2f)
    _d2f                                     0x00022030   ARM Code     108  d2f.o(x$fpl$d2f)
    __aeabi_dadd                             0x0002209c   ARM Code       0  daddsub_noclz.o(x$fpl$dadd)
    _dadd                                    0x0002209c   ARM Code     336  daddsub_noclz.o(x$fpl$dadd)
    __fpl_dcheck_NaN1                        0x000221f0   ARM Code      12  dcheck1.o(x$fpl$dcheck1)
    __fpl_dcmp_Inf                           0x00022200   ARM Code      28  dcmpi.o(x$fpl$dcmpinf)
    Inline Thumb to ARM Veneer to __aeabi_ddiv 0x0002221d   Thumb Code     4  ddiv.o(x$fpl$ddiv)
    __aeabi_ddiv                             0x00022220   ARM Code       0  ddiv.o(x$fpl$ddiv)
    _ddiv                                    0x00022220   ARM Code     600  ddiv.o(x$fpl$ddiv)
    Inline Thumb to ARM Veneer to __aeabi_i2d 0x00022501   Thumb Code     4  dflt_noclz.o(x$fpl$dflt)
    __aeabi_i2d                              0x00022504   ARM Code       0  dflt_noclz.o(x$fpl$dflt)
    _dflt                                    0x00022504   ARM Code      88  dflt_noclz.o(x$fpl$dflt)
    __dflt_normalise                         0x00022514   ARM Code       0  dflt_noclz.o(x$fpl$dflt)
    Inline Thumb to ARM Veneer to __aeabi_ui2d 0x0002255d   Thumb Code     4  dflt_noclz.o(x$fpl$dfltu)
    __aeabi_ui2d                             0x00022560   ARM Code       0  dflt_noclz.o(x$fpl$dfltu)
    _dfltu                                   0x00022560   ARM Code      12  dflt_noclz.o(x$fpl$dfltu)
    Inline Thumb to ARM Veneer to __aeabi_cdcmple 0x0002256d   Thumb Code     4  dleqf.o(x$fpl$dleqf)
    __aeabi_cdcmple                          0x00022570   ARM Code       0  dleqf.o(x$fpl$dleqf)
    _dcmple                                  0x00022570   ARM Code     148  dleqf.o(x$fpl$dleqf)
    __fpl_dcmple_InfNaN                      0x000225ec   ARM Code       0  dleqf.o(x$fpl$dleqf)
    Inline Thumb to ARM Veneer to __aeabi_dmul 0x00022605   Thumb Code     4  dmul.o(x$fpl$dmul)
    __aeabi_dmul                             0x00022608   ARM Code       0  dmul.o(x$fpl$dmul)
    _dmul                                    0x00022608   ARM Code     372  dmul.o(x$fpl$dmul)
    __fpl_dnaninf                            0x00022788   ARM Code     192  dnaninf.o(x$fpl$dnaninf)
    __fpl_dretinf                            0x00022848   ARM Code      16  dretinf.o(x$fpl$dretinf)
    Inline Thumb to ARM Veneer to __aeabi_cdrcmple 0x00022859   Thumb Code     4  drleqf.o(x$fpl$drleqf)
    __aeabi_cdrcmple                         0x0002285c   ARM Code       0  drleqf.o(x$fpl$drleqf)
    _drcmple                                 0x0002285c   ARM Code     140  drleqf.o(x$fpl$drleqf)
    Inline Thumb to ARM Veneer to __aeabi_drsub 0x000228e9   Thumb Code     4  daddsub_noclz.o(x$fpl$drsb)
    __aeabi_drsub                            0x000228ec   ARM Code       0  daddsub_noclz.o(x$fpl$drsb)
    _drsb                                    0x000228ec   ARM Code      24  daddsub_noclz.o(x$fpl$drsb)
    _dsqrt                                   0x00022904   ARM Code     516  dsqrt_noumaal.o(x$fpl$dsqrt)
    __aeabi_dsub                             0x00022b0c   ARM Code       0  daddsub_noclz.o(x$fpl$dsub)
    _dsub                                    0x00022b0c   ARM Code     576  daddsub_noclz.o(x$fpl$dsub)
    Inline Thumb to ARM Veneer to __aeabi_f2d 0x00022d51   Thumb Code     4  f2d.o(x$fpl$f2d)
    __aeabi_f2d                              0x00022d54   ARM Code       0  f2d.o(x$fpl$f2d)
    _f2d                                     0x00022d54   ARM Code     100  f2d.o(x$fpl$f2d)
    Inline Thumb to ARM Veneer to __aeabi_fadd 0x00022db9   Thumb Code     4  faddsub_noclz.o(x$fpl$fadd)
    __aeabi_fadd                             0x00022dbc   ARM Code       0  faddsub_noclz.o(x$fpl$fadd)
    _fadd                                    0x00022dbc   ARM Code     196  faddsub_noclz.o(x$fpl$fadd)
    __fpl_fcmp_Inf                           0x00022e80   ARM Code      28  fcmpi.o(x$fpl$fcmpinf)
    Inline Thumb to ARM Veneer to __aeabi_fdiv 0x00022e9d   Thumb Code     4  fdiv.o(x$fpl$fdiv)
    __aeabi_fdiv                             0x00022ea0   ARM Code       0  fdiv.o(x$fpl$fdiv)
    _fdiv                                    0x00022ea0   ARM Code     396  fdiv.o(x$fpl$fdiv)
    Inline Thumb to ARM Veneer to __aeabi_cfcmpeq 0x00023031   Thumb Code     4  feqf.o(x$fpl$feqf)
    __aeabi_cfcmpeq                          0x00023034   ARM Code       0  feqf.o(x$fpl$feqf)
    _fcmpeq                                  0x00023034   ARM Code     132  feqf.o(x$fpl$feqf)
    Inline Thumb to ARM Veneer to __aeabi_f2iz 0x000230b9   Thumb Code     4  ffix.o(x$fpl$ffix)
    __aeabi_f2iz                             0x000230bc   ARM Code       0  ffix.o(x$fpl$ffix)
    _ffix                                    0x000230bc   ARM Code      68  ffix.o(x$fpl$ffix)
    Inline Thumb to ARM Veneer to __aeabi_f2uiz 0x00023101   Thumb Code     4  ffixu.o(x$fpl$ffixu)
    __aeabi_f2uiz                            0x00023104   ARM Code       0  ffixu.o(x$fpl$ffixu)
    _ffixu                                   0x00023104   ARM Code      84  ffixu.o(x$fpl$ffixu)
    Inline Thumb to ARM Veneer to __aeabi_i2f 0x00023159   Thumb Code     4  fflt_noclz.o(x$fpl$fflt)
    __aeabi_i2f                              0x0002315c   ARM Code       0  fflt_noclz.o(x$fpl$fflt)
    _fflt                                    0x0002315c   ARM Code      92  fflt_noclz.o(x$fpl$fflt)
    __fflt_normalise                         0x00023168   ARM Code       0  fflt_noclz.o(x$fpl$fflt)
    Inline Thumb to ARM Veneer to __aeabi_ui2f 0x000231b9   Thumb Code     4  fflt_noclz.o(x$fpl$ffltu)
    __aeabi_ui2f                             0x000231bc   ARM Code       0  fflt_noclz.o(x$fpl$ffltu)
    _ffltu                                   0x000231bc   ARM Code       8  fflt_noclz.o(x$fpl$ffltu)
    Inline Thumb to ARM Veneer to __aeabi_cfcmple 0x000231c5   Thumb Code     4  fleqf.o(x$fpl$fleqf)
    __aeabi_cfcmple                          0x000231c8   ARM Code       0  fleqf.o(x$fpl$fleqf)
    _fcmple                                  0x000231c8   ARM Code     132  fleqf.o(x$fpl$fleqf)
    __fpl_fcmple_InfNaN                      0x00023234   ARM Code       0  fleqf.o(x$fpl$fleqf)
    Inline Thumb to ARM Veneer to __aeabi_fmul 0x0002324d   Thumb Code     4  fmul.o(x$fpl$fmul)
    __aeabi_fmul                             0x00023250   ARM Code       0  fmul.o(x$fpl$fmul)
    _fmul                                    0x00023250   ARM Code     256  fmul.o(x$fpl$fmul)
    __fpl_fnaninf                            0x00023350   ARM Code     168  fnaninf.o(x$fpl$fnaninf)
    __fpl_fretinf                            0x000233f8   ARM Code      16  fretinf.o(x$fpl$fretinf)
    Inline Thumb to ARM Veneer to __aeabi_cfrcmple 0x00023409   Thumb Code     4  frleqf.o(x$fpl$frleqf)
    __aeabi_cfrcmple                         0x0002340c   ARM Code       0  frleqf.o(x$fpl$frleqf)
    _frcmple                                 0x0002340c   ARM Code     124  frleqf.o(x$fpl$frleqf)
    Inline Thumb to ARM Veneer to __aeabi_fsub 0x00023489   Thumb Code     4  faddsub_noclz.o(x$fpl$fsub)
    __aeabi_fsub                             0x0002348c   ARM Code       0  faddsub_noclz.o(x$fpl$fsub)
    _fsub                                    0x0002348c   ARM Code     304  faddsub_noclz.o(x$fpl$fsub)
    Inline Thumb to ARM Veneer to __ieee_status 0x000235bd   Thumb Code     4  istatus.o(x$fpl$ieeestatus)
    __ieee_status                            0x000235c0   ARM Code       8  istatus.o(x$fpl$ieeestatus)
    _printf_fp_dec                           0x000235c8   ARM Code       4  printf1.o(x$fpl$printf1)
    __fpl_return_NaN                         0x000235cc   ARM Code     116  retnan.o(x$fpl$retnan)
    __ARM_scalbn                             0x00023640   ARM Code     104  scalbn.o(x$fpl$scalbn)
    __fpl_cmpreturn                          0x000236a8   ARM Code      60  trapv.o(x$fpl$trapveneer)
    __I$use$fp                               0x000236e4   Number         0  usenofp.o(x$fpl$usenofp)
    zone1_remote_key_table                   0x000236e4   Data          64  key_tab.o(.constdata)
    zone2_remote_key_table                   0x00023724   Data          57  key_tab.o(.constdata)
    panel_key_table                          0x00023760   Data         256  key_task.o(.constdata)
    volume_table                             0x00023860   Data         212  menu_tbl.o(.constdata)
    balance_table                            0x00023934   Data         244  menu_tbl.o(.constdata)
    AnalogInLevelTable                       0x00023a28   Data          62  menu_tbl.o(.constdata)
    MenuPageList                             0x00023a68   Data         324  menu_tbl.o(.constdata)
    cmd_SPU                                  0x00023bac   Data           8  rs232_protocol.o(.constdata)
    cmd_RSN                                  0x00023bb4   Data           8  rs232_protocol.o(.constdata)
    cmd_TAT                                  0x00023bbc   Data           8  rs232_protocol.o(.constdata)
    cmd_TAHDT                                0x00023bc4   Data           8  rs232_protocol.o(.constdata)
    cmd_TFT                                  0x00023bcc   Data           8  rs232_protocol.o(.constdata)
    cmd_TFHDT                                0x00023bd4   Data           8  rs232_protocol.o(.constdata)
    cmd_TAP                                  0x00023bdc   Data           8  rs232_protocol.o(.constdata)
    cmd_TAHDP                                0x00023be4   Data           8  rs232_protocol.o(.constdata)
    cmd_TFP                                  0x00023bec   Data           8  rs232_protocol.o(.constdata)
    cmd_TFHDP                                0x00023bf4   Data           8  rs232_protocol.o(.constdata)
    cmd_T                                    0x00023bfc   Data           8  rs232_protocol.o(.constdata)
    cmd_TAS                                  0x00023c04   Data           8  rs232_protocol.o(.constdata)
    cmd_TAHDS                                0x00023c0c   Data           8  rs232_protocol.o(.constdata)
    cmd_TAF                                  0x00023c14   Data           8  rs232_protocol.o(.constdata)
    cmd_TAHDF                                0x00023c1c   Data           8  rs232_protocol.o(.constdata)
    cmd_TT_                                  0x00023c24   Data           8  rs232_protocol.o(.constdata)
    cmd_Z1LPS                                0x00023c2c   Data           8  rs232_protocol.o(.constdata)
    cmd_Z1S                                  0x00023c34   Data           8  rs232_protocol.o(.constdata)
    cmd_Z1P                                  0x00023c3c   Data           8  rs232_protocol.o(.constdata)
    cmd_Z1M                                  0x00023c44   Data           8  rs232_protocol.o(.constdata)
    cmd_Z1E                                  0x00023c4c   Data           8  rs232_protocol.o(.constdata)
    cmd_Z1EX                                 0x00023c54   Data           8  rs232_protocol.o(.constdata)
    cmd_Z1EF                                 0x00023c5c   Data           8  rs232_protocol.o(.constdata)
    cmd_Z1EE                                 0x00023c64   Data           8  rs232_protocol.o(.constdata)
    cmd_Z1ES                                 0x00023c6c   Data           8  rs232_protocol.o(.constdata)
    cmd_Z1EU                                 0x00023c74   Data           8  rs232_protocol.o(.constdata)
    cmd_Z1ED                                 0x00023c7c   Data           8  rs232_protocol.o(.constdata)
    cmd_Z1D                                  0x00023c84   Data           8  rs232_protocol.o(.constdata)
    cmd_Z1C                                  0x00023c8c   Data           8  rs232_protocol.o(.constdata)
    cmd_Z1A_                                 0x00023c94   Data           8  rs232_protocol.o(.constdata)
    cmd_Z1_                                  0x00023c9c   Data           8  rs232_protocol.o(.constdata)
    cmd_Z1VM                                 0x00023ca4   Data           8  rs232_protocol.o(.constdata)
    cmd_Z1DF_                                0x00023cac   Data           8  rs232_protocol.o(.constdata)
    cmd_Z1EQL                                0x00023cb4   Data           8  rs232_protocol.o(.constdata)
    cmd_Z1EQC                                0x00023cbc   Data           8  rs232_protocol.o(.constdata)
    cmd_Z1EQR                                0x00023cc4   Data           8  rs232_protocol.o(.constdata)
    cmd_Z1EQSR                               0x00023ccc   Data           8  rs232_protocol.o(.constdata)
    cmd_Z1EQBSR                              0x00023cd4   Data           8  rs232_protocol.o(.constdata)
    cmd_Z1EQBSL                              0x00023cdc   Data           8  rs232_protocol.o(.constdata)
    cmd_Z1EQSL                               0x00023ce4   Data           8  rs232_protocol.o(.constdata)
    cmd_Z1EQSW                               0x00023cec   Data           8  rs232_protocol.o(.constdata)
    cmd_Z1EQ                                 0x00023cf4   Data           8  rs232_protocol.o(.constdata)
    cmd_Z2P                                  0x00023cfc   Data           8  rs232_protocol.o(.constdata)
    cmd_Z2S                                  0x00023d04   Data           8  rs232_protocol.o(.constdata)
    cmd_Z2V                                  0x00023d0c   Data           8  rs232_protocol.o(.constdata)
    cmd_Z2M                                  0x00023d14   Data           8  rs232_protocol.o(.constdata)
    cmd_Z2_                                  0x00023d1c   Data           8  rs232_protocol.o(.constdata)
    cmd_Z2VFD_                               0x00023d24   Data           8  rs232_protocol.o(.constdata)
    cmd_SLL                                  0x00023d2c   Data           8  rs232_protocol.o(.constdata)
    cmd_SLC                                  0x00023d34   Data           8  rs232_protocol.o(.constdata)
    cmd_SLR                                  0x00023d3c   Data           8  rs232_protocol.o(.constdata)
    cmd_SLSR                                 0x00023d44   Data           8  rs232_protocol.o(.constdata)
    cmd_SLSL                                 0x00023d4c   Data           8  rs232_protocol.o(.constdata)
    cmd_SLBR                                 0x00023d54   Data           8  rs232_protocol.o(.constdata)
    cmd_SLBL                                 0x00023d5c   Data           8  rs232_protocol.o(.constdata)
    cmd_SLSW                                 0x00023d64   Data           8  rs232_protocol.o(.constdata)
    cmd_SPL                                  0x00023d6c   Data           8  rs232_protocol.o(.constdata)
    cmd_SPC                                  0x00023d74   Data           8  rs232_protocol.o(.constdata)
    cmd_SPR                                  0x00023d7c   Data           8  rs232_protocol.o(.constdata)
    cmd_SPSR                                 0x00023d84   Data           8  rs232_protocol.o(.constdata)
    cmd_SPSL                                 0x00023d8c   Data           8  rs232_protocol.o(.constdata)
    cmd_SPBR                                 0x00023d94   Data           8  rs232_protocol.o(.constdata)
    cmd_SPBL                                 0x00023d9c   Data           8  rs232_protocol.o(.constdata)
    cmd_SPs                                  0x00023da4   Data           8  rs232_protocol.o(.constdata)
    cmd_SZL                                  0x00023dac   Data           8  rs232_protocol.o(.constdata)
    cmd_SZR                                  0x00023db4   Data           8  rs232_protocol.o(.constdata)
    cmd_SZSL                                 0x00023dbc   Data           8  rs232_protocol.o(.constdata)
    cmd_SZSR                                 0x00023dc4   Data           8  rs232_protocol.o(.constdata)
    cmd_SZSBL                                0x00023dcc   Data           8  rs232_protocol.o(.constdata)
    cmd_SZSBR                                0x00023dd4   Data           8  rs232_protocol.o(.constdata)
    cmd_SZC                                  0x00023ddc   Data           8  rs232_protocol.o(.constdata)
    cmd_SZS                                  0x00023de4   Data           8  rs232_protocol.o(.constdata)
    cmd_SZXFL                                0x00023dec   Data           8  rs232_protocol.o(.constdata)
    cmd_SZXFC                                0x00023df4   Data           8  rs232_protocol.o(.constdata)
    cmd_SZXFR                                0x00023dfc   Data           8  rs232_protocol.o(.constdata)
    cmd_SZXSR                                0x00023e04   Data           8  rs232_protocol.o(.constdata)
    cmd_SZXSL                                0x00023e0c   Data           8  rs232_protocol.o(.constdata)
    cmd_SZXSBR                               0x00023e14   Data           8  rs232_protocol.o(.constdata)
    cmd_SZXSBL                               0x00023e1c   Data           8  rs232_protocol.o(.constdata)
    cmd_SZX                                  0x00023e24   Data           8  rs232_protocol.o(.constdata)
    cmd_SSPL                                 0x00023e2c   Data           8  rs232_protocol.o(.constdata)
    cmd_SSPC                                 0x00023e34   Data           8  rs232_protocol.o(.constdata)
    cmd_SSPR                                 0x00023e3c   Data           8  rs232_protocol.o(.constdata)
    cmd_SSPSR                                0x00023e44   Data           8  rs232_protocol.o(.constdata)
    cmd_SSPSL                                0x00023e4c   Data           8  rs232_protocol.o(.constdata)
    cmd_SSPSBR                               0x00023e54   Data           8  rs232_protocol.o(.constdata)
    cmd_SSPSBL                               0x00023e5c   Data           8  rs232_protocol.o(.constdata)
    cmd_SSPSW                                0x00023e64   Data           8  rs232_protocol.o(.constdata)
    cmd_MSZL                                 0x00023e6c   Data           8  rs232_protocol.o(.constdata)
    cmd_MSZR                                 0x00023e74   Data           8  rs232_protocol.o(.constdata)
    cmd_MSZSL                                0x00023e7c   Data           8  rs232_protocol.o(.constdata)
    cmd_MSZSR                                0x00023e84   Data           8  rs232_protocol.o(.constdata)
    cmd_MSZSBL                               0x00023e8c   Data           8  rs232_protocol.o(.constdata)
    cmd_MSZSBR                               0x00023e94   Data           8  rs232_protocol.o(.constdata)
    cmd_MSZC                                 0x00023e9c   Data           8  rs232_protocol.o(.constdata)
    cmd_MSZS                                 0x00023ea4   Data           8  rs232_protocol.o(.constdata)
    cmd_MSPL                                 0x00023eac   Data           8  rs232_protocol.o(.constdata)
    cmd_MSPC                                 0x00023eb4   Data           8  rs232_protocol.o(.constdata)
    cmd_MSPR                                 0x00023ebc   Data           8  rs232_protocol.o(.constdata)
    cmd_MSPSR                                0x00023ec4   Data           8  rs232_protocol.o(.constdata)
    cmd_MSPSL                                0x00023ecc   Data           8  rs232_protocol.o(.constdata)
    cmd_MSPBR                                0x00023ed4   Data           8  rs232_protocol.o(.constdata)
    cmd_MSPBL                                0x00023edc   Data           8  rs232_protocol.o(.constdata)
    cmd_MSPs                                 0x00023ee4   Data           8  rs232_protocol.o(.constdata)
    cmd_MSLL                                 0x00023eec   Data           8  rs232_protocol.o(.constdata)
    cmd_MSLC                                 0x00023ef4   Data           8  rs232_protocol.o(.constdata)
    cmd_MSLR                                 0x00023efc   Data           8  rs232_protocol.o(.constdata)
    cmd_MSLSR                                0x00023f04   Data           8  rs232_protocol.o(.constdata)
    cmd_MSLSL                                0x00023f0c   Data           8  rs232_protocol.o(.constdata)
    cmd_MSLBR                                0x00023f14   Data           8  rs232_protocol.o(.constdata)
    cmd_MSLBL                                0x00023f1c   Data           8  rs232_protocol.o(.constdata)
    cmd_MSLSW                                0x00023f24   Data           8  rs232_protocol.o(.constdata)
    cmd_MSZXFL                               0x00023f2c   Data           8  rs232_protocol.o(.constdata)
    cmd_MSZXFC                               0x00023f34   Data           8  rs232_protocol.o(.constdata)
    cmd_MSZXFR                               0x00023f3c   Data           8  rs232_protocol.o(.constdata)
    cmd_MSZXSR                               0x00023f44   Data           8  rs232_protocol.o(.constdata)
    cmd_MSZXSBR                              0x00023f4c   Data           8  rs232_protocol.o(.constdata)
    cmd_MSZXSBL                              0x00023f54   Data           8  rs232_protocol.o(.constdata)
    cmd_MSZXSL                               0x00023f5c   Data           8  rs232_protocol.o(.constdata)
    cmd_MSZX                                 0x00023f64   Data           8  rs232_protocol.o(.constdata)
    cmd_MZ1EQL                               0x00023f6c   Data           8  rs232_protocol.o(.constdata)
    cmd_MZ1EQC                               0x00023f74   Data           8  rs232_protocol.o(.constdata)
    cmd_MZ1EQR                               0x00023f7c   Data           8  rs232_protocol.o(.constdata)
    cmd_MZ1EQSR                              0x00023f84   Data           8  rs232_protocol.o(.constdata)
    cmd_MZ1EQBSR                             0x00023f8c   Data           8  rs232_protocol.o(.constdata)
    cmd_MZ1EQBSL                             0x00023f94   Data           8  rs232_protocol.o(.constdata)
    cmd_MZ1EQSL                              0x00023f9c   Data           8  rs232_protocol.o(.constdata)
    cmd_MZ1EQSW                              0x00023fa4   Data           8  rs232_protocol.o(.constdata)
    cmd_MSSPL                                0x00023fac   Data           8  rs232_protocol.o(.constdata)
    cmd_MSSPC                                0x00023fb4   Data           8  rs232_protocol.o(.constdata)
    cmd_MSSPR                                0x00023fbc   Data           8  rs232_protocol.o(.constdata)
    cmd_MSSPSR                               0x00023fc4   Data           8  rs232_protocol.o(.constdata)
    cmd_MSSPSL                               0x00023fcc   Data           8  rs232_protocol.o(.constdata)
    cmd_MSSPSBR                              0x00023fd4   Data           8  rs232_protocol.o(.constdata)
    cmd_MSSPSBL                              0x00023fdc   Data           8  rs232_protocol.o(.constdata)
    cmd_MSSPSW                               0x00023fe4   Data           8  rs232_protocol.o(.constdata)
    cmd_Z1EMDIM                              0x00023fec   Data           8  rs232_protocol.o(.constdata)
    cmd_Z1EMP                                0x00023ff4   Data           8  rs232_protocol.o(.constdata)
    cmd_Z1EMC                                0x00023ffc   Data           8  rs232_protocol.o(.constdata)
    cmd_Z1EMDEL                              0x00024004   Data           8  rs232_protocol.o(.constdata)
    cmd_Z1VFL_                               0x0002400c   Data           8  rs232_protocol.o(.constdata)
    cmd_Z1VFR_                               0x00024014   Data           8  rs232_protocol.o(.constdata)
    cmd_Z1VC_                                0x0002401c   Data           8  rs232_protocol.o(.constdata)
    cmd_Z1VSL_                               0x00024024   Data           8  rs232_protocol.o(.constdata)
    cmd_Z1VSR_                               0x0002402c   Data           8  rs232_protocol.o(.constdata)
    cmd_Z1VBL_                               0x00024034   Data           8  rs232_protocol.o(.constdata)
    cmd_Z1VBR_                               0x0002403c   Data           8  rs232_protocol.o(.constdata)
    cmd_Z1VS_                                0x00024044   Data           8  rs232_protocol.o(.constdata)
    cmd_Z1VFD_                               0x0002404c   Data           8  rs232_protocol.o(.constdata)
    cmd_Z1IN1                                0x00024054   Data           8  rs232_protocol.o(.constdata)
    cmd_Z1IN2                                0x0002405c   Data           8  rs232_protocol.o(.constdata)
    cmd_Z1IN3                                0x00024064   Data           8  rs232_protocol.o(.constdata)
    cmd_Z1IN4                                0x0002406c   Data           8  rs232_protocol.o(.constdata)
    cmd_Z1IN5                                0x00024074   Data           8  rs232_protocol.o(.constdata)
    cmd_Z1IN6                                0x0002407c   Data           8  rs232_protocol.o(.constdata)
    cmd_Z1IN7                                0x00024084   Data           8  rs232_protocol.o(.constdata)
    cmd_Z1IN8                                0x0002408c   Data           8  rs232_protocol.o(.constdata)
    cmd_Z1SAL1                               0x00024094   Data           8  rs232_protocol.o(.constdata)
    cmd_Z1SAL2                               0x0002409c   Data           8  rs232_protocol.o(.constdata)
    cmd_Z1SAL3                               0x000240a4   Data           8  rs232_protocol.o(.constdata)
    cmd_Z1SAL4                               0x000240ac   Data           8  rs232_protocol.o(.constdata)
    cmd_Z1SAL5                               0x000240b4   Data           8  rs232_protocol.o(.constdata)
    cmd_Z1SAL6                               0x000240bc   Data           8  rs232_protocol.o(.constdata)
    cmd_Z1SAL7                               0x000240c4   Data           8  rs232_protocol.o(.constdata)
    cmd_Z1SAL8                               0x000240cc   Data           8  rs232_protocol.o(.constdata)
    cmd_Z1ACN1                               0x000240d4   Data           8  rs232_protocol.o(.constdata)
    cmd_Z1ACN2                               0x000240dc   Data           8  rs232_protocol.o(.constdata)
    cmd_Z1ACN3                               0x000240e4   Data           8  rs232_protocol.o(.constdata)
    cmd_Z1ACN4                               0x000240ec   Data           8  rs232_protocol.o(.constdata)
    cmd_Z1ACN5                               0x000240f4   Data           8  rs232_protocol.o(.constdata)
    cmd_Z1ACN6                               0x000240fc   Data           8  rs232_protocol.o(.constdata)
    cmd_Z1ACN7                               0x00024104   Data           8  rs232_protocol.o(.constdata)
    cmd_Z1ACN8                               0x0002410c   Data           8  rs232_protocol.o(.constdata)
    cmd_Z1ACN7_1                             0x00024114   Data           8  rs232_protocol.o(.constdata)
    cmd_Z1ACNR                               0x0002411c   Data           8  rs232_protocol.o(.constdata)
    cmd_ASSP                                 0x00024124   Data           8  rs232_protocol.o(.constdata)
    cmd_ASHDMIAO                             0x0002412c   Data           8  rs232_protocol.o(.constdata)
    cmd_ASAVD                                0x00024134   Data           8  rs232_protocol.o(.constdata)
    cmd_ASFP                                 0x0002413c   Data           8  rs232_protocol.o(.constdata)
    cmd_ASRSN                                0x00024144   Data           8  rs232_protocol.o(.constdata)
    cmd_ASIRC                                0x0002414c   Data           8  rs232_protocol.o(.constdata)
    cmd_ASIR2C                               0x00024154   Data           8  rs232_protocol.o(.constdata)
    cmd_ASIRM                                0x0002415c   Data           8  rs232_protocol.o(.constdata)
    cmd_ASIR2M                               0x00024164   Data           8  rs232_protocol.o(.constdata)
    cmd_ASTO1                                0x0002416c   Data           8  rs232_protocol.o(.constdata)
    cmd_ASTO2                                0x00024174   Data           8  rs232_protocol.o(.constdata)
    cmd_ASTO3                                0x0002417c   Data           8  rs232_protocol.o(.constdata)
    cmd_ASAIS                                0x00024184   Data           8  rs232_protocol.o(.constdata)
    cmd_ASDD                                 0x0002418c   Data           8  rs232_protocol.o(.constdata)
    cmd_ASRD                                 0x00024194   Data           8  rs232_protocol.o(.constdata)
    cmd_ASPAO                                0x0002419c   Data           8  rs232_protocol.o(.constdata)
    cmd_ASMVO                                0x000241a4   Data           8  rs232_protocol.o(.constdata)
    cmd_AZ1SMV                               0x000241ac   Data           8  rs232_protocol.o(.constdata)
    cmd_AZ2SMV                               0x000241b4   Data           8  rs232_protocol.o(.constdata)
    CaryLogo                                 0x000241bc   Data          20  setup_func.o(.constdata)
    pZone1Task                               0x000241d0   Data           8  task.o(.constdata)
    pSetupTask                               0x000241d8   Data           8  task.o(.constdata)
    pRadioTask                               0x000241e0   Data           8  task.o(.constdata)
    pZone2Task                               0x000241e8   Data           8  task.o(.constdata)
    pAutoSoundTask                           0x000241f0   Data           8  task.o(.constdata)
    Surround_Processor                       0x000241f8   Data          21  vfd_disp.o(.constdata)
    eq_freq                                  0x00024210   Data         242  auto_sound.o(.constdata)
    IIC_CS8416                               0x00024324   Data          76  cs8416.o(.constdata)
    IIC_EEPROM                               0x00024370   Data          76  eeprom.o(.constdata)
    IIC_VFD                                  0x000243bc   Data          76  vfddriver.o(.constdata)
    dimer_table                              0x00024408   Data           4  vfddriver.o(.constdata)
    BalanceChannel                           0x0002440c   Data           8  volume.o(.constdata)
    Max335SelTab                             0x00024414   Data           8  max335.o(.constdata)
    IIC_DIGI                                 0x0002441c   Data          76  channel.o(.constdata)
    Digital_channel_table                    0x00024468   Data          18  channel.o(.constdata)
    Zone2_Digital_channel_table              0x0002447a   Data          18  channel.o(.constdata)
    input_select_table                       0x0002448c   Data          20  channel.o(.constdata)
    analog_in_table                          0x000244a0   Data          40  channel.o(.constdata)
    zone2_analog_in_table                    0x000244c8   Data          44  channel.o(.constdata)
    IIC_HDMI                                 0x000244f4   Data          76  hdmi.o(.constdata)
    sw_freq_table                            0x00024540   Data          20  eq_manager.o(.constdata)
    freq_table                               0x00024554   Data          20  eq_manager.o(.constdata)
    eq_var_table                             0x00024568   Data         176  eq_manager.o(.constdata)
    MIC_YOGE_BM38_parameter                  0x00024618   Data         256  irc1_manager.o(.constdata)
    __mathlib_zero                           0x000247e8   Data           8  qnan.o(.constdata)
    Region$$Table$$Base                      0x00025238   Number         0  anon$$obj.o(Region$$Table)
    Region$$Table$$Limit                     0x00025258   Number         0  anon$$obj.o(Region$$Table)
    __ctype                                  0x00025281   Data           0  lc_ctype_c.o(locale$$data)
    Rs232ProtocolHandler                     0x40000000   Data           4  main.o(.data)
    key_enable                               0x40000004   Data           1  key_task.o(.data)
    panel_key_value                          0x40000006   Data           2  key_task.o(.data)
    encoder_flag                             0x40000008   Data           1  key_task.o(.data)
    encoder_key                              0x40000009   Data           1  key_task.o(.data)
    strFl                                    0x40000020   Data           3  menu_tbl.o(.data)
    strCen                                   0x40000023   Data           4  menu_tbl.o(.data)
    strFr                                    0x40000027   Data           3  menu_tbl.o(.data)
    strSr                                    0x4000002a   Data           3  menu_tbl.o(.data)
    strSbr                                   0x4000002d   Data           4  menu_tbl.o(.data)
    strSbl                                   0x40000031   Data           4  menu_tbl.o(.data)
    strSl                                    0x40000035   Data           3  menu_tbl.o(.data)
    strSw                                    0x40000038   Data           3  menu_tbl.o(.data)
    strListenProfile                         0x4000003b   Data          19  menu_tbl.o(.data)
    strInput                                 0x4000004e   Data           7  menu_tbl.o(.data)
    strZone2                                 0x40000055   Data           7  menu_tbl.o(.data)
    strOther                                 0x4000005c   Data          18  menu_tbl.o(.data)
    strOn                                    0x4000006e   Data           3  menu_tbl.o(.data)
    strOff                                   0x40000071   Data           4  menu_tbl.o(.data)
    strBack                                  0x40000075   Data           5  menu_tbl.o(.data)
    strGotoMain                              0x4000007a   Data          15  menu_tbl.o(.data)
    strAssignedInput                         0x40000089   Data          16  menu_tbl.o(.data)
    strChangeInputNames                      0x40000099   Data          19  menu_tbl.o(.data)
    strSetAnalogInLevel                      0x400000ac   Data          20  menu_tbl.o(.data)
    strSetAnalogInConfig                     0x400000c0   Data          21  menu_tbl.o(.data)
    strHDMIinAudio                           0x400000d5   Data          18  menu_tbl.o(.data)
    opCrossOver                              0x400000e8   Data          96  menu_tbl.o(.data)
    opAssignedIput                           0x40000148   Data           8  menu_tbl.o(.data)
    opChangeInputNames                       0x40000150   Data           8  menu_tbl.o(.data)
    opSetAnalogInLevel                       0x40000158   Data           8  menu_tbl.o(.data)
    opSetAnalogInConfig                      0x40000160   Data           8  menu_tbl.o(.data)
    opSetHDMIInAudio                         0x40000168   Data           8  menu_tbl.o(.data)
    opListenProfilePage                      0x40000170   Data           8  menu_tbl.o(.data)
    opMovieSpeaker                           0x40000178   Data           8  menu_tbl.o(.data)
    opMusicSpeaker                           0x40000180   Data           8  menu_tbl.o(.data)
    opSpkConfigPage                          0x40000188   Data           8  menu_tbl.o(.data)
    opSpkDistancePage                        0x40000190   Data           8  menu_tbl.o(.data)
    opSpkBalancePage                         0x40000198   Data           8  menu_tbl.o(.data)
    opSpkCrossoverPage                       0x400001a0   Data           8  menu_tbl.o(.data)
    opSpkEqPage                              0x400001a8   Data           8  menu_tbl.o(.data)
    opSpkPhasePage                           0x400001b0   Data           8  menu_tbl.o(.data)
    opSpkConfigPage_music                    0x400001b8   Data           8  menu_tbl.o(.data)
    opSpkDistancePage_music                  0x400001c0   Data           8  menu_tbl.o(.data)
    opSpkBalancePage_music                   0x400001c8   Data           8  menu_tbl.o(.data)
    opSpkCrossoverPage_music                 0x400001d0   Data           8  menu_tbl.o(.data)
    opSpkEqPage_music                        0x400001d8   Data           8  menu_tbl.o(.data)
    opSpkPhasePage_music                     0x400001e0   Data           8  menu_tbl.o(.data)
    opSpkPanoramaPage_music                  0x400001e8   Data           8  menu_tbl.o(.data)
    opMainPage                               0x400001f0   Data           8  menu_tbl.o(.data)
    opZone2Page                              0x400001f8   Data           8  menu_tbl.o(.data)
    opCrossOverPage                          0x40000200   Data           8  menu_tbl.o(.data)
    opDelayPage                              0x40000208   Data           8  menu_tbl.o(.data)
    opAvSynPage                              0x40000210   Data           8  menu_tbl.o(.data)
    opBalancePage                            0x40000218   Data           8  menu_tbl.o(.data)
    opInputPage                              0x40000220   Data           8  menu_tbl.o(.data)
    opHDMIPage                               0x40000228   Data           8  menu_tbl.o(.data)
    opOtherPage                              0x40000230   Data           8  menu_tbl.o(.data)
    opSignalPage                             0x40000238   Data           8  menu_tbl.o(.data)
    opLogoPage                               0x40000240   Data           8  menu_tbl.o(.data)
    opPasswordPage                           0x40000248   Data           8  menu_tbl.o(.data)
    strMovieSpeaker                          0x40000250   Data           9  menu_tbl.o(.data)
    strMusicSpeaker                          0x40000259   Data           9  menu_tbl.o(.data)
    strMovieSpeakerSetting                   0x40000262   Data          18  menu_tbl.o(.data)
    strMusicSpeakerSetting                   0x40000274   Data          18  menu_tbl.o(.data)
    ListenProfileItem                        0x40000288   Data          60  menu_tbl.o(.data)
    strSetSpeakerConfig                      0x400002c4   Data          19  menu_tbl.o(.data)
    strSetDistance                           0x400002d7   Data          13  menu_tbl.o(.data)
    strSetBalance                            0x400002e4   Data          12  menu_tbl.o(.data)
    strSetCrossoverPoints                    0x400002f0   Data          21  menu_tbl.o(.data)
    strSetRoomEq                             0x40000305   Data          12  menu_tbl.o(.data)
    strSetSpeakerPhase                       0x40000311   Data          18  menu_tbl.o(.data)
    MovieSpeakerItem                         0x40000324   Data         140  menu_tbl.o(.data)
    strSetSpeakerConfig_music                0x400003b0   Data          19  menu_tbl.o(.data)
    strSetDistance_music                     0x400003c3   Data          13  menu_tbl.o(.data)
    strSetBalance_music                      0x400003d0   Data          12  menu_tbl.o(.data)
    strSetCrossoverPoints_music              0x400003dc   Data          21  menu_tbl.o(.data)
    strSetRoomEq_music                       0x400003f1   Data          12  menu_tbl.o(.data)
    strSetSpeakerPhase_music                 0x400003fd   Data          18  menu_tbl.o(.data)
    strSetPanorama_music                     0x4000040f   Data          18  menu_tbl.o(.data)
    MusicSpeakerItem                         0x40000424   Data         160  menu_tbl.o(.data)
    SpkConfigOption                          0x400004c4   Data          16  menu_tbl.o(.data)
    SpkConfigItem                            0x400004d4   Data         180  menu_tbl.o(.data)
    SpkConfigItem_Music                      0x40000588   Data         180  menu_tbl.o(.data)
    SpkDistanceItem                          0x4000063c   Data         180  menu_tbl.o(.data)
    SpkDistanceItem_Music                    0x400006f0   Data         180  menu_tbl.o(.data)
    OpTestMode                               0x400007a4   Data          24  menu_tbl.o(.data)
    SpkSetBalanceItem                        0x400007bc   Data         200  menu_tbl.o(.data)
    SpkSetBalanceItem_Music                  0x40000884   Data         200  menu_tbl.o(.data)
    SpkSetCrossoverPointsItem                0x4000094c   Data         180  menu_tbl.o(.data)
    SpkSetCrossoverPointsItem_Music          0x40000a00   Data         180  menu_tbl.o(.data)
    SpkSetRoomEqItem                         0x40000ab4   Data        1620  menu_tbl.o(.data)
    SpkSetRoomEqItem_Music                   0x40001108   Data        1620  menu_tbl.o(.data)
    SpkPhaseOption                           0x4000175c   Data          16  menu_tbl.o(.data)
    SpkSetSpeakerPhaseItem                   0x4000176c   Data         180  menu_tbl.o(.data)
    SpkSetSpeakerPhaseItem_Music             0x40001820   Data         180  menu_tbl.o(.data)
    strDimension                             0x400018d4   Data          10  menu_tbl.o(.data)
    strPanorama                              0x400018de   Data           9  menu_tbl.o(.data)
    strWidth                                 0x400018e7   Data           6  menu_tbl.o(.data)
    strDelay                                 0x400018ed   Data           6  menu_tbl.o(.data)
    SpkDimensionOption                       0x400018f4   Data          56  menu_tbl.o(.data)
    SpkPanoramaOption                        0x4000192c   Data          16  menu_tbl.o(.data)
    SpkWidthOption                           0x4000193c   Data          64  menu_tbl.o(.data)
    SpkDelayOption                           0x4000197c   Data         128  menu_tbl.o(.data)
    SpkSetSpeakerPanoramaItem_Music          0x400019fc   Data         100  menu_tbl.o(.data)
    strInput7CH1                             0x40001a60   Data           7  menu_tbl.o(.data)
    strInput1                                0x40001a67   Data           7  menu_tbl.o(.data)
    strInput2                                0x40001a6e   Data           7  menu_tbl.o(.data)
    strInput3                                0x40001a75   Data           7  menu_tbl.o(.data)
    strInput4                                0x40001a7c   Data           7  menu_tbl.o(.data)
    strInput5                                0x40001a83   Data           7  menu_tbl.o(.data)
    strInput6                                0x40001a8a   Data           7  menu_tbl.o(.data)
    strInput7                                0x40001a91   Data           7  menu_tbl.o(.data)
    strInput8                                0x40001a98   Data           7  menu_tbl.o(.data)
    strInputHDM1                             0x40001a9f   Data           7  menu_tbl.o(.data)
    strInputHDM2                             0x40001aa6   Data           7  menu_tbl.o(.data)
    strInputHDM3                             0x40001aad   Data           7  menu_tbl.o(.data)
    strInputHDM4                             0x40001ab4   Data           7  menu_tbl.o(.data)
    strarcchannel                            0x40001abb   Data           9  menu_tbl.o(.data)
    strInputTuner                            0x40001ac4   Data           6  menu_tbl.o(.data)
    InputItem                                0x40001acc   Data         100  menu_tbl.o(.data)
    Input1Option                             0x40001b30   Data          16  menu_tbl.o(.data)
    Input2Option                             0x40001b40   Data          24  menu_tbl.o(.data)
    Input3Option                             0x40001b58   Data          24  menu_tbl.o(.data)
    Input4Option                             0x40001b70   Data          24  menu_tbl.o(.data)
    Input5Option                             0x40001b88   Data          24  menu_tbl.o(.data)
    Input6Option                             0x40001ba0   Data          24  menu_tbl.o(.data)
    Input7Option                             0x40001bb8   Data          24  menu_tbl.o(.data)
    Input8Option                             0x40001bd0   Data          24  menu_tbl.o(.data)
    AssignedInputItem                        0x40001be8   Data         180  menu_tbl.o(.data)
    InputNameItem                            0x40001c9c   Data         300  menu_tbl.o(.data)
    AnalogInLevelItem                        0x40001dc8   Data         180  menu_tbl.o(.data)
    AnalogInOption                           0x40001e7c   Data          16  menu_tbl.o(.data)
    AnalogInConfigItem                       0x40001e8c   Data         220  menu_tbl.o(.data)
    strHDMI1                                 0x40001f68   Data           6  menu_tbl.o(.data)
    strHDMI2                                 0x40001f6e   Data           6  menu_tbl.o(.data)
    strHDMI3                                 0x40001f74   Data           6  menu_tbl.o(.data)
    strHDMI4                                 0x40001f7a   Data           6  menu_tbl.o(.data)
    HDMIInAudioOption                        0x40001f80   Data          16  menu_tbl.o(.data)
    HDMIInAudioItem                          0x40001f90   Data         100  menu_tbl.o(.data)
    opZONE2OUT                               0x40001ff4   Data         128  menu_tbl.o(.data)
    Zone2Item                                0x40002074   Data          60  menu_tbl.o(.data)
    strSetMaxVolume                          0x400020b0   Data          15  menu_tbl.o(.data)
    strLate                                  0x400020bf   Data           5  menu_tbl.o(.data)
    strBright                                0x400020c4   Data           7  menu_tbl.o(.data)
    strPassword                              0x400020cb   Data           9  menu_tbl.o(.data)
    strHDMIAudioOut                          0x400020d4   Data          15  menu_tbl.o(.data)
    strSetZ1MasterVolume                     0x400020e3   Data          17  menu_tbl.o(.data)
    strSetZ2MasterVolume                     0x400020f4   Data          17  menu_tbl.o(.data)
    strSetCDPureAudio                        0x40002105   Data          14  menu_tbl.o(.data)
    strPasswordMode                          0x40002113   Data          14  menu_tbl.o(.data)
    strPasswordChange                        0x40002121   Data           7  menu_tbl.o(.data)
    strAutoInputSeek                         0x40002128   Data          16  menu_tbl.o(.data)
    strIrControls                            0x40002138   Data          12  menu_tbl.o(.data)
    strZone2IrControls                       0x40002144   Data          15  menu_tbl.o(.data)
    strTriggers                              0x40002153   Data          10  menu_tbl.o(.data)
    strTriggers1                             0x4000215d   Data          10  menu_tbl.o(.data)
    strTriggers2                             0x40002167   Data          10  menu_tbl.o(.data)
    strRestoreDefault                        0x40002171   Data          16  menu_tbl.o(.data)
    strAvSyncDelay                           0x40002181   Data          14  menu_tbl.o(.data)
    strEditCustomName                        0x4000218f   Data          17  menu_tbl.o(.data)
    opLate                                   0x400021a0   Data          24  menu_tbl.o(.data)
    opPassword                               0x400021b8   Data          16  menu_tbl.o(.data)
    opHDMIAudioOut                           0x400021c8   Data          16  menu_tbl.o(.data)
    opCDPureAudio                            0x400021d8   Data          16  menu_tbl.o(.data)
    opBright                                 0x400021e8   Data          32  menu_tbl.o(.data)
    opAutoInputSeek                          0x40002208   Data          16  menu_tbl.o(.data)
    opIrControls                             0x40002218   Data          24  menu_tbl.o(.data)
    opIrMode                                 0x40002230   Data          16  menu_tbl.o(.data)
    opTriggers                               0x40002240   Data          24  menu_tbl.o(.data)
    OtherItem                                0x40002258   Data         400  menu_tbl.o(.data)
    PasswordItem                             0x400023e8   Data          60  menu_tbl.o(.data)
    EditCustomNameItem                       0x40002424   Data          40  menu_tbl.o(.data)
    strExit                                  0x4000244c   Data          16  menu_tbl.o(.data)
    MainPageItem                             0x4000245c   Data         100  menu_tbl.o(.data)
    StrSetupMenu                             0x400024c0   Data          11  menu_tbl.o(.data)
    msg_queue_rear                           0x400024cc   Data           2  message.o(.data)
    msg_queue_front                          0x400024ce   Data           2  message.o(.data)
    cur_dis_unit                             0x400024d0   Data           1  rs232_protocol.o(.data)
    msgs                                     0x400024d4   Data         780  rs232_protocol.o(.data)
    spk_name_fl                              0x400027e4   Data           8  setup_func.o(.data)
    spk_name_c                               0x400027ec   Data           8  setup_func.o(.data)
    spk_name_fr                              0x400027f4   Data           8  setup_func.o(.data)
    spk_name_sl                              0x400027fc   Data           8  setup_func.o(.data)
    spk_name_sr                              0x40002804   Data           8  setup_func.o(.data)
    spk_name_sbl                             0x4000280c   Data           8  setup_func.o(.data)
    spk_name_sbr                             0x40002814   Data           8  setup_func.o(.data)
    spk_name_sw                              0x4000281c   Data           8  setup_func.o(.data)
    spk_fl                                   0x40002824   Data          60  setup_func.o(.data)
    spk_fr                                   0x40002860   Data          60  setup_func.o(.data)
    spk_sl                                   0x4000289c   Data          60  setup_func.o(.data)
    spk_sr                                   0x400028d8   Data          60  setup_func.o(.data)
    spk_sbl                                  0x40002914   Data          60  setup_func.o(.data)
    spk_sbr                                  0x40002950   Data          60  setup_func.o(.data)
    spk_cen                                  0x4000298c   Data          60  setup_func.o(.data)
    spk_sw                                   0x400029c8   Data          60  setup_func.o(.data)
    speaker_table                            0x40002a04   Data          36  setup_func.o(.data)
    balance_mode                             0x40002a28   Data           1  setup_func.o(.data)
    pwd_mode                                 0x40002a29   Data           1  setup_func.o(.data)
    zone2_ir_mode                            0x40002a2a   Data           1  setup_func.o(.data)
    rear_ir_mode                             0x40002a2b   Data           1  setup_func.o(.data)
    SystemTriggerMode                        0x40002a2c   Data           1  setup_func.o(.data)
    SystemTriggerMode1                       0x40002a2d   Data           1  setup_func.o(.data)
    SystemTriggerMode2                       0x40002a2e   Data           1  setup_func.o(.data)
    CD_Pure_Audio                            0x40002a2f   Data           1  setup_func.o(.data)
    HDMI_Audio_Out                           0x40002a30   Data           1  setup_func.o(.data)
    InNameChanging                           0x40002a34   Data           1  setup_menu.o(.data)
    FlashPosition                            0x40002a35   Data           1  setup_menu.o(.data)
    InPwdInput                               0x40002a36   Data           1  setup_menu.o(.data)
    PwdCounter                               0x40002a37   Data           1  setup_menu.o(.data)
    PwdInputState                            0x40002a38   Data           1  setup_menu.o(.data)
    current_pwd                              0x40002a3a   Data           2  setup_menu.o(.data)
    new_pwd                                  0x40002a3c   Data           2  setup_menu.o(.data)
    user_pwd                                 0x40002a3e   Data           2  setup_menu.o(.data)
    Movie_Music_Speaker_Flag                 0x40002a40   Data           1  setup_menu.o(.data)
    bCusrPos                                 0x40002a41   Data           1  setup_menu.o(.data)
    bCurOptionIndex                          0x40002a42   Data           1  setup_menu.o(.data)
    disp_mode                                0x40002a46   Data           1  setup_menu.o(.data)
    pMenuCurPage                             0x40002a4c   Data           4  setup_menu.o(.data)
    pMenuCurItem                             0x40002a50   Data           4  setup_menu.o(.data)
    tasks                                    0x40002a54   Data          24  task.o(.data)
    current_tid                              0x40002a6c   Data           1  task.o(.data)
    need_refresh_vfd                         0x40002ac4   Data           1  vfd_disp.o(.data)
    need_refresh_dimer                       0x40002ac5   Data           1  vfd_disp.o(.data)
    temp_dimer_time                          0x40002ac8   Data           2  zone1_task.o(.data)
    Dolby2ch_Flag                            0x40002aca   Data           1  zone1_task.o(.data)
    SrcNameInput1                            0x40002acb   Data          13  zone1_task.o(.data)
    SrcNameInput2                            0x40002ad8   Data          13  zone1_task.o(.data)
    SrcNameInput3                            0x40002ae5   Data          13  zone1_task.o(.data)
    SrcNameInput4                            0x40002af2   Data          13  zone1_task.o(.data)
    SrcNameInput5                            0x40002aff   Data          13  zone1_task.o(.data)
    SrcNameInput6                            0x40002b0c   Data          13  zone1_task.o(.data)
    SrcNameInput7                            0x40002b19   Data          13  zone1_task.o(.data)
    SrcNameInput8                            0x40002b26   Data          13  zone1_task.o(.data)
    SrcNameCh71                              0x40002b33   Data          13  zone1_task.o(.data)
    SrcNameInputHDMI1                        0x40002b40   Data          13  zone1_task.o(.data)
    SrcNameInputHDMI2                        0x40002b4d   Data          13  zone1_task.o(.data)
    SrcNameInputHDMI3                        0x40002b5a   Data          13  zone1_task.o(.data)
    SrcNameInputHDMI4                        0x40002b67   Data          13  zone1_task.o(.data)
    SrcNameInputARC                          0x40002b74   Data          13  zone1_task.o(.data)
    SrcNameInputHDMI                         0x40002b81   Data          13  zone1_task.o(.data)
    DefaultName                              0x40002b90   Data          60  zone1_task.o(.data)
    SrcName                                  0x40002bcc   Data          60  zone1_task.o(.data)
    _cur_key                                 0x40002c08   Data           1  zone1_task.o(.data)
    ch_name                                  0x40002c0c   Data          12  zone1_task.o(.data)
    HDRadio_FM_Flag                          0x40002c18   Data           1  zone1_task.o(.data)
    HDRadio_HDFM_Flag                        0x40002c19   Data           1  zone1_task.o(.data)
    DSP_HDMI_Setting_Flag                    0x40002c1a   Data           1  zone1_task.o(.data)
    Zone1SrcName                             0x40002c20   Data           4  zone1_task.o(.data)
    Stream                                   0x40002c25   Data           1  zone1_task.o(.data)
    Zone2SrcName                             0x40002c28   Data           4  zone2_task.o(.data)
    auto_sound_testing                       0x40002c2c   Data           1  auto_sound.o(.data)
    temp_buffer                              0x40002c2d   Data          21  auto_sound.o(.data)
    current_test_spk                         0x40002c42   Data           1  auto_sound.o(.data)
    bar_counter                              0x40002c43   Data           1  auto_sound.o(.data)
    NameAutoSoundSetup                       0x40002c44   Data          21  auto_sound.o(.data)
    NameEnterStart                           0x40002c59   Data          18  auto_sound.o(.data)
    NameEnterNow                             0x40002c6b   Data          18  auto_sound.o(.data)
    NameConnectMic                           0x40002c7d   Data          21  auto_sound.o(.data)
    NameSpeakerCheck                         0x40002c92   Data          21  auto_sound.o(.data)
    NameSetDistance                          0x40002ca7   Data          21  auto_sound.o(.data)
    NameSetBalance                           0x40002cbc   Data          21  auto_sound.o(.data)
    NameSetCrossoverPoint                    0x40002cd1   Data          21  auto_sound.o(.data)
    NameSetRoomEq                            0x40002ce6   Data          21  auto_sound.o(.data)
    NameSetSpeakerPhase                      0x40002cfb   Data          21  auto_sound.o(.data)
    irc_setupconfig                          0x40002d10   Data           8  auto_sound.o(.data)
    irc_speakercheck                         0x40002d18   Data           8  auto_sound.o(.data)
    irc_setdistance                          0x40002d20   Data           8  auto_sound.o(.data)
    irc_setbalance                           0x40002d28   Data           8  auto_sound.o(.data)
    irc_setroomeq                            0x40002d30   Data           8  auto_sound.o(.data)
    irc_setcrossoverpoint                    0x40002d38   Data           8  auto_sound.o(.data)
    irc_setspeakerphase                      0x40002d40   Data           8  auto_sound.o(.data)
    current_step                             0x40002d48   Data           1  auto_sound.o(.data)
    IrcTaskTable                             0x40002d4c   Data          32  auto_sound.o(.data)
    bak_id                                   0x40002d7c   Data           1  auto_sound.o(.data)
    HD_Radio_Power_Flag                      0x40002d80   Data           1  radio_task.o(.data)
    Tuner_Text_Disp_Flag                     0x40002d81   Data           1  radio_task.o(.data)
    Tuner_Signal_Quality                     0x40002d82   Data           1  radio_task.o(.data)
    Tuner_Freq_H                             0x40002d84   Data           4  radio_task.o(.data)
    Tuner_Freq_L                             0x40002d88   Data           4  radio_task.o(.data)
    Artist_len                               0x40002d8c   Data           1  radio_task.o(.data)
    Title_len                                0x40002d8d   Data           1  radio_task.o(.data)
    currProgram                              0x40002d8e   Data           1  radio_task.o(.data)
    da_status                                0x40002d8f   Data           1  radio_task.o(.data)
    currSeekLevel                            0x40002d90   Data           4  radio_task.o(.data)
    stereo_mode                              0x40002d94   Data           1  radio_task.o(.data)
    current_st_mode                          0x40002d95   Data           1  radio_task.o(.data)
    DEFAULT_AM_FREQ                          0x40002d98   Data           4  radio_task.o(.data)
    MAX_AM_FREQ                              0x40002d9c   Data           4  radio_task.o(.data)
    MIN_AM_FREQ                              0x40002da0   Data           4  radio_task.o(.data)
    DEFAULT_HDAM_FREQ                        0x40002da4   Data           4  radio_task.o(.data)
    MAX_HDAM_FREQ                            0x40002da8   Data           4  radio_task.o(.data)
    MIN_HDAM_FREQ                            0x40002dac   Data           4  radio_task.o(.data)
    DEFAULT_FM_FREQ                          0x40002db0   Data           4  radio_task.o(.data)
    MAX_FM_FREQ                              0x40002db4   Data           4  radio_task.o(.data)
    MIN_FM_FREQ                              0x40002db8   Data           4  radio_task.o(.data)
    DEFAULT_HDFM_FREQ                        0x40002dbc   Data           4  radio_task.o(.data)
    MAX_HDFM_FREQ                            0x40002dc0   Data           4  radio_task.o(.data)
    MIN_HDFM_FREQ                            0x40002dc4   Data           4  radio_task.o(.data)
    temp_radio_time                          0x40002dc8   Data           2  radio_task.o(.data)
    current_radio_mode                       0x40002dca   Data           1  radio_task.o(.data)
    system_freq                              0x40002dcc   Data           4  radio_task.o(.data)
    fm_freq                                  0x40002dd0   Data           4  radio_task.o(.data)
    am_freq                                  0x40002dd4   Data           4  radio_task.o(.data)
    HDFM_freq                                0x40002dd8   Data           4  radio_task.o(.data)
    HDAM_freq                                0x40002ddc   Data           4  radio_task.o(.data)
    system_position                          0x40002de0   Data           1  radio_task.o(.data)
    am_position                              0x40002de1   Data           1  radio_task.o(.data)
    fm_position                              0x40002de2   Data           1  radio_task.o(.data)
    HDFM_position                            0x40002de3   Data           1  radio_task.o(.data)
    HDAM_position                            0x40002de4   Data           1  radio_task.o(.data)
    current_radio_status                     0x40002de5   Data           1  radio_task.o(.data)
    digi_key_value                           0x40002de6   Data           1  radio_task.o(.data)
    CD_NO                                    0x40002df4   Data           4  radio_task.o(.data)
    am_preset_base                           0x40002df8   Data           1  radio_task.o(.data)
    HDFM_preset_base                         0x40002df9   Data           1  radio_task.o(.data)
    HDAM_preset_base                         0x40002dfa   Data           1  radio_task.o(.data)
    current_save_position                    0x40002dfb   Data           1  radio_task.o(.data)
    last_radio_status                        0x40002dfc   Data           1  radio_task.o(.data)
    rec_reply_count                          0x40002e00   Data           4  radio_task.o(.data)
    tuner_buffer                             0x40002e04   Data          12  uart.o(.data)
    tuner_queue_pointer                      0x40002e10   Data           4  uart.o(.data)
    protocol_buffer                          0x40002e14   Data          12  uart.o(.data)
    protocol_queue_pointer                   0x40002e20   Data           4  uart.o(.data)
    eint3_timer_cnter                        0x40002e2c   Data           1  ioport.o(.data)
    eint2_timer_cnter                        0x40002e2d   Data           1  ioport.o(.data)
    eint1_timer_cnter                        0x40002e2e   Data           1  ioport.o(.data)
    eint0_timer_cnter                        0x40002e2f   Data           1  ioport.o(.data)
    front_enable_zone1_ir                    0x40002e30   Data           1  ioport.o(.data)
    front_enable_zone2_ir                    0x40002e31   Data           1  ioport.o(.data)
    zone1_ir_enable                          0x40002e44   Data           1  ir.o(.data)
    zone2_ir_enable                          0x40002e45   Data           1  ir.o(.data)
    remote_repeat                            0x40002e46   Data           8  ir.o(.data)
    zone1_codeIR                             0x40002e5d   Data           1  ir.o(.data)
    OthersystemIR                            0x40002e5e   Data           1  ir.o(.data)
    zone2_codeIR                             0x40002e5f   Data           1  ir.o(.data)
    OthersystemIR2                           0x40002e60   Data           1  ir.o(.data)
    psm_8416_time_tick                       0x40002e64   Data           1  timer.o(.data)
    rs232_timer                              0x40002e66   Data           2  timer.o(.data)
    Tuner_Text_Count                         0x40002e68   Data           1  timer.o(.data)
    Text_Update_Flag                         0x40002e69   Data           1  timer.o(.data)
    HDMI_tick                                0x40002e6a   Data           1  timer.o(.data)
    Hdmi_Stream_tick                         0x40002e6b   Data           1  timer.o(.data)
    DSD_Stream_tick                          0x40002e6c   Data           1  timer.o(.data)
    DSP_Busy_tick                            0x40002e6d   Data           1  timer.o(.data)
    radio_time_tick                          0x40002e6e   Data           1  timer.o(.data)
    system_timer_flag                        0x40002e6f   Data           1  timer.o(.data)
    pcm20_delay_timer                        0x40002e70   Data           1  timer.o(.data)
    pcm20_pill_timer                         0x40002e71   Data           1  timer.o(.data)
    dsp_time_tick                            0x40002e72   Data           1  timer.o(.data)
    main_volume                              0x40002e90   Data           4  volume.o(.data)
    Analog_Input_To_Dsp_Flag                 0x40002e9e   Data           1  channel.o(.data)
    Pre_value                                0x40002e9f   Data           1  hdmi.o(.data)
    debug_flag                               0x40002ea2   Data           1  tuner_new.o(.data)
    currBand                                 0x40002ea3   Data           1  tuner_new.o(.data)
    btText_AB_Flag                           0x40002ea7   Data           1  rbds.o(.data)
    btTextSegAddr                            0x40002ea8   Data           1  rbds.o(.data)
    bRBDSDataAvail                           0x40002ea9   Data           1  rbds.o(.data)
    bRBDSEnabled                             0x40002eaa   Data           1  rbds.o(.data)
    iInfoWord1                               0x40002eae   Data           2  rbds.o(.data)
    iInfoWord2                               0x40002eb0   Data           2  rbds.o(.data)
    iInfoWord3                               0x40002eb2   Data           2  rbds.o(.data)
    iInfoWord4                               0x40002eb4   Data           2  rbds.o(.data)
    btGroupCode                              0x40002eb6   Data           1  rbds.o(.data)
    btAB                                     0x40002eb7   Data           1  rbds.o(.data)
    btTP_Enabled                             0x40002eb8   Data           1  rbds.o(.data)
    btPTY                                    0x40002eb9   Data           1  rbds.o(.data)
    btTA_Flag                                0x40002eba   Data           1  rbds.o(.data)
    btMS_Flag                                0x40002ebb   Data           1  rbds.o(.data)
    btDI_Flag                                0x40002ebc   Data           1  rbds.o(.data)
    btSegAddr                                0x40002ebd   Data           1  rbds.o(.data)
    dsp_power_flag                           0x40002ebe   Data           1  dsp_task.o(.data)
    CD_8416_channel                          0x40002ebf   Data           1  dsp_task.o(.data)
    current_ac3_stream                       0x40002ec4   Data           8  dsp_task.o(.data)
    current_dts_stream                       0x40002ecc   Data           6  dsp_task.o(.data)
    PreDspMode                               0x40002ed4   Data           1  dspdrv.o(.data)
    compression_mode                         0x40002ed5   Data           1  dspdrv.o(.data)
    enable_eq                                0x40002ed6   Data           1  dspdrv.o(.data)
    enable_bass                              0x40002ed7   Data           1  dspdrv.o(.data)
    enable_delay                             0x40002ed8   Data           1  dspdrv.o(.data)
    system_spk_mode                          0x40002ed9   Data           8  dspdrv.o(.data)
    CurrentSampleFreq                        0x40002ee1   Data           1  dspdrv.o(.data)
    CurrentIputPort                          0x40002ee2   Data           1  dspdrv.o(.data)
    stream_type                              0x40002ee3   Data           1  dspdrv.o(.data)
    dsp_force_change_code                    0x40002ee4   Data           1  dspdrv.o(.data)
    DolbyType                                0x40002ee5   Data           1  dspdrv.o(.data)
    DtsType                                  0x40002ee6   Data           1  dspdrv.o(.data)
    softmute_flag                            0x40002ee7   Data           1  dspdrv.o(.data)
    last_stream                              0x40002ee8   Data           4  dspdrv.o(.data)
    Pre_AC3_Type                             0x40002eec   Data           1  dspdrv.o(.data)
    Pre_TureHD_Type                          0x40002eed   Data           1  dspdrv.o(.data)
    Pre_DTS_Type                             0x40002eee   Data           1  dspdrv.o(.data)
    Pre_DTS_HD_Type                          0x40002eef   Data           1  dspdrv.o(.data)
    dsp_repower_flag                         0x40002ef0   Data           1  dspdrv.o(.data)
    DSDType                                  0x40002ef1   Data           1  dspdrv.o(.data)
    PcmType                                  0x40002ef2   Data           1  dspdrv.o(.data)
    pMsgQueue                                0x40002ef4   Data        1800  message.o(.bss)
    recv_buffer                              0x400035fc   Data          20  rs232_protocol.o(.bss)
    AnalogInLevel                            0x40003610   Data          10  setup_func.o(.bss)
    AnalogInMode                             0x4000361a   Data          10  setup_func.o(.bss)
    C11Logo                                  0x40003624   Data          21  zone1_task.o(.bss)
    sys_flag                                 0x4000363a   Data          28  zone1_task.o(.bss)
    Artist                                   0x40003656   Data          65  radio_task.o(.bss)
    Title                                    0x40003697   Data          65  radio_task.o(.bss)
    Tuner_Text_Disp_Buffer                   0x400036d8   Data          20  radio_task.o(.bss)
    tuner_array                              0x400036ec   Data         256  uart.o(.bss)
    protocol_array                           0x400037ec   Data         256  uart.o(.bss)
    balance                                  0x400038ec   Data          32  volume.o(.bss)
    idmdata                                  0x4000390c   Data         256  tuner_new.o(.bss)
    dsp_bass_corner                          0x40003a0c   Data          12  bassmanager.o(.bss)
    dsp_delay_time                           0x40003a18   Data          16  delaymanager.o(.bss)
    dsp_delay_music_time                     0x40003a28   Data          16  delaymanager.o(.bss)
    dsp_buf                                  0x40003a38   Data         128  dspdrv.o(.bss)
    dsp_eq_table                             0x40003ab8   Data         320  eq_manager.o(.bss)
    dsp_eq_music_table                       0x40003bf8   Data         320  eq_manager.o(.bss)
    __libspace_start                         0x40003d38   Data          96  libspace.o(.bss)
    __temporary_stack_top$libspace           0x40003d98   Data           0  libspace.o(.bss)



==============================================================================

Memory Map of the image

  Image Entry point : 0x0000016c

  Load Region LR_IROM1 (Base: 0x00000000, Size: 0x00028278, Max: 0x00040000, ABSOLUTE, COMPRESSED[0x00026618])

    Execution Region ER_IROM1 (Base: 0x00000000, Size: 0x00025384, Max: 0x00040000, ABSOLUTE)

    Base Addr    Size         Type   Attr      Idx    E Section Name        Object

    0x00000000   0x0000016c   Code   RO            3    RESET               lpc2300.o
    0x0000016c   0x00000008   Code   RO         1563  * !!!main             c_t.l(__main.o)
    0x00000174   0x0000003c   Code   RO         1969    !!!scatter          c_t.l(__scatter.o)
    0x000001b0   0x0000005c   Code   RO         1967    !!dczerorl2         c_t.l(__dczerorl2.o)
    0x0000020c   0x0000002c   Code   RO         1971    !!handler_zi        c_t.l(__scatter_zi.o)
    0x00000238   0x00000004   Ven    RO         1532    .ARM.Collect$$_printf_percent$$00000000  c_t.l(_printf_percent.o)
    0x0000023c   0x00000000   Code   RO         1532    .ARM.Collect$$_printf_percent$$00000000  c_t.l(_printf_percent.o)
    0x0000023c   0x00000008   Code   RO         1686    .ARM.Collect$$_printf_percent$$00000001  c_t.l(_printf_n.o)
    0x00000244   0x00000008   Code   RO         1688    .ARM.Collect$$_printf_percent$$00000002  c_t.l(_printf_p.o)
    0x0000024c   0x00000008   Code   RO         1531    .ARM.Collect$$_printf_percent$$00000003  c_t.l(_printf_f.o)
    0x00000254   0x00000008   Code   RO         1692    .ARM.Collect$$_printf_percent$$00000004  c_t.l(_printf_e.o)
    0x0000025c   0x00000008   Code   RO         1693    .ARM.Collect$$_printf_percent$$00000005  c_t.l(_printf_g.o)
    0x00000264   0x00000008   Code   RO         1694    .ARM.Collect$$_printf_percent$$00000006  c_t.l(_printf_a.o)
    0x0000026c   0x0000000c   Code   RO         1699    .ARM.Collect$$_printf_percent$$00000007  c_t.l(_printf_ll.o)
    0x00000278   0x00000008   Code   RO         1690    .ARM.Collect$$_printf_percent$$00000008  c_t.l(_printf_i.o)
    0x00000280   0x00000008   Code   RO         1530    .ARM.Collect$$_printf_percent$$00000009  c_t.l(_printf_d.o)
    0x00000288   0x00000008   Code   RO         1691    .ARM.Collect$$_printf_percent$$0000000A  c_t.l(_printf_u.o)
    0x00000290   0x00000008   Code   RO         1689    .ARM.Collect$$_printf_percent$$0000000B  c_t.l(_printf_o.o)
    0x00000298   0x00000008   Code   RO         1687    .ARM.Collect$$_printf_percent$$0000000C  c_t.l(_printf_x.o)
    0x000002a0   0x00000008   Code   RO         1696    .ARM.Collect$$_printf_percent$$0000000D  c_t.l(_printf_lli.o)
    0x000002a8   0x00000008   Code   RO         1697    .ARM.Collect$$_printf_percent$$0000000E  c_t.l(_printf_lld.o)
    0x000002b0   0x00000008   Code   RO         1698    .ARM.Collect$$_printf_percent$$0000000F  c_t.l(_printf_llu.o)
    0x000002b8   0x00000008   Code   RO         1703    .ARM.Collect$$_printf_percent$$00000010  c_t.l(_printf_llo.o)
    0x000002c0   0x00000008   Code   RO         1704    .ARM.Collect$$_printf_percent$$00000011  c_t.l(_printf_llx.o)
    0x000002c8   0x0000000c   Code   RO         1700    .ARM.Collect$$_printf_percent$$00000012  c_t.l(_printf_l.o)
    0x000002d4   0x00000008   Code   RO         1684    .ARM.Collect$$_printf_percent$$00000013  c_t.l(_printf_c.o)
    0x000002dc   0x00000008   Code   RO         1685    .ARM.Collect$$_printf_percent$$00000014  c_t.l(_printf_s.o)
    0x000002e4   0x00000008   Code   RO         1701    .ARM.Collect$$_printf_percent$$00000015  c_t.l(_printf_lc.o)
    0x000002ec   0x00000008   Code   RO         1702    .ARM.Collect$$_printf_percent$$00000016  c_t.l(_printf_ls.o)
    0x000002f4   0x00000008   Code   RO         1695    .ARM.Collect$$_printf_percent$$00000017  c_t.l(_printf_percent_end.o)
    0x000002fc   0x00000008   Ven    RO         1836    .ARM.Collect$$libinit$$00000000  c_t.l(libinit.o)
    0x00000304   0x00000002   Code   RO         1836    .ARM.Collect$$libinit$$00000000  c_t.l(libinit.o)
    0x00000306   0x00000000   Code   RO         1838    .ARM.Collect$$libinit$$00000002  c_t.l(libinit2.o)
    0x00000306   0x00000000   Code   RO         1841    .ARM.Collect$$libinit$$00000008  c_t.l(libinit2.o)
    0x00000306   0x00000000   Code   RO         1843    .ARM.Collect$$libinit$$0000000A  c_t.l(libinit2.o)
    0x00000306   0x00000000   Code   RO         1845    .ARM.Collect$$libinit$$0000000C  c_t.l(libinit2.o)
    0x00000306   0x00000006   Code   RO         1846    .ARM.Collect$$libinit$$0000000D  c_t.l(libinit2.o)
    0x0000030c   0x00000000   Code   RO         1848    .ARM.Collect$$libinit$$0000000F  c_t.l(libinit2.o)
    0x0000030c   0x0000000c   Code   RO         1849    .ARM.Collect$$libinit$$00000010  c_t.l(libinit2.o)
    0x00000318   0x00000000   Code   RO         1850    .ARM.Collect$$libinit$$00000011  c_t.l(libinit2.o)
    0x00000318   0x00000000   Code   RO         1852    .ARM.Collect$$libinit$$00000013  c_t.l(libinit2.o)
    0x00000318   0x0000000a   Code   RO         1853    .ARM.Collect$$libinit$$00000014  c_t.l(libinit2.o)
    0x00000322   0x00000000   Code   RO         1854    .ARM.Collect$$libinit$$00000015  c_t.l(libinit2.o)
    0x00000322   0x00000000   Code   RO         1856    .ARM.Collect$$libinit$$00000017  c_t.l(libinit2.o)
    0x00000322   0x00000000   Code   RO         1858    .ARM.Collect$$libinit$$00000019  c_t.l(libinit2.o)
    0x00000322   0x00000000   Code   RO         1860    .ARM.Collect$$libinit$$0000001B  c_t.l(libinit2.o)
    0x00000322   0x00000000   Code   RO         1862    .ARM.Collect$$libinit$$0000001D  c_t.l(libinit2.o)
    0x00000322   0x00000000   Code   RO         1864    .ARM.Collect$$libinit$$0000001F  c_t.l(libinit2.o)
    0x00000322   0x00000000   Code   RO         1866    .ARM.Collect$$libinit$$00000021  c_t.l(libinit2.o)
    0x00000322   0x00000000   Code   RO         1868    .ARM.Collect$$libinit$$00000023  c_t.l(libinit2.o)
    0x00000322   0x00000000   Code   RO         1872    .ARM.Collect$$libinit$$0000002A  c_t.l(libinit2.o)
    0x00000322   0x00000000   Code   RO         1874    .ARM.Collect$$libinit$$0000002C  c_t.l(libinit2.o)
    0x00000322   0x00000000   Code   RO         1876    .ARM.Collect$$libinit$$0000002E  c_t.l(libinit2.o)
    0x00000322   0x00000000   Code   RO         1878    .ARM.Collect$$libinit$$00000030  c_t.l(libinit2.o)
    0x00000322   0x0000000c   Code   RO         1879    .ARM.Collect$$libinit$$00000031  c_t.l(libinit2.o)
    0x0000032e   0x00000002   PAD
    0x00000330   0x00000008   Ven    RO         1933    .ARM.Collect$$libshutdown$$00000000  c_t.l(libshutdown.o)
    0x00000338   0x00000004   Code   RO         1933    .ARM.Collect$$libshutdown$$00000000  c_t.l(libshutdown.o)
    0x0000033c   0x00000000   Code   RO         1952    .ARM.Collect$$libshutdown$$00000003  c_t.l(libshutdown2.o)
    0x0000033c   0x00000000   Code   RO         1955    .ARM.Collect$$libshutdown$$00000006  c_t.l(libshutdown2.o)
    0x0000033c   0x00000000   Code   RO         1958    .ARM.Collect$$libshutdown$$00000009  c_t.l(libshutdown2.o)
    0x0000033c   0x00000000   Code   RO         1960    .ARM.Collect$$libshutdown$$0000000B  c_t.l(libshutdown2.o)
    0x0000033c   0x00000000   Code   RO         1963    .ARM.Collect$$libshutdown$$0000000E  c_t.l(libshutdown2.o)
    0x0000033c   0x00000006   Code   RO         1964    .ARM.Collect$$libshutdown$$0000000F  c_t.l(libshutdown2.o)
    0x00000342   0x00000002   PAD
    0x00000344   0x00000000   Code   RO         1631    .ARM.Collect$$rtentry$$00000000  c_t.l(rtentry.o)
    0x00000344   0x00000000   Code   RO         1740    .ARM.Collect$$rtentry$$00000002  c_t.l(rtentry2.o)
    0x00000344   0x00000008   Code   RO         1752    .ARM.Collect$$rtentry$$00000004  c_t.l(rtentry4.o)
    0x0000034c   0x00000000   Code   RO         1742    .ARM.Collect$$rtentry$$00000009  c_t.l(rtentry2.o)
    0x0000034c   0x00000004   Code   RO         1743    .ARM.Collect$$rtentry$$0000000A  c_t.l(rtentry2.o)
    0x00000350   0x00000000   Code   RO         1745    .ARM.Collect$$rtentry$$0000000C  c_t.l(rtentry2.o)
    0x00000350   0x00000028   Code   RO         1746    .ARM.Collect$$rtentry$$0000000D  c_t.l(rtentry2.o)
    0x00000378   0x00000004   Ven    RO         1882    .ARM.Collect$$rtexit$$00000000  c_t.l(rtexit.o)
    0x0000037c   0x00000004   Code   RO         1882    .ARM.Collect$$rtexit$$00000000  c_t.l(rtexit.o)
    0x00000380   0x00000000   Code   RO         1902    .ARM.Collect$$rtexit$$00000002  c_t.l(rtexit2.o)
    0x00000380   0x00000004   Code   RO         1903    .ARM.Collect$$rtexit$$00000003  c_t.l(rtexit2.o)
    0x00000384   0x00000008   Code   RO         1904    .ARM.Collect$$rtexit$$00000004  c_t.l(rtexit2.o)
    0x0000038c   0x00000020   Code   RO            4    .text               lpc2300.o
    0x000003ac   0x00000114   Code   RO           11    .text               main.o
    0x000004c0   0x000000cc   Code   RO          103    .text               debug.o
    0x0000058c   0x00000008   Ven    RO          136    .text               queue.o
    0x00000594   0x00000164   Code   RO          136    .text               queue.o
    0x000006f8   0x00000084   Code   RO          148    .text               c11_msg_handler.o
    0x0000077c   0x000004cc   Code   RO          179    .text               key_task.o
    0x00000c48   0x00000198   Code   RO          240    .text               message.o
    0x00000de0   0x00007370   Code   RO          256    .text               rs232_protocol.o
    0x00008150   0x00001a1c   Code   RO          321    .text               setup_func.o
    0x00009b6c   0x000019dc   Code   RO          376    .text               setup_menu.o
    0x0000b548   0x00000078   Code   RO          394    .text               task.o
    0x0000b5c0   0x00000008   Ven    RO          412    .text               vfd_disp.o
    0x0000b5c8   0x0000025c   Code   RO          412    .text               vfd_disp.o
    0x0000b824   0x00000008   Ven    RO          432    .text               zone1_task.o
    0x0000b82c   0x000032c4   Code   RO          432    .text               zone1_task.o
    0x0000eaf0   0x000008e0   Code   RO          484    .text               zone2_task.o
    0x0000f3d0   0x0000277c   Code   RO          507    .text               auto_sound.o
    0x00011b4c   0x00002070   Code   RO          562    .text               radio_task.o
    0x00013bbc   0x00000098   Code   RO          610    .text               uart.o
    0x00013c54   0x00000164   Code   RO          611    .text               uart.o
    0x00013db8   0x000001a0   Code   RO          647    .text               cs8416.o
    0x00013f58   0x000003d8   Code   RO          683    .text               dac.o
    0x00014330   0x000000e4   Code   RO          705    .text               eeprom.o
    0x00014414   0x0000057c   Code   RO          723    .text               i2cdrv.o
    0x00014990   0x00000050   Code   RO          737    .text               ic165.o
    0x000149e0   0x00000280   Code   RO          755    .text               ic4094.o
    0x00014c60   0x00000ee0   Code   RO          769    .text               ioport.o
    0x00015b40   0x00000398   Code   RO          770    .text               ioport.o
    0x00015ed8   0x00000008   Ven    RO          807    .text               ir.o
    0x00015ee0   0x000005dc   Code   RO          807    .text               ir.o
    0x000164bc   0x00000164   Code   RO          835    .text               timer.o
    0x00016620   0x000003a0   Code   RO          836    .text               timer.o
    0x000169c0   0x0000010c   Code   RO          878    .text               vfddriver.o
    0x00016acc   0x00000268   Code   RO          896    .text               mas9116.o
    0x00016d34   0x00000278   Code   RO          911    .text               volume.o
    0x00016fac   0x000000d8   Code   RO          935    .text               max335.o
    0x00017084   0x00000674   Code   RO          954    .text               channel.o
    0x000176f8   0x000005f4   Code   RO          973    .text               hdmi.o
    0x00017cec   0x00000258   Code   RO         1004    .text               dsp_spi.o
    0x00017f44   0x000008d8   Code   RO         1020    .text               tuner_new.o
    0x0001881c   0x000003d4   Code   RO         1054    .text               rbds.o
    0x00018bf0   0x000010f0   Code   RO         1096    .text               bassmanager.o
    0x00019ce0   0x00000498   Code   RO         1115    .text               delaymanager.o
    0x0001a178   0x0000029c   Code   RO         1141    .text               dolbymanager.o
    0x0001a414   0x00000320   Code   RO         1155    .text               dolbyprologicii.o
    0x0001a734   0x000003e0   Code   RO         1170    .text               dolbyprologiciix.o
    0x0001ab14   0x000003d4   Code   RO         1185    .text               dsp_task.o
    0x0001aee8   0x000023d8   Code   RO         1235    .text               dspdrv.o
    0x0001d2c0   0x00000a60   Code   RO         1295    .text               eq_manager.o
    0x0001dd20   0x000002c0   Code   RO         1325    .text               irc1_manager.o
    0x0001dfe0   0x00000168   Code   RO         1348    .text               irc2_manager.o
    0x0001e148   0x00000220   Code   RO         1361    .text               os_manager.o
    0x0001e368   0x00000200   Code   RO         1387    .text               signalgenerator.o
    0x0001e568   0x00000274   Code   RO         1452    .text               dolbytruehd.o
    0x0001e7dc   0x00000a64   Code   RO         1466    .text               dsp_api.o
    0x0001f240   0x00000028   Code   RO         1498    .text               c_t.l(c89vsprintf.o)
    0x0001f268   0x0000002c   Code   RO         1500    .text               c_t.l(__2sprintf.o)
    0x0001f294   0x00000056   Code   RO         1506    .text               c_t.l(_printf_pad.o)
    0x0001f2ea   0x00000002   PAD
    0x0001f2ec   0x00000008   Ven    RO         1508    .text               c_t.l(_printf_dec.o)
    0x0001f2f4   0x00000070   Code   RO         1508    .text               c_t.l(_printf_dec.o)
    0x0001f364   0x0000019c   Code   RO         1527    .text               c_t.l(__printf_flags_ss_wp.o)
    0x0001f500   0x00000044   Code   RO         1533    .text               c_t.l(strlen.o)
    0x0001f544   0x00000004   Ven    RO         1535    .text               c_t.l(rt_memcpy.o)
    0x0001f548   0x000000d4   Code   RO         1535    .text               c_t.l(rt_memcpy.o)
    0x0001f61c   0x00000004   Ven    RO         1537    .text               c_t.l(rt_memcpy_w.o)
    0x0001f620   0x00000064   Code   RO         1537    .text               c_t.l(rt_memcpy_w.o)
    0x0001f684   0x00000004   Ven    RO         1539    .text               c_t.l(aeabi_memset.o)
    0x0001f688   0x00000010   Code   RO         1539    .text               c_t.l(aeabi_memset.o)
    0x0001f698   0x00000004   Ven    RO         1541    .text               c_t.l(rt_memclr.o)
    0x0001f69c   0x00000040   Code   RO         1541    .text               c_t.l(rt_memclr.o)
    0x0001f6dc   0x00000004   Ven    RO         1543    .text               c_t.l(strncpy.o)
    0x0001f6e0   0x00000070   Code   RO         1543    .text               c_t.l(strncpy.o)
    0x0001f750   0x00000004   Ven    RO         1545    .text               c_t.l(aeabi_sdiv.o)
    0x0001f754   0x00000180   Code   RO         1545    .text               c_t.l(aeabi_sdiv.o)
    0x0001f8d4   0x00000006   Code   RO         1561    .text               c_t.l(heapauxi.o)
    0x0001f8da   0x00000002   PAD
    0x0001f8dc   0x00000008   Ven    RO         1636    .text               c_t.l(_rserrno.o)
    0x0001f8e4   0x0000001a   Code   RO         1636    .text               c_t.l(_rserrno.o)
    0x0001f8fe   0x0000002c   Code   RO         1638    .text               c_t.l(_printf_truncate.o)
    0x0001f92a   0x00000058   Code   RO         1640    .text               c_t.l(_printf_str.o)
    0x0001f982   0x000000ba   Code   RO         1642    .text               c_t.l(_printf_intcommon.o)
    0x0001fa3c   0x00000008   Ven    RO         1644    .text               c_t.l(_printf_charcount.o)
    0x0001fa44   0x00000028   Code   RO         1644    .text               c_t.l(_printf_charcount.o)
    0x0001fa6c   0x00000420   Code   RO         1646    .text               c_t.l(_printf_fp_dec.o)
    0x0001fe8c   0x00000030   Code   RO         1648    .text               c_t.l(_printf_char_common.o)
    0x0001febc   0x0000000a   Code   RO         1650    .text               c_t.l(_sputc.o)
    0x0001fec6   0x00000002   PAD
    0x0001fec8   0x000000c0   Code   RO         1652    .text               c_t.l(_printf_wctomb.o)
    0x0001ff88   0x00000008   Ven    RO         1655    .text               c_t.l(_printf_longlong_dec.o)
    0x0001ff90   0x00000074   Code   RO         1655    .text               c_t.l(_printf_longlong_dec.o)
    0x00020004   0x00000008   Ven    RO         1661    .text               c_t.l(_printf_oct_int_ll.o)
    0x0002000c   0x00000078   Code   RO         1661    .text               c_t.l(_printf_oct_int_ll.o)
    0x00020084   0x00000008   Ven    RO         1681    .text               c_t.l(_printf_hex_int_ll_ptr.o)
    0x0002008c   0x000000a0   Code   RO         1681    .text               c_t.l(_printf_hex_int_ll_ptr.o)
    0x0002012c   0x00000054   Code   RO         1705    .text               c_t.l(rt_memclr_w.o)
    0x00020180   0x00000004   Ven    RO         1707    .text               c_t.l(rtudiv10.o)
    0x00020184   0x0000002c   Code   RO         1707    .text               c_t.l(rtudiv10.o)
    0x000201b0   0x00000004   Ven    RO         1759    .text               c_t.l(rt_locale_intlibspace.o)
    0x000201b4   0x0000000c   Code   RO         1759    .text               c_t.l(rt_locale_intlibspace.o)
    0x000201c0   0x00000004   Ven    RO         1764    .text               c_t.l(rt_errno_addr_intlibspace.o)
    0x000201c4   0x0000000c   Code   RO         1764    .text               c_t.l(rt_errno_addr_intlibspace.o)
    0x000201d0   0x00000004   Ven    RO         1766    .text               c_t.l(lludiv10.o)
    0x000201d4   0x000000a0   Code   RO         1766    .text               c_t.l(lludiv10.o)
    0x00020274   0x00000090   Code   RO         1768    .text               c_t.l(_printf_fp_infnan.o)
    0x00020304   0x00000008   Ven    RO         1776    .text               c_t.l(_printf_char.o)
    0x0002030c   0x00000032   Code   RO         1776    .text               c_t.l(_printf_char.o)
    0x0002033e   0x00000002   PAD
    0x00020340   0x00000008   Ven    RO         1778    .text               c_t.l(_printf_wchar.o)
    0x00020348   0x00000032   Code   RO         1778    .text               c_t.l(_printf_wchar.o)
    0x0002037a   0x00000002   PAD
    0x0002037c   0x000000d8   Code   RO         1780    .text               c_t.l(bigflt0.o)
    0x00020454   0x0000004a   Code   RO         1805    .text               c_t.l(_wcrtomb.o)
    0x0002049e   0x00000002   PAD
    0x000204a0   0x0000000c   Code   RO         1816    .text               c_t.l(libspace.o)
    0x000204ac   0x00000060   Code   RO         1819    .text               c_t.l(sys_stackheap_outer.o)
    0x0002050c   0x00000004   Ven    RO         1821    .text               c_t.l(rt_ctype_table.o)
    0x00020510   0x00000018   Code   RO         1821    .text               c_t.l(rt_ctype_table.o)
    0x00020528   0x0000000c   Code   RO         1823    .text               c_t.l(exit.o)
    0x00020534   0x000000a0   Code   RO         1829    .text               c_t.l(strcmp.o)
    0x000205d4   0x00000008   Ven    RO         1899    .text               c_t.l(sys_exit.o)
    0x000205dc   0x0000000c   Code   RO         1899    .text               c_t.l(sys_exit.o)
    0x000205e8   0x00000004   Code   RO         1920    .text               c_t.l(use_no_semi.o)
    0x000205ec   0x00000000   Code   RO         1922    .text               c_t.l(indicate_semi.o)
    0x000205ec   0x00000004   Ven    RO         1546    .text_udiv          c_t.l(aeabi_sdiv.o)
    0x000205f0   0x00000024   Code   RO         1546    .text_udiv          c_t.l(aeabi_sdiv.o)
    0x00020614   0x00000004   Ven    RO         1783    CL$$btod_d2e        c_t.l(btod.o)
    0x00020618   0x00000038   Code   RO         1783    CL$$btod_d2e        c_t.l(btod.o)
    0x00020650   0x00000054   Code   RO         1785    CL$$btod_d2e_denorm_low  c_t.l(btod.o)
    0x000206a4   0x00000068   Code   RO         1784    CL$$btod_d2e_norm_op1  c_t.l(btod.o)
    0x0002070c   0x0000034c   Code   RO         1793    CL$$btod_div_common  c_t.l(btod.o)
    0x00020a58   0x000000dc   Code   RO         1790    CL$$btod_e2e        c_t.l(btod.o)
    0x00020b34   0x00000004   Ven    RO         1787    CL$$btod_ediv       c_t.l(btod.o)
    0x00020b38   0x00000034   Code   RO         1787    CL$$btod_ediv       c_t.l(btod.o)
    0x00020b6c   0x00000004   Ven    RO         1786    CL$$btod_emul       c_t.l(btod.o)
    0x00020b70   0x00000034   Code   RO         1786    CL$$btod_emul       c_t.l(btod.o)
    0x00020ba4   0x00000268   Code   RO         1792    CL$$btod_mult_common  c_t.l(btod.o)
    0x00020e0c   0x0000000c   Ven    RO         2031    Veneer$$Code        anon$$obj.o
    0x00020e18   0x0000000c   Ven    RO         2032    Veneer$$Code        anon$$obj.o
    0x00020e24   0x0000000c   Ven    RO         2033    Veneer$$Code        anon$$obj.o
    0x00020e30   0x0000000c   Ven    RO         2034    Veneer$$Code        anon$$obj.o
    0x00020e3c   0x0000000c   Ven    RO         2035    Veneer$$Code        anon$$obj.o
    0x00020e48   0x0000000c   Ven    RO         2036    Veneer$$Code        anon$$obj.o
    0x00020e54   0x0000000c   Ven    RO         2037    Veneer$$Code        anon$$obj.o
    0x00020e60   0x0000000c   Ven    RO         2038    Veneer$$Code        anon$$obj.o
    0x00020e6c   0x0000000c   Ven    RO         2039    Veneer$$Code        anon$$obj.o
    0x00020e78   0x0000000c   Ven    RO         2040    Veneer$$Code        anon$$obj.o
    0x00020e84   0x00000002   Code   RO           23    i.__ARM_common_call_via_r0  main.o
    0x00020e86   0x00000002   Code   RO          407    i.__ARM_common_call_via_r1  task.o
    0x00020e88   0x00000002   Code   RO          271    i.__ARM_common_call_via_r2  rs232_protocol.o
    0x00020e8a   0x00000002   Code   RO          388    i.__ARM_common_call_via_r3  setup_menu.o
    0x00020e8c   0x00000004   Ven    RO          273    i.__ARM_common_switch8  rs232_protocol.o
    0x00020e90   0x00000020   Code   RO          273    i.__ARM_common_switch8  rs232_protocol.o
    0x00020eb0   0x00000004   Ven    RO         1726    i.__ARM_fpclassify  m_ts.l(fpclassify.o)
    0x00020eb4   0x00000030   Code   RO         1726    i.__ARM_fpclassify  m_ts.l(fpclassify.o)
    0x00020ee4   0x00000100   Code   RO         1728    i.__kernel_poly     m_ts.l(poly.o)
    0x00020fe4   0x00000014   Code   RO         1724    i.__mathlib_dbl_underflow  m_ts.l(dunder.o)
    0x00020ff8   0x0000000e   Code   RO         1520    i._is_digit         c_t.l(__printf_wp.o)
    0x00021006   0x00000002   PAD
    0x00021008   0x00000004   Ven    RO         1622    i.pow               m_ts.l(pow.o)
    0x0002100c   0x00000f04   Code   RO         1622    i.pow               m_ts.l(pow.o)
    0x00021f10   0x00000074   Code   RO         1732    i.sqrt              m_ts.l(sqrt.o)
    0x00021f84   0x00000004   Ven    RO         1808    locale$$code        c_t.l(lc_numeric_c.o)
    0x00021f88   0x00000050   Code   RO         1808    locale$$code        c_t.l(lc_numeric_c.o)
    0x00021fd8   0x00000004   Ven    RO         1887    locale$$code        c_t.l(lc_ctype_c.o)
    0x00021fdc   0x00000050   Code   RO         1887    locale$$code        c_t.l(lc_ctype_c.o)
    0x0002202c   0x00000004   Ven    RO         1565    x$fpl$d2f           fz_ts.l(d2f.o)
    0x00022030   0x0000006c   Code   RO         1565    x$fpl$d2f           fz_ts.l(d2f.o)
    0x0002209c   0x00000154   Code   RO         1567    x$fpl$dadd          fz_ts.l(daddsub_noclz.o)
    0x000221f0   0x00000010   Code   RO         1810    x$fpl$dcheck1       fz_ts.l(dcheck1.o)
    0x00022200   0x0000001c   Code   RO         1709    x$fpl$dcmpinf       fz_ts.l(dcmpi.o)
    0x0002221c   0x00000004   Ven    RO         1574    x$fpl$ddiv          fz_ts.l(ddiv.o)
    0x00022220   0x000002e0   Code   RO         1574    x$fpl$ddiv          fz_ts.l(ddiv.o)
    0x00022500   0x00000004   Ven    RO         1578    x$fpl$dflt          fz_ts.l(dflt_noclz.o)
    0x00022504   0x00000058   Code   RO         1578    x$fpl$dflt          fz_ts.l(dflt_noclz.o)
    0x0002255c   0x00000004   Ven    RO         1577    x$fpl$dfltu         fz_ts.l(dflt_noclz.o)
    0x00022560   0x0000000c   Code   RO         1577    x$fpl$dfltu         fz_ts.l(dflt_noclz.o)
    0x0002256c   0x00000004   Ven    RO         1581    x$fpl$dleqf         fz_ts.l(dleqf.o)
    0x00022570   0x00000094   Code   RO         1581    x$fpl$dleqf         fz_ts.l(dleqf.o)
    0x00022604   0x00000004   Ven    RO         1583    x$fpl$dmul          fz_ts.l(dmul.o)
    0x00022608   0x00000180   Code   RO         1583    x$fpl$dmul          fz_ts.l(dmul.o)
    0x00022788   0x000000c0   Code   RO         1711    x$fpl$dnaninf       fz_ts.l(dnaninf.o)
    0x00022848   0x00000010   Code   RO         1713    x$fpl$dretinf       fz_ts.l(dretinf.o)
    0x00022858   0x00000004   Ven    RO         1585    x$fpl$drleqf        fz_ts.l(drleqf.o)
    0x0002285c   0x0000008c   Code   RO         1585    x$fpl$drleqf        fz_ts.l(drleqf.o)
    0x000228e8   0x00000004   Ven    RO         1568    x$fpl$drsb          fz_ts.l(daddsub_noclz.o)
    0x000228ec   0x00000018   Code   RO         1568    x$fpl$drsb          fz_ts.l(daddsub_noclz.o)
    0x00022904   0x00000208   Code   RO         1812    x$fpl$dsqrt         fz_ts.l(dsqrt_noumaal.o)
    0x00022b0c   0x00000244   Code   RO         1569    x$fpl$dsub          fz_ts.l(daddsub_noclz.o)
    0x00022d50   0x00000004   Ven    RO         1587    x$fpl$f2d           fz_ts.l(f2d.o)
    0x00022d54   0x00000064   Code   RO         1587    x$fpl$f2d           fz_ts.l(f2d.o)
    0x00022db8   0x00000004   Ven    RO         1589    x$fpl$fadd          fz_ts.l(faddsub_noclz.o)
    0x00022dbc   0x000000c4   Code   RO         1589    x$fpl$fadd          fz_ts.l(faddsub_noclz.o)
    0x00022e80   0x0000001c   Code   RO         1715    x$fpl$fcmpinf       fz_ts.l(fcmpi.o)
    0x00022e9c   0x00000004   Ven    RO         1596    x$fpl$fdiv          fz_ts.l(fdiv.o)
    0x00022ea0   0x00000190   Code   RO         1596    x$fpl$fdiv          fz_ts.l(fdiv.o)
    0x00023030   0x00000004   Ven    RO         1599    x$fpl$feqf          fz_ts.l(feqf.o)
    0x00023034   0x00000084   Code   RO         1599    x$fpl$feqf          fz_ts.l(feqf.o)
    0x000230b8   0x00000004   Ven    RO         1601    x$fpl$ffix          fz_ts.l(ffix.o)
    0x000230bc   0x00000044   Code   RO         1601    x$fpl$ffix          fz_ts.l(ffix.o)
    0x00023100   0x00000004   Ven    RO         1605    x$fpl$ffixu         fz_ts.l(ffixu.o)
    0x00023104   0x00000054   Code   RO         1605    x$fpl$ffixu         fz_ts.l(ffixu.o)
    0x00023158   0x00000004   Ven    RO         1610    x$fpl$fflt          fz_ts.l(fflt_noclz.o)
    0x0002315c   0x0000005c   Code   RO         1610    x$fpl$fflt          fz_ts.l(fflt_noclz.o)
    0x000231b8   0x00000004   Ven    RO         1609    x$fpl$ffltu         fz_ts.l(fflt_noclz.o)
    0x000231bc   0x00000008   Code   RO         1609    x$fpl$ffltu         fz_ts.l(fflt_noclz.o)
    0x000231c4   0x00000004   Ven    RO         1613    x$fpl$fleqf         fz_ts.l(fleqf.o)
    0x000231c8   0x00000084   Code   RO         1613    x$fpl$fleqf         fz_ts.l(fleqf.o)
    0x0002324c   0x00000004   Ven    RO         1615    x$fpl$fmul          fz_ts.l(fmul.o)
    0x00023250   0x00000100   Code   RO         1615    x$fpl$fmul          fz_ts.l(fmul.o)
    0x00023350   0x000000a8   Code   RO         1717    x$fpl$fnaninf       fz_ts.l(fnaninf.o)
    0x000233f8   0x00000010   Code   RO         1719    x$fpl$fretinf       fz_ts.l(fretinf.o)
    0x00023408   0x00000004   Ven    RO         1617    x$fpl$frleqf        fz_ts.l(frleqf.o)
    0x0002340c   0x0000007c   Code   RO         1617    x$fpl$frleqf        fz_ts.l(frleqf.o)
    0x00023488   0x00000004   Ven    RO         1591    x$fpl$fsub          fz_ts.l(faddsub_noclz.o)
    0x0002348c   0x00000130   Code   RO         1591    x$fpl$fsub          fz_ts.l(faddsub_noclz.o)
    0x000235bc   0x00000004   Ven    RO         1814    x$fpl$ieeestatus    fz_ts.l(istatus.o)
    0x000235c0   0x00000008   Code   RO         1814    x$fpl$ieeestatus    fz_ts.l(istatus.o)
    0x000235c8   0x00000004   Code   RO         1619    x$fpl$printf1       fz_ts.l(printf1.o)
    0x000235cc   0x00000074   Code   RO         1880    x$fpl$retnan        fz_ts.l(retnan.o)
    0x00023640   0x00000068   Code   RO         1721    x$fpl$scalbn        fz_ts.l(scalbn.o)
    0x000236a8   0x0000003c   Code   RO         1897    x$fpl$trapveneer    fz_ts.l(trapv.o)
    0x000236e4   0x00000000   Code   RO         1723    x$fpl$usenofp       fz_ts.l(usenofp.o)
    0x000236e4   0x00000079   Data   RO          170    .constdata          key_tab.o
    0x0002375d   0x00000003   PAD
    0x00023760   0x00000100   Data   RO          180    .constdata          key_task.o
    0x00023860   0x0000034c   Data   RO          216    .constdata          menu_tbl.o
    0x00023bac   0x00000610   Data   RO          258    .constdata          rs232_protocol.o
    0x000241bc   0x00000014   Data   RO          323    .constdata          setup_func.o
    0x000241d0   0x00000028   Data   RO          395    .constdata          task.o
    0x000241f8   0x00000015   Data   RO          413    .constdata          vfd_disp.o
    0x0002420d   0x00000003   PAD
    0x00024210   0x00000114   Data   RO          508    .constdata          auto_sound.o
    0x00024324   0x0000004c   Data   RO          648    .constdata          cs8416.o
    0x00024370   0x0000004c   Data   RO          706    .constdata          eeprom.o
    0x000243bc   0x00000050   Data   RO          879    .constdata          vfddriver.o
    0x0002440c   0x00000008   Data   RO          913    .constdata          volume.o
    0x00024414   0x00000008   Data   RO          936    .constdata          max335.o
    0x0002441c   0x000000d8   Data   RO          955    .constdata          channel.o
    0x000244f4   0x0000004c   Data   RO          974    .constdata          hdmi.o
    0x00024540   0x000000d8   Data   RO         1297    .constdata          eq_manager.o
    0x00024618   0x00000100   Data   RO         1326    .constdata          irc1_manager.o
    0x00024718   0x00000011   Data   RO         1528    .constdata          c_t.l(__printf_flags_ss_wp.o)
    0x00024729   0x00000007   PAD
    0x00024730   0x00000088   Data   RO         1623    .constdata          m_ts.l(pow.o)
    0x000247b8   0x00000008   Data   RO         1653    .constdata          c_t.l(_printf_wctomb.o)
    0x000247c0   0x00000028   Data   RO         1682    .constdata          c_t.l(_printf_hex_int_ll_ptr.o)
    0x000247e8   0x00000008   Data   RO         1730    .constdata          m_ts.l(qnan.o)
    0x000247f0   0x00000094   Data   RO         1781    .constdata          c_t.l(bigflt0.o)
    0x00024884   0x00000570   Data   RO          217    .conststring        menu_tbl.o
    0x00024df4   0x00000367   Data   RO          259    .conststring        rs232_protocol.o
    0x0002515b   0x000000c5   Data   RO          435    .conststring        zone1_task.o
    0x00025220   0x00000017   Data   RO          509    .conststring        auto_sound.o
    0x00025237   0x00000001   PAD
    0x00025238   0x00000020   Data   RO         1965    Region$$Table       anon$$obj.o
    0x00025258   0x0000001c   Data   RO         1807    locale$$data        c_t.l(lc_numeric_c.o)
    0x00025274   0x00000110   Data   RO         1886    locale$$data        c_t.l(lc_ctype_c.o)


    Execution Region RW_IRAM1 (Base: 0x40000000, Size: 0x000042a0, Max: 0x0000e800, ABSOLUTE, COMPRESSED[0x00001294])

    Base Addr    Size         Type   Attr      Idx    E Section Name        Object

    0x40000000   0x00000004   Data   RW           12    .data               main.o
    0x40000004   0x0000001c   Data   RW          181    .data               key_task.o
    0x40000020   0x000024ab   Data   RW          218    .data               menu_tbl.o
    0x400024cb   0x00000001   PAD
    0x400024cc   0x00000004   Data   RW          242    .data               message.o
    0x400024d0   0x00000312   Data   RW          260    .data               rs232_protocol.o
    0x400027e2   0x00000002   PAD
    0x400027e4   0x0000024f   Data   RW          324    .data               setup_func.o
    0x40002a33   0x00000001   PAD
    0x40002a34   0x00000020   Data   RW          377    .data               setup_menu.o
    0x40002a54   0x00000019   Data   RW          396    .data               task.o
    0x40002a6d   0x00000001   PAD
    0x40002a6e   0x00000058   Data   RW          414    .data               vfd_disp.o
    0x40002ac6   0x00000002   PAD
    0x40002ac8   0x0000015e   Data   RW          436    .data               zone1_task.o
    0x40002c26   0x00000002   PAD
    0x40002c28   0x00000004   Data   RW          485    .data               zone2_task.o
    0x40002c2c   0x00000151   Data   RW          510    .data               auto_sound.o
    0x40002d7d   0x00000003   PAD
    0x40002d80   0x00000084   Data   RW          564    .data               radio_task.o
    0x40002e04   0x00000020   Data   RW          613    .data               uart.o
    0x40002e24   0x00000002   Data   RW          649    .data               cs8416.o
    0x40002e26   0x00000002   Data   RW          724    .data               i2cdrv.o
    0x40002e28   0x00000001   Data   RW          756    .data               ic4094.o
    0x40002e29   0x00000003   PAD
    0x40002e2c   0x00000018   Data   RW          771    .data               ioport.o
    0x40002e44   0x0000001d   Data   RW          808    .data               ir.o
    0x40002e61   0x00000003   PAD
    0x40002e64   0x0000002c   Data   RW          837    .data               timer.o
    0x40002e90   0x00000005   Data   RW          914    .data               volume.o
    0x40002e95   0x00000008   Data   RW          937    .data               max335.o
    0x40002e9d   0x00000002   Data   RW          956    .data               channel.o
    0x40002e9f   0x00000003   Data   RW          975    .data               hdmi.o
    0x40002ea2   0x00000003   Data   RW         1022    .data               tuner_new.o
    0x40002ea5   0x00000001   PAD
    0x40002ea6   0x00000018   Data   RW         1055    .data               rbds.o
    0x40002ebe   0x00000014   Data   RW         1186    .data               dsp_task.o
    0x40002ed2   0x00000002   PAD
    0x40002ed4   0x0000001f   Data   RW         1237    .data               dspdrv.o
    0x40002ef3   0x00000001   PAD
    0x40002ef4   0x00000708   Zero   RW          241    .bss                message.o
    0x400035fc   0x00000014   Zero   RW          257    .bss                rs232_protocol.o
    0x40003610   0x00000014   Zero   RW          322    .bss                setup_func.o
    0x40003624   0x00000032   Zero   RW          433    .bss                zone1_task.o
    0x40003656   0x00000096   Zero   RW          563    .bss                radio_task.o
    0x400036ec   0x00000200   Zero   RW          612    .bss                uart.o
    0x400038ec   0x00000020   Zero   RW          912    .bss                volume.o
    0x4000390c   0x00000100   Zero   RW         1021    .bss                tuner_new.o
    0x40003a0c   0x0000000c   Zero   RW         1097    .bss                bassmanager.o
    0x40003a18   0x00000020   Zero   RW         1116    .bss                delaymanager.o
    0x40003a38   0x00000080   Zero   RW         1236    .bss                dspdrv.o
    0x40003ab8   0x00000280   Zero   RW         1296    .bss                eq_manager.o
    0x40003d38   0x00000060   Zero   RW         1817    .bss                c_t.l(libspace.o)
    0x40003d98   0x00000000   Zero   RW            2    HEAP                lpc2300.o
    0x40003d98   0x00000508   Zero   RW            1    STACK               lpc2300.o


==============================================================================

Image component sizes


      Code (inc. data)   RO Data    RW Data    ZI Data      Debug   Object Name

         0          0          0          0          0       7364   audiomanager.o
     10108        888        299        337          0      16003   auto_sound.o
      4336        158          0          0         12      11952   bassmanager.o
       132          0          0          0          0       1880   c11_msg_handler.o
      1652        134        216          2          0      10008   channel.o
       416         54         76          2          0       4592   cs8416.o
       984        166          0          0          0       2646   dac.o
       204         28          0          0          0       5235   debug.o
      1176         36          0          0         32      11093   delaymanager.o
       668          6          0          0          0       2780   dolbymanager.o
       800         34          0          0          0       2229   dolbyprologicii.o
       992         32          0          0          0       2701   dolbyprologiciix.o
       628         12          0          0          0       2253   dolbytruehd.o
      2660        426          0          0          0       5680   dsp_api.o
       600        124          0          0          0       1929   dsp_spi.o
       980        290          0         20          0       9692   dsp_task.o
      9176       1964          0         31        128      26474   dspdrv.o
       228         36         76          0          0       1999   eeprom.o
      2656        216        216          0        640       8922   eq_manager.o
      1524        384         76          3          0       4218   hdmi.o
      1404         38          0          2          0       4867   i2cdrv.o
        80          0          0          0          0       1546   ic165.o
       640         70          0          1          0       3846   ic4094.o
      4728        138          0         24          0      19175   ioport.o
      1500        116          0         29          0       4843   ir.o
       704         14        256          0          0       3921   irc1_manager.o
       360          6          0          0          0       1716   irc2_manager.o
         0          0        121          0          0        632   key_tab.o
      1228        126        256         28          0       4700   key_task.o
       396         60          0          0       1288        632   lpc2300.o
       278         62          0          4          0       8002   main.o
       616         12          0          0          0       2087   mas9116.o
       216         28          8          8          0       1801   max335.o
         0          0       2236       9387          0      12530   menu_tbl.o
       408         60          0          4       1800       2521   message.o
       544          6          0          0          0       2074   os_manager.o
       356          0          0          0          0       2701   queue.o
      8304       1426          0        132        150      17958   radio_task.o
       980        100          0         24          0       5396   rbds.o
     29586       5900       2423        786         20      91105   rs232_protocol.o
      6684        406         20        591         20      28017   setup_func.o
      6622        798          0         32          0      14029   setup_menu.o
       512         34          0          0          0       1696   signalgenerator.o
       122          8         40         25          0       2205   task.o
      1284        206          0         44          0       3692   timer.o
      2264        148          0          3        256      12302   tuner_new.o
       508         60          0         32        512       3898   uart.o
       604         32         21         88          0       3994   vfd_disp.o
       268         48         80          0          0       2206   vfddriver.o
       632        110          8          5         32       2861   volume.o
     12996       2746        197        350         50      25135   zone1_task.o
      2272        358          0          4          0       3570   zone2_task.o

    ----------------------------------------------------------------------
    127172      18144       6664      12020       4940     435308   Object Totals
       156         40         32          0          0          0   (incl. Generated)
         0          0          7         22          0          0   (incl. Padding)

    ----------------------------------------------------------------------

      Code (inc. data)   RO Data    RW Data    ZI Data      Debug   Library Member Name

        44          4          0          0          0         84   __2sprintf.o
        92          0          0          0          0          0   __dczerorl2.o
         8          0          0          0          0         68   __main.o
       412          6         17          0          0         92   __printf_flags_ss_wp.o
        14          0          0          0          0         60   __printf_wp.o
        60          8          0          0          0          0   __scatter.o
        44          0          0          0          0          0   __scatter_zi.o
         8          0          0          0          0          0   _printf_a.o
         8          0          0          0          0          0   _printf_c.o
        58          0          0          0          0        112   _printf_char.o
        48          4          0          0          0         96   _printf_char_common.o
        48          0          0          0          0         60   _printf_charcount.o
         8          0          0          0          0          0   _printf_d.o
       120         18          0          0          0         88   _printf_dec.o
         8          0          0          0          0          0   _printf_e.o
         8          0          0          0          0          0   _printf_f.o
      1056         14          0          0          0        188   _printf_fp_dec.o
       144         16          0          0          0         88   _printf_fp_infnan.o
         8          0          0          0          0          0   _printf_g.o
       168          4         40          0          0        176   _printf_hex_int_ll_ptr.o
         8          0          0          0          0          0   _printf_i.o
       186          0          0          0          0         96   _printf_intcommon.o
        12          0          0          0          0          0   _printf_l.o
         8          0          0          0          0          0   _printf_lc.o
        12          0          0          0          0          0   _printf_ll.o
         8          0          0          0          0          0   _printf_lld.o
         8          0          0          0          0          0   _printf_lli.o
         8          0          0          0          0          0   _printf_llo.o
         8          0          0          0          0          0   _printf_llu.o
         8          0          0          0          0          0   _printf_llx.o
       124         18          0          0          0         88   _printf_longlong_dec.o
         8          0          0          0          0          0   _printf_ls.o
         8          0          0          0          0          0   _printf_n.o
         8          0          0          0          0          0   _printf_o.o
       128         10          0          0          0        136   _printf_oct_int_ll.o
         8          0          0          0          0          0   _printf_p.o
        86          0          0          0          0        116   _printf_pad.o
         4          0          0          0          0          0   _printf_percent.o
         8          0          0          0          0          0   _printf_percent_end.o
         8          0          0          0          0          0   _printf_s.o
        88          0          0          0          0         84   _printf_str.o
        44          0          0          0          0         76   _printf_truncate.o
         8          0          0          0          0          0   _printf_u.o
        58          0          0          0          0        112   _printf_wchar.o
       192          4          8          0          0         96   _printf_wctomb.o
         8          0          0          0          0          0   _printf_x.o
        34          0          0          0          0        104   _rserrno.o
        10          0          0          0          0         60   _sputc.o
        74          0          0          0          0         88   _wcrtomb.o
        20          0          0          0          0         68   aeabi_memset.o
       428          0          0          0          0        148   aeabi_sdiv.o
       216          6        148          0          0         96   bigflt0.o
      2040        128          0          0          0        696   btod.o
        40          4          0          0          0         80   c89vsprintf.o
        12          0          0          0          0         64   exit.o
         6          0          0          0          0        136   heapauxi.o
         0          0          0          0          0          0   indicate_semi.o
        84          8        272          0          0         92   lc_ctype_c.o
        84          8         28          0          0         92   lc_numeric_c.o
        10          0          0          0          0          0   libinit.o
        40          0          0          0          0          0   libinit2.o
        12          0          0          0          0          0   libshutdown.o
         6          0          0          0          0          0   libshutdown2.o
        12          4          0          0         96         68   libspace.o
       164          0          0          0          0         96   lludiv10.o
        28          4          0          0          0         84   rt_ctype_table.o
        16          4          0          0          0         68   rt_errno_addr_intlibspace.o
        16          4          0          0          0         68   rt_locale_intlibspace.o
        68          0          0          0          0         68   rt_memclr.o
        84          0          0          0          0         80   rt_memclr_w.o
       216          0          0          0          0         68   rt_memcpy.o
       104          0          0          0          0         80   rt_memcpy_w.o
         0          0          0          0          0          0   rtentry.o
        44          4          0          0          0          0   rtentry2.o
         8          0          0          0          0          0   rtentry4.o
         8          0          0          0          0          0   rtexit.o
        12          0          0          0          0          0   rtexit2.o
        48          0          0          0          0         68   rtudiv10.o
       160          4          0          0          0         80   strcmp.o
        68          4          0          0          0         76   strlen.o
       116          4          0          0          0         84   strncpy.o
        20          4          0          0          0         60   sys_exit.o
        96          0          0          0          0         80   sys_stackheap_outer.o
         4          0          0          0          0         68   use_no_semi.o
       112          4          0          0          0         92   d2f.o
       948         16          0          0          0        372   daddsub_noclz.o
        16          4          0          0          0         68   dcheck1.o
        28          0          0          0          0         68   dcmpi.o
       740        140          0          0          0        232   ddiv.o
       108          0          0          0          0        136   dflt_noclz.o
       152          4          0          0          0         92   dleqf.o
       388         16          0          0          0        124   dmul.o
       192          0          0          0          0        108   dnaninf.o
        16          0          0          0          0         68   dretinf.o
       144          0          0          0          0         80   drleqf.o
       520         56          0          0          0        144   dsqrt_noumaal.o
       104          4          0          0          0         84   f2d.o
       508          8          0          0          0        168   faddsub_noclz.o
        28          0          0          0          0         68   fcmpi.o
       404         76          0          0          0         96   fdiv.o
       136          4          0          0          0         84   feqf.o
        72          4          0          0          0         84   ffix.o
        88          4          0          0          0         84   ffixu.o
       108          0          0          0          0        136   fflt_noclz.o
       136          4          0          0          0         84   fleqf.o
       260          4          0          0          0         84   fmul.o
       168          0          0          0          0        100   fnaninf.o
        16          0          0          0          0         68   fretinf.o
       128          0          0          0          0         68   frleqf.o
        12          0          0          0          0         68   istatus.o
         4          0          0          0          0         68   printf1.o
       116          0          0          0          0         68   retnan.o
       104          0          0          0          0         68   scalbn.o
        60          0          0          0          0         68   trapv.o
         0          0          0          0          0          0   usenofp.o
        20          0          0          0          0         68   dunder.o
        52          0          0          0          0         68   fpclassify.o
       256          0          0          0          0        116   poly.o
      3848        100        136          0          0        292   pow.o
         0          0          8          0          0          0   qnan.o
       116          0          0          0          0        100   sqrt.o

    ----------------------------------------------------------------------
     17952        744        664          0         96       8612   Library Totals
        18          0          7          0          0          0   (incl. Padding)

    ----------------------------------------------------------------------

      Code (inc. data)   RO Data    RW Data    ZI Data      Debug   Library Name

      7826        296        513          0         96       4836   c_t.l
      5816        348          0          0          0       3132   fz_ts.l
      4292        100        144          0          0        644   m_ts.l

    ----------------------------------------------------------------------
     17952        744        664          0         96       8612   Library Totals

    ----------------------------------------------------------------------

==============================================================================


      Code (inc. data)   RO Data    RW Data    ZI Data      Debug   

    145124      18888       7328      12020       5036     435360   Grand Totals
    145124      18888       7328       4756       5036     435360   ELF Image Totals (compressed)
    145124      18888       7328       4756          0          0   ROM Totals

==============================================================================

    Total RO  Size (Code + RO Data)               152452 ( 148.88kB)
    Total RW  Size (RW Data + ZI Data)             17056 (  16.66kB)
    Total ROM Size (Code + RO Data + RW Data)     157208 ( 153.52kB)

==============================================================================

