ARM Linker, RVCT3.0 [Build 951] for uVision [Full]

================================================================================

Section Cross References

    lpc2300.o(STACK) refers (Special) to stkheap2.o(.text) for __use_two_region_memory
    lpc2300.o(HEAP) refers (Special) to stkheap2.o(.text) for __use_two_region_memory
    lpc2300.o(RESET) refers to lpc2300.o(STACK) for Stack_Top
    lpc2300.o(RESET) refers to __main.o(!!!main) for __main
    lpc2300.o(RESET) refers (Special) to stkheap2.o(.text) for __use_two_region_memory
    lpc2300.o(.text) refers to lpc2300.o(HEAP) for Heap_Mem
    lpc2300.o(.text) refers to lpc2300.o(STACK) for Stack_Mem
    lpc2300.o(.text) refers (Special) to stkheap2.o(.text) for __use_two_region_memory
    main.o(.text) refers to ioport.o(.text) for HardwareInit
    main.o(.text) refers to uart.o(.text) for UartInit
    main.o(.text) refers to timer.o(.text) for Timer0Init
    main.o(.text) refers to ir.o(.text) for InitRemoteRepeatKey
    main.o(.text) refers to vfddriver.o(.text) for VfdSetDimerValue
    main.o(.text) refers to message.o(.text) for InitMsgQueue
    main.o(.text) refers to debug.o(.text) for assert_Function
    main.o(.text) refers to zone1_task.o(.text) for LoadSystemStartupValue
    main.o(.text) refers to callvia.o(.text) for __ARM_call_via_r0
    main.o(.text) refers to task.o(.text) for ProcMessage
    main.o(.text) refers to dsp_task.o(.text) for DspLoop
    main.o(.text) refers to hdmi.o(.text) for HDMI_DSD_Loop
    main.o(.text) refers to vfd_disp.o(.text) for VfdRefresh
    main.o(.text) refers to radio_task.o(.text) for RadioLoop
    main.o(.text) refers to zone1_task.o(.bss) for sys_flag
    main.o(.text) refers to zone1_task.o(.data) for temp_dimer_time
    main.o(.text) refers to main.o(.data) for Rs232ProtocolHandler
    main.o(.text) refers to vfd_disp.o(.data) for need_refresh_vfd
    main.o(.data) refers to rs232_protocol.o(.text) for C11Rs232
    debug.o(.text) refers to vsprintf.o(.text) for vsprintf
    debug.o(.text) refers to strlen.o(.text) for strlen
    debug.o(.text) refers to uart.o(.text) for Uart0Send
    debug.o(.data) refers to debug.o(.conststring) for .conststring
    queue.o(.text) refers to aeabi_sdiv.o(.text) for __aeabi_idivmod
    c11_msg_handler.o(.text) refers to dspdrv.o(.text) for DspProcPower
    key_task.o(.text) refers to zone1_task.o(.text) for MsgSetKey
    key_task.o(.text) refers to ic165.o(.text) for read165
    key_task.o(.text) refers to ioport.o(.text) for SenseEncoderSwitchPlus
    key_task.o(.text) refers to key_task.o(.constdata) for panel_key_table
    key_task.o(.text) refers to key_task.o(.data) for .data
    key_task.o(.text) refers to ir.o(.data) for zone1_ir_enable
    key_task.o(.text) refers to key_tab.o(.constdata) for zone1_remote_key_table
    menu_tbl.o(.data) refers to menu_tbl.o(.conststring) for .conststring
    menu_tbl.o(.data) refers to setup_menu.o(.text) for SetupMenuDisplay
    menu_tbl.o(.data) refers to setup_func.o(.text) for SpkConfigSetup
    menu_tbl.o(.data) refers to menu_tbl.o(.constdata) for balance_table
    menu_tbl.o(.data) refers to zone1_task.o(.data) for SrcNameCh71
    menu_tbl.o(.data) refers to zone1_task.o(.bss) for C11Logo
    menu_tbl.o(.constdata) refers to menu_tbl.o(.data) for StrSetupMenu
    message.o(.text) refers to aeabi_sdiv.o(.text) for __aeabi_idivmod
    message.o(.text) refers to debug.o(.text) for assert_Function
    message.o(.text) refers to rt_memcpy.o(.text) for __aeabi_memcpy
    message.o(.text) refers to message.o(.data) for msg_queue_front
    message.o(.text) refers to message.o(.bss) for pMsgQueue
    rs232_protocol.o(.text) refers to fmul.o(x$fpl$fmul) for __aeabi_fmul
    rs232_protocol.o(.text) refers to fflt_noclz.o(x$fpl$fflt) for __aeabi_i2f
    rs232_protocol.o(.text) refers to faddsub_noclz.o(x$fpl$fadd) for __aeabi_fadd
    rs232_protocol.o(.text) refers to fdiv.o(x$fpl$fdiv) for __aeabi_fdiv
    rs232_protocol.o(.text) refers to f2d.o(x$fpl$f2d) for __aeabi_f2d
    rs232_protocol.o(.text) refers to debug.o(.text) for rs232_printf
    rs232_protocol.o(.text) refers to switch8.o(.text) for __ARM_switch8
    rs232_protocol.o(.text) refers to task.o(.text) for GetCurFocusTid
    rs232_protocol.o(.text) refers to zone1_task.o(.text) for MsgSetInputSource
    rs232_protocol.o(.text) refers to radio_task.o(.text) for RadioExit
    rs232_protocol.o(.text) refers to zone1_task.o(.bss) for sys_flag
    rs232_protocol.o(.text) refers to radio_task.o(.data) for current_radio_mode
    rs232_protocol.o(.text) refers to dspdrv.o(.text) for SetLate
    rs232_protocol.o(.text) refers to timer.o(.text) for DelayMs
    rs232_protocol.o(.text) refers to dspdrv.o(.data) for compression_mode
    rs232_protocol.o(.text) refers to ffix.o(x$fpl$ffix) for __aeabi_f2iz
    rs232_protocol.o(.text) refers to eq_manager.o(.text) for EqModuleconfig
    rs232_protocol.o(.text) refers to auto_sound.o(.text) for FindBalancePosition
    rs232_protocol.o(.text) refers to eeprom.o(.text) for EepromWriteByte
    rs232_protocol.o(.text) refers to eq_manager.o(.bss) for dsp_eq_table
    rs232_protocol.o(.text) refers to setup_menu.o(.data) for Movie_Music_Speaker_Flag
    rs232_protocol.o(.text) refers to drleqf.o(x$fpl$drleqf) for __aeabi_cdrcmple
    rs232_protocol.o(.text) refers to dleqf.o(x$fpl$dleqf) for __aeabi_cdcmple
    rs232_protocol.o(.text) refers to vfd_disp.o(.text) for VfdTempDispBlank
    rs232_protocol.o(.text) refers to zone2_task.o(.text) for IsZone2PowerOn
    rs232_protocol.o(.text) refers to channel.o(.text) for Zone2AnalogInOff
    rs232_protocol.o(.text) refers to max335.o(.text) for SetMax335Switch
    rs232_protocol.o(.text) refers to hdmi.o(.text) for HdmiReadByte
    rs232_protocol.o(.text) refers to channel.o(.constdata) for zone2_analog_in_table
    rs232_protocol.o(.text) refers to zone2_task.o(.data) for Zone2SrcName
    rs232_protocol.o(.text) refers to rt_memcpy.o(.text) for __aeabi_memcpy
    rs232_protocol.o(.text) refers to setup_func.o(.text) for WriteName
    rs232_protocol.o(.text) refers to volume.o(.text) for SetBalanceVolume
    rs232_protocol.o(.text) refers to frleqf.o(x$fpl$frleqf) for __aeabi_cfrcmple
    rs232_protocol.o(.text) refers to ffixu.o(x$fpl$ffixu) for __aeabi_f2uiz
    rs232_protocol.o(.text) refers to zone1_task.o(.data) for SrcName
    rs232_protocol.o(.text) refers to rs232_protocol.o(.data) for cur_dis_unit
    rs232_protocol.o(.text) refers to c11_msg_handler.o(.text) for SetDspSpkMode
    rs232_protocol.o(.text) refers to fflt_noclz.o(x$fpl$ffltu) for __aeabi_ui2f
    rs232_protocol.o(.text) refers to delaymanager.o(.text) for DSP_AV_Delay
    rs232_protocol.o(.text) refers to menu_tbl.o(.constdata) for balance_table
    rs232_protocol.o(.text) refers to feqf.o(x$fpl$feqf) for __aeabi_cfcmpeq
    rs232_protocol.o(.text) refers to fleqf.o(x$fpl$fleqf) for __aeabi_cfcmple
    rs232_protocol.o(.text) refers to setup_func.o(.bss) for AnalogInLevel
    rs232_protocol.o(.text) refers to aeabi_sdiv.o(.text_udiv) for __aeabi_uidivmod
    rs232_protocol.o(.text) refers to ioport.o(.text) for Zone1SelectIr
    rs232_protocol.o(.text) refers to setup_func.o(.data) for pwd_mode
    rs232_protocol.o(.text) refers to dac.o(.text) for DacMute
    rs232_protocol.o(.text) refers to setup_menu.o(.text) for SetupLoadDefault
    rs232_protocol.o(.text) refers to callvia.o(.text) for __ARM_call_via_r2
    rs232_protocol.o(.text) refers to queue.o(.text) for IsQueueEmpty
    rs232_protocol.o(.text) refers to uart.o(.text) for Uart0Send
    rs232_protocol.o(.text) refers to key_task.o(.data) for key_enable
    rs232_protocol.o(.text) refers to uart.o(.data) for protocol_queue_pointer
    rs232_protocol.o(.text) refers to rs232_protocol.o(.bss) for recv_buffer
    rs232_protocol.o(.data) refers to rs232_protocol.o(.constdata) for cmd_Z1EQL
    rs232_protocol.o(.constdata) refers to rs232_protocol.o(.conststring) for .conststring
    rs232_protocol.o(.constdata) refers to rs232_protocol.o(.text) for ProcCmdSPU
    setup_func.o(.text) refers to eeprom.o(.text) for EepromReadByte
    setup_func.o(.text) refers to switch8.o(.text) for __ARM_switch8
    setup_func.o(.text) refers to delaymanager.o(.text) for DSP_Delay_Channel_Setting
    setup_func.o(.text) refers to volume.o(.text) for SetBalanceVolume
    setup_func.o(.text) refers to bassmanager.o(.text) for SetBassManagerSpeaker
    setup_func.o(.text) refers to ioport.o(.text) for SetIoport0
    setup_func.o(.text) refers to dac.o(.text) for DacInvert
    setup_func.o(.text) refers to setup_menu.o(.data) for Movie_Music_Speaker_Flag
    setup_func.o(.text) refers to dspdrv.o(.data) for system_spk_mode
    setup_func.o(.text) refers to delaymanager.o(.bss) for dsp_delay_time
    setup_func.o(.text) refers to menu_tbl.o(.constdata) for balance_table
    setup_func.o(.text) refers to bassmanager.o(.bss) for dsp_bass_corner
    setup_func.o(.text) refers to zone1_task.o(.bss) for sys_flag
    setup_func.o(.text) refers to debug.o(.text) for debug_printf
    setup_func.o(.text) refers to eq_manager.o(.text) for DSP_EQ_Firmware_Init
    setup_func.o(.text) refers to zone1_task.o(.text) for MsgSetInputSource
    setup_func.o(.text) refers to dspdrv.o(.text) for Set_Prologic2Dimension
    setup_func.o(.text) refers to c11_msg_handler.o(.text) for SetDspDelay
    setup_func.o(.text) refers to dsp_api.o(.text) for Change_DSP_Decoder_Code
    setup_func.o(.text) refers to timer.o(.text) for DelayMs
    setup_func.o(.text) refers to vfd_disp.o(.text) for VfdDisplay
    setup_func.o(.text) refers to eq_manager.o(.bss) for dsp_eq_table
    setup_func.o(.text) refers to setup_func.o(.data) for balance_mode
    setup_func.o(.text) refers to key_task.o(.data) for key_enable
    setup_func.o(.text) refers to zone2_task.o(.text) for IsZone2PowerOn
    setup_func.o(.text) refers to task.o(.text) for IsCurFocusTid
    setup_func.o(.text) refers to channel.o(.text) for Zone2AnalogInOff
    setup_func.o(.text) refers to max335.o(.text) for SetMax335Switch
    setup_func.o(.text) refers to hdmi.o(.text) for HdmiReadByte
    setup_func.o(.text) refers to fflt_noclz.o(x$fpl$fflt) for __aeabi_i2f
    setup_func.o(.text) refers to channel.o(.constdata) for zone2_analog_in_table
    setup_func.o(.text) refers to setup_menu.o(.text) for SetupLoadDefault
    setup_func.o(.text) refers to setup_func.o(.bss) for AnalogInLevel
    setup_func.o(.text) refers to radio_task.o(.data) for current_radio_mode
    setup_func.o(.text) refers to zone1_task.o(.data) for SrcName
    setup_func.o(.text) refers to rt_memcpy.o(.text) for __aeabi_memcpy
    setup_func.o(.text) refers to setup_func.o(.constdata) for CaryLogo
    setup_func.o(.data) refers to menu_tbl.o(.data) for strFl
    setup_menu.o(.text) refers to eeprom.o(.text) for EepromReadByte
    setup_menu.o(.text) refers to callvia.o(.text) for __ARM_call_via_r3
    setup_menu.o(.text) refers to switch8.o(.text) for __ARM_switch8
    setup_menu.o(.text) refers to debug.o(.text) for debug_printf
    setup_menu.o(.text) refers to vfd_disp.o(.text) for VfdDisplay
    setup_menu.o(.text) refers to vsprintf.o(.text) for vsprintf
    setup_menu.o(.text) refers to strlen.o(.text) for strlen
    setup_menu.o(.text) refers to fflt_noclz.o(x$fpl$ffltu) for __aeabi_ui2f
    setup_menu.o(.text) refers to f2d.o(x$fpl$f2d) for __aeabi_f2d
    setup_menu.o(.text) refers to ddiv.o(x$fpl$ddiv) for __aeabi_ddiv
    setup_menu.o(.text) refers to menu_tbl.o(.constdata) for MenuPageList
    setup_menu.o(.text) refers to setup_menu.o(.data) for .data
    setup_menu.o(.text) refers to ir.o(.text) for AddRemoteRepeatKey
    setup_menu.o(.text) refers to task.o(.text) for GetCurFocusTid
    setup_menu.o(.text) refers to setup_func.o(.text) for SpkBlanceTestMode
    setup_menu.o(.text) refers to volume.o(.text) for Set7Ch1MainVolume
    setup_menu.o(.text) refers to menu_tbl.o(.data) for strOff
    setup_menu.o(.text) refers to setup_func.o(.data) for pwd_mode
    setup_menu.o(.text) refers to zone1_task.o(.bss) for sys_flag
    setup_menu.o(.text) refers to radio_task.o(.text) for RadioInit
    setup_menu.o(.text) refers to dac.o(.text) for DacMute
    setup_menu.o(.text) refers to dsp_api.o(.text) for Change_DSP_Decoder_Code
    setup_menu.o(.text) refers to timer.o(.text) for DelayMs
    setup_menu.o(.text) refers to zone1_task.o(.text) for MsgSetFlash
    setup_menu.o(.text) refers to radio_task.o(.data) for current_radio_mode
    setup_menu.o(.text) refers to main.o(.text) for ProcDimerOff
    task.o(.text) refers to callvia.o(.text) for __ARM_call_via_r1
    task.o(.text) refers to task.o(.data) for current_tid
    task.o(.data) refers to task.o(.constdata) for pZone1Task
    task.o(.constdata) refers to zone1_task.o(.text) for Zone1ProcMessage
    task.o(.constdata) refers to setup_menu.o(.text) for SetupProcMessage
    task.o(.constdata) refers to radio_task.o(.text) for RadioProcMessage
    task.o(.constdata) refers to zone2_task.o(.text) for Zone2ProcMessage
    task.o(.constdata) refers to auto_sound.o(.text) for AutoSoundProcMessage
    vfd_disp.o(.text) refers to vfddriver.o(.text) for VfdUpdateBuffer
    vfd_disp.o(.text) refers to vsprintf.o(.text) for vsprintf
    vfd_disp.o(.text) refers to strlen.o(.text) for strlen
    vfd_disp.o(.text) refers to strncpy.o(.text) for strncpy
    vfd_disp.o(.text) refers to aeabi_memset.o(.text) for __aeabi_memset
    vfd_disp.o(.text) refers to vfd_disp.o(.data) for .data
    vfd_disp.o(.text) refers to zone1_task.o(.bss) for sys_flag
    vfd_disp.o(.text) refers to zone1_task.o(.data) for temp_dimer_time
    zone1_task.o(.text) refers to message.o(.text) for SendMessage
    zone1_task.o(.text) refers to vfd_disp.o(.text) for VfdDisplayBlank
    zone1_task.o(.text) refers to timer.o(.text) for DelayMs
    zone1_task.o(.text) refers to task.o(.text) for IsCurFocusTid
    zone1_task.o(.text) refers to debug.o(.text) for debug_printf
    zone1_task.o(.text) refers to switch8.o(.text) for __ARM_switch8
    zone1_task.o(.text) refers to dspdrv.o(.text) for GetNormalFreq
    zone1_task.o(.text) refers to key_task.o(.data) for key_enable
    zone1_task.o(.text) refers to zone1_task.o(.data) for _cur_key
    zone1_task.o(.text) refers to zone1_task.o(.bss) for sys_flag
    zone1_task.o(.text) refers to setup_func.o(.constdata) for CaryLogo
    zone1_task.o(.text) refers to dspdrv.o(.data) for DSDType
    zone1_task.o(.text) refers to c11_msg_handler.o(.text) for SetDspPower
    zone1_task.o(.text) refers to channel.o(.text) for Analog7CH1OutSelectChannel
    zone1_task.o(.text) refers to hdmi.o(.text) for HDMI_Port_Select
    zone1_task.o(.text) refers to eeprom.o(.text) for EepromReadByte
    zone1_task.o(.text) refers to ioport.o(.text) for DSP_Input_Stream_Select
    zone1_task.o(.text) refers to dac.o(.text) for InitDSDMode
    zone1_task.o(.text) refers to hdmi.o(.data) for Pre_value
    zone1_task.o(.text) refers to setup_func.o(.bss) for AnalogInMode
    zone1_task.o(.text) refers to fflt_noclz.o(x$fpl$fflt) for __aeabi_i2f
    zone1_task.o(.text) refers to volume.o(.text) for Set2ChVolume
    zone1_task.o(.text) refers to vfddriver.o(.text) for VfdSetDimerValue
    zone1_task.o(.text) refers to cs8416.o(.text) for InitCs8416
    zone1_task.o(.text) refers to ic4094.o(.text) for LPC2132HwReset
    zone1_task.o(.text) refers to menu_tbl.o(.constdata) for AnalogInLevelTable
    zone1_task.o(.text) refers to vfd_disp.o(.constdata) for Surround_Processor
    zone1_task.o(.text) refers to setup_func.o(.text) for SetHdmiAudioOut
    zone1_task.o(.text) refers to setup_menu.o(.text) for SetupLoadDefault
    zone1_task.o(.text) refers to setup_func.o(.data) for SystemTriggerMode
    zone1_task.o(.text) refers to aeabi_sdiv.o(.text) for __aeabi_idivmod
    zone1_task.o(.text) refers to dolbyprologiciix.o(.text) for DSP_PLIIx_DECODE_MODE_STEREO
    zone1_task.o(.text) refers to dolbytruehd.o(.text) for DspReadTRUEHD
    zone1_task.o(.text) refers to auto_sound.o(.text) for AutoSoundInit
    zone1_task.o(.text) refers to eq_manager.o(.text) for EqOn
    zone1_task.o(.text) refers to radio_task.o(.text) for RadioInit
    zone1_task.o(.text) refers to main.o(.text) for ProcDimerOff
    zone1_task.o(.text) refers to bassmanager.o(.text) for SetBassManagerSpeaker
    zone1_task.o(.text) refers to radio_task.o(.data) for current_radio_mode
    zone1_task.o(.data) refers to zone1_task.o(.conststring) for .conststring
    zone2_task.o(.text) refers to eeprom.o(.text) for EepromWriteByte
    zone2_task.o(.text) refers to debug.o(.text) for debug_printf
    zone2_task.o(.text) refers to zone1_task.o(.text) for SystemPowerOn
    zone2_task.o(.text) refers to channel.o(.text) for Zone2SelectChannel
    zone2_task.o(.text) refers to ioport.o(.text) for Zone2Mute
    zone2_task.o(.text) refers to task.o(.text) for IsCurFocusTid
    zone2_task.o(.text) refers to vfd_disp.o(.text) for SetVfdOwner
    zone2_task.o(.text) refers to timer.o(.text) for DelayMs
    zone2_task.o(.text) refers to tuner.o(.text) for InitTuner
    zone2_task.o(.text) refers to radio_task.o(.text) for LoadRadioPreset
    zone2_task.o(.text) refers to switch8.o(.text) for __ARM_switch8
    zone2_task.o(.text) refers to max335.o(.text) for SetMax335Switch
    zone2_task.o(.text) refers to zone1_task.o(.bss) for sys_flag
    zone2_task.o(.text) refers to menu_tbl.o(.constdata) for volume_table
    zone2_task.o(.text) refers to zone2_task.o(.data) for Zone2SrcName
    zone2_task.o(.text) refers to setup_func.o(.data) for SystemTriggerMode
    zone2_task.o(.text) refers to radio_task.o(.data) for HD_Radio_Power_Flag
    zone2_task.o(.text) refers to channel.o(.constdata) for zone2_analog_in_table
    zone2_task.o(.text) refers to hdmi.o(.text) for HdmiReadByte
    zone2_task.o(.text) refers to main.o(.text) for ProcDimerOff
    zone2_task.o(.text) refers to aeabi_sdiv.o(.text_udiv) for __aeabi_uidivmod
    zone2_task.o(.text) refers to fflt_noclz.o(x$fpl$fflt) for __aeabi_i2f
    zone2_task.o(.text) refers to volume.o(.text) for SetZone2Volume
    auto_sound.o(.text) refers to message.o(.text) for SendMessage
    auto_sound.o(.text) refers to task.o(.text) for GetCurFocusTid
    auto_sound.o(.text) refers to volume.o(.text) for SoftMute
    auto_sound.o(.text) refers to vfd_disp.o(.text) for VfdDisplayBlank
    auto_sound.o(.text) refers to zone1_task.o(.text) for MsgSetVfdShow
    auto_sound.o(.text) refers to channel.o(.text) for AnalogInputTypeSelect
    auto_sound.o(.text) refers to irc1_manager.o(.text) for DspReadIrc1
    auto_sound.o(.text) refers to dspdrv.o(.text) for ReConvert_8_24_Value
    auto_sound.o(.text) refers to f2d.o(x$fpl$f2d) for __aeabi_f2d
    auto_sound.o(.text) refers to d2f.o(x$fpl$d2f) for __aeabi_d2f
    auto_sound.o(.text) refers to feqf.o(x$fpl$feqf) for __aeabi_cfcmpeq
    auto_sound.o(.text) refers to fleqf.o(x$fpl$fleqf) for __aeabi_cfcmple
    auto_sound.o(.text) refers to faddsub_noclz.o(x$fpl$fadd) for __aeabi_fadd
    auto_sound.o(.text) refers to auto_sound.o(.data) for bak_id
    auto_sound.o(.text) refers to zone1_task.o(.bss) for sys_flag
    auto_sound.o(.text) refers to setup_func.o(.data) for speaker_table
    auto_sound.o(.text) refers to debug.o(.text) for assert_Function
    auto_sound.o(.text) refers to timer.o(.text) for DelayMs
    auto_sound.o(.text) refers to dac.o(.text) for Auto_Setup_DAC_Phase
    auto_sound.o(.text) refers to c11_msg_handler.o(.text) for SetDspIrc
    auto_sound.o(.text) refers to strlen.o(.text) for strlen
    auto_sound.o(.text) refers to irc2_manager.o(.text) for IsIrc2ValidResult
    auto_sound.o(.text) refers to fflt_noclz.o(x$fpl$ffltu) for __aeabi_ui2f
    auto_sound.o(.text) refers to auto_sound.o(.constdata) for eq_freq
    auto_sound.o(.text) refers to dmul.o(x$fpl$dmul) for __aeabi_dmul
    auto_sound.o(.text) refers to fdiv.o(x$fpl$fdiv) for __aeabi_fdiv
    auto_sound.o(.text) refers to frleqf.o(x$fpl$frleqf) for __aeabi_cfrcmple
    auto_sound.o(.text) refers to ddiv.o(x$fpl$ddiv) for __aeabi_ddiv
    auto_sound.o(.text) refers to __0sprintf.o(.text) for __0sprintf
    auto_sound.o(.text) refers to daddsub_noclz.o(x$fpl$dsub) for __aeabi_dsub
    auto_sound.o(.text) refers to fmul.o(x$fpl$fmul) for __aeabi_fmul
    auto_sound.o(.text) refers to faddsub_noclz.o(x$fpl$fsub) for __aeabi_fsub
    auto_sound.o(.text) refers to ffixu.o(x$fpl$ffixu) for __aeabi_f2uiz
    auto_sound.o(.text) refers to ffix.o(x$fpl$ffix) for __aeabi_f2iz
    auto_sound.o(.text) refers to fflt_noclz.o(x$fpl$fflt) for __aeabi_i2f
    auto_sound.o(.text) refers to rt_memcpy_w.o(.text) for __aeabi_memcpy4
    auto_sound.o(.text) refers to setup_func.o(.text) for SpkConfigSetup
    auto_sound.o(.text) refers to menu_tbl.o(.constdata) for balance_table
    auto_sound.o(.text) refers to setup_menu.o(.data) for Movie_Music_Speaker_Flag
    auto_sound.o(.text) refers to dsp_task.o(.data) for dsp_power_flag
    auto_sound.o(.text) refers to callvia.o(.text) for __ARM_call_via_r1
    auto_sound.o(.text) refers (Special) to printf1.o(x$fpl$printf1) for _printf_fp_dec
    auto_sound.o(.text) refers (Special) to _printf_pad.o(.text) for _printf_pre_padding
    auto_sound.o(.data) refers to auto_sound.o(.text) for ASProcSetupConfig
    auto_sound.o(.data) refers (Special) to printf1.o(x$fpl$printf1) for _printf_fp_dec
    auto_sound.o(.data) refers (Special) to _printf_pad.o(.text) for _printf_pre_padding
    auto_sound.o(.constdata) refers to auto_sound.o(.conststring) for .conststring
    auto_sound.o(.constdata) refers (Special) to printf1.o(x$fpl$printf1) for _printf_fp_dec
    auto_sound.o(.constdata) refers (Special) to _printf_pad.o(.text) for _printf_pre_padding
    auto_sound.o(.conststring) refers (Special) to printf1.o(x$fpl$printf1) for _printf_fp_dec
    auto_sound.o(.conststring) refers (Special) to _printf_pad.o(.text) for _printf_pre_padding
    radio_task.o(.text) refers to message.o(.text) for SendMessage
    radio_task.o(.text) refers to aeabi_sdiv.o(.text_udiv) for __aeabi_uidivmod
    radio_task.o(.text) refers to eeprom.o(.text) for EepromWriteByte
    radio_task.o(.text) refers to debug.o(.text) for debug_printf
    radio_task.o(.text) refers to radio_task.o(.data) for current_radio_status
    radio_task.o(.text) refers to __0sprintf.o(.text) for __0sprintf
    radio_task.o(.text) refers to aeabi_sdiv.o(.text) for __aeabi_idivmod
    radio_task.o(.text) refers to vfd_disp.o(.text) for VfdDisplay
    radio_task.o(.text) refers to zone2_task.o(.text) for IsZone2PowerOn
    radio_task.o(.text) refers to timer.o(.text) for DelayMs
    radio_task.o(.text) refers to dac.o(.text) for DacMute
    radio_task.o(.text) refers to task.o(.text) for SetCurFocusTid
    radio_task.o(.text) refers to ioport.o(.text) for HDRadioPower
    radio_task.o(.text) refers to volume.o(.text) for Set7Ch1MainVolume
    radio_task.o(.text) refers to zone1_task.o(.bss) for sys_flag
    radio_task.o(.text) refers to radio_task.o(.bss) for Tuner_Text_Rec_Buffer
    radio_task.o(.text) refers to timer.o(.data) for Tuner_Text_Count
    radio_task.o(.text) refers to menu_tbl.o(.constdata) for volume_table
    radio_task.o(.text) refers to hdmi.o(.text) for HDMI_Port_Select
    radio_task.o(.text) refers to tuner.o(.text) for InitTuner
    radio_task.o(.text) refers to c11_msg_handler.o(.text) for SetDspPower
    radio_task.o(.text) refers to channel.o(.text) for DigiSendByte
    radio_task.o(.text) refers to zone1_task.o(.text) for MsgSetVfdShow
    radio_task.o(.text) refers to ir.o(.text) for AddRemoteRepeatKey
    radio_task.o(.text) refers to setup_func.o(.bss) for AnalogInMode
    radio_task.o(.text) refers to dspdrv.o(.data) for PreDspMode
    radio_task.o(.text) refers to switch8.o(.text) for __ARM_switch8
    radio_task.o(.text) refers to queue.o(.text) for IsQueueEmpty
    radio_task.o(.text) refers to uart.o(.data) for tuner_queue_pointer
    radio_task.o(.text) refers to zone1_task.o(.data) for HDRadio_FM_Flag
    radio_task.o(.text) refers to main.o(.text) for ProcDimerOff
    radio_task.o(.text) refers to hdmi.o(.data) for Pre_value
    radio_task.o(.text) refers to key_task.o(.data) for key_enable
    radio_task.o(.text) refers (Special) to _printf_dec.o(.text) for _printf_int_dec
    radio_task.o(.text) refers (Special) to _printf_pad.o(.text) for _printf_pre_padding
    radio_task.o(.data) refers (Special) to _printf_dec.o(.text) for _printf_int_dec
    radio_task.o(.data) refers (Special) to _printf_pad.o(.text) for _printf_pre_padding
    radio_task.o(.bss) refers (Special) to _printf_dec.o(.text) for _printf_int_dec
    radio_task.o(.bss) refers (Special) to _printf_pad.o(.text) for _printf_pre_padding
    uart.o(.text) refers to aeabi_sdiv.o(.text_udiv) for __aeabi_uidivmod
    uart.o(.text) refers to queue.o(.text) for InitQueue
    uart.o(.text) refers to uart.o(.text) for Uart0Isr
    uart.o(.text) refers to uart.o(.data) for protocol_queue_pointer
    uart.o(.text) refers to queue.o(.text) for InQueue
    uart.o(.text) refers to uart.o(.data) for protocol_queue_pointer
    uart.o(.text) refers to radio_task.o(.data) for Tuner_Reply_Flag
    uart.o(.data) refers to uart.o(.bss) for tuner_array
    cs8416.o(.text) refers to rt_memcpy_w.o(.text) for __aeabi_memcpy4
    cs8416.o(.text) refers to i2cdrv.o(.text) for I2C_bytewrite
    cs8416.o(.text) refers to debug.o(.text) for debug_printf
    cs8416.o(.text) refers to timer.o(.text) for DelayMs
    cs8416.o(.text) refers to cs8416.o(.constdata) for IIC_CS8416
    cs8416.o(.text) refers to cs8416.o(.data) for .data
    cs8416.o(.constdata) refers to ioport.o(.text) for set_scl
    dac.o(.text) refers to ioport.o(.text) for SetIoport0
    dac.o(.text) refers to switch8.o(.text) for __ARM_switch8
    dac.o(.text) refers to i2cdrv.o(.text) for wait_timer
    dac.o(.text) refers to eeprom.o(.text) for EepromReadByte
    dac.o(.text) refers to setup_func.o(.text) for SetSpkPhase
    dac.o(.text) refers to dac.o(.data) for .data
    eeprom.o(.text) refers to rt_memcpy_w.o(.text) for __aeabi_memcpy4
    eeprom.o(.text) refers to i2cdrv.o(.text) for I2C_bytewrite
    eeprom.o(.text) refers to debug.o(.text) for debug_printf
    eeprom.o(.text) refers to eeprom.o(.constdata) for IIC_EEPROM
    eeprom.o(.constdata) refers to ioport.o(.text) for set_scl1
    i2cdrv.o(.text) refers to callvia.o(.text) for __ARM_call_via_r1
    i2cdrv.o(.text) refers to debug.o(.text) for debug_printf
    i2cdrv.o(.text) refers to i2cdrv.o(.data) for .data
    ic165.o(.text) refers to ioport.o(.text) for SetIoport1
    ic4094.o(.text) refers to ioport.o(.text) for SetData4094
    ic4094.o(.text) refers to i2cdrv.o(.text) for wait_timer
    ic4094.o(.text) refers to debug.o(.text) for debug_printf
    ic4094.o(.text) refers to timer.o(.text) for DelayMs
    ic4094.o(.text) refers to task.o(.text) for SetCurFocusTid
    ic4094.o(.text) refers to ic4094.o(.data) for .data
    ioport.o(.text) refers to timer.o(.text) for DelayMs
    ioport.o(.text) refers to switch8.o(.text) for __ARM_switch8
    ioport.o(.text) refers to channel.o(.text) for SetTrigerOut
    ioport.o(.text) refers to ioport.o(.text) for exint3
    ioport.o(.text) refers to ioport.o(.data) for front_enable_zone2_ir
    ioport.o(.text) refers to ir.o(.text) for ir_core_philips
    ioport.o(.text) refers to ioport.o(.data) for eint3_timer_cnter
    ioport.o(.text) refers to setup_func.o(.data) for zone2_ir_mode
    ir.o(.text) refers to aeabi_memset.o(.text) for __aeabi_memset
    ir.o(.text) refers to dflt_noclz.o(x$fpl$dfltu) for __aeabi_ui2d
    ir.o(.text) refers to drleqf.o(x$fpl$drleqf) for __aeabi_cdrcmple
    ir.o(.text) refers to dleqf.o(x$fpl$dleqf) for __aeabi_cdcmple
    ir.o(.text) refers to ir.o(.data) for remote_repeat
    ir.o(.text) refers to ioport.o(.data) for front_enable_zone2_ir
    timer.o(.text) refers to key_task.o(.text) for GetEncoderSwitchThread
    timer.o(.text) refers to dspdrv.o(.text) for lpcm_20_config
    timer.o(.text) refers to tuner.o(.text) for Tuner_Req_Radio_Monitor_Command
    timer.o(.text) refers to radio_task.o(.text) for C11_Tuner_PSD_Change
    timer.o(.text) refers to queue.o(.text) for InitQueue
    timer.o(.text) refers to setup_menu.o(.text) for SetupFlashHandler
    timer.o(.text) refers to timer.o(.data) for .data
    timer.o(.text) refers to radio_task.o(.data) for Tuner_Text_Disp_Flag
    timer.o(.text) refers to uart.o(.data) for tuner_queue_pointer
    timer.o(.text) refers to timer.o(.text) for timer0_irq
    timer.o(.text) refers to vfd_disp.o(.text) for VfdTimerHandler
    timer.o(.text) refers to zone1_task.o(.text) for RefreshHandle
    timer.o(.text) refers to ioport.o(.data) for eint1_timer_cnter
    timer.o(.text) refers to timer.o(.data) for .data
    timer.o(.text) refers to radio_task.o(.data) for Tuner_Text_Disp_Flag
    timer.o(.text) refers to dspdrv.o(.data) for softmute_flag
    timer.o(.text) refers to zone1_task.o(.data) for DSP_HDMI_Setting_Flag
    vfddriver.o(.text) refers to rt_memcpy_w.o(.text) for __aeabi_memcpy4
    vfddriver.o(.text) refers to i2cdrv.o(.text) for I2CWriteNByte
    vfddriver.o(.text) refers to debug.o(.text) for debug_printf
    vfddriver.o(.text) refers to vfddriver.o(.constdata) for IIC_VFD
    vfddriver.o(.constdata) refers to ioport.o(.text) for set_vfd_scl
    mas9116.o(.text) refers to i2cdrv.o(.text) for wait_timer
    mas9116.o(.text) refers to ioport.o(.text) for SetIoport1
    mas9116.o(.text) refers to frleqf.o(x$fpl$frleqf) for __aeabi_cfrcmple
    mas9116.o(.text) refers to fmul.o(x$fpl$fmul) for __aeabi_fmul
    mas9116.o(.text) refers to faddsub_noclz.o(x$fpl$fadd) for __aeabi_fadd
    mas9116.o(.text) refers to ffixu.o(x$fpl$ffixu) for __aeabi_f2uiz
    volume.o(.text) refers to f2d.o(x$fpl$f2d) for __aeabi_f2d
    volume.o(.text) refers to debug.o(.text) for debug_printf
    volume.o(.text) refers to mas9116.o(.text) for Mas9116SetGain
    volume.o(.text) refers to faddsub_noclz.o(x$fpl$fadd) for __aeabi_fadd
    volume.o(.text) refers to fflt_noclz.o(x$fpl$fflt) for __aeabi_i2f
    volume.o(.text) refers to ic4094.o(.text) for Set_FLFR_Mas9116_Mute
    volume.o(.text) refers to timer.o(.text) for DelayMs
    volume.o(.text) refers to volume.o(.bss) for balance
    volume.o(.text) refers to volume.o(.data) for main_volume
    volume.o(.text) refers to volume.o(.constdata) for BalanceChannel
    max335.o(.text) refers to ioport.o(.text) for SetMax335Clk
    max335.o(.text) refers to i2cdrv.o(.text) for wait_timer
    max335.o(.text) refers to max335.o(.data) for .data
    max335.o(.text) refers to max335.o(.constdata) for Max335SelTab
    channel.o(.text) refers to rt_memcpy_w.o(.text) for __aeabi_memcpy4
    channel.o(.text) refers to i2cdrv.o(.text) for I2C_bytewrite
    channel.o(.text) refers to debug.o(.text) for debug_printf
    channel.o(.text) refers to timer.o(.text) for DelayMs
    channel.o(.text) refers to ioport.o(.text) for SenseAnalogSignal
    channel.o(.text) refers to max335.o(.text) for SetMax335Switch
    channel.o(.text) refers to eeprom.o(.text) for EepromReadByte
    channel.o(.text) refers to dspdrv.o(.text) for DSPFirmwareWrite
    channel.o(.text) refers to channel.o(.constdata) for IIC_DIGI
    channel.o(.text) refers to channel.o(.data) for .data
    channel.o(.text) refers to zone1_task.o(.bss) for sys_flag
    channel.o(.text) refers to dsp_task.o(.data) for dsp_power_flag
    channel.o(.text) refers to cs8416.o(.text) for CheckCs8416Unlock
    channel.o(.constdata) refers to ioport.o(.text) for set_scl2
    tuner.o(.text) refers to uart.o(.text) for Uart1Send
    tuner.o(.text) refers to aeabi_sdiv.o(.text_udiv) for __aeabi_uidivmod
    tuner.o(.text) refers to debug.o(.text) for debug_printf
    tuner.o(.text) refers to timer.o(.text) for DelayMs
    tuner.o(.text) refers to radio_task.o(.data) for system_freq
    hdmi.o(.text) refers to rt_memcpy_w.o(.text) for __aeabi_memcpy4
    hdmi.o(.text) refers to i2cdrv.o(.text) for I2C_bytewrite
    hdmi.o(.text) refers to debug.o(.text) for debug_printf
    hdmi.o(.text) refers to task.o(.text) for GetCurFocusTid
    hdmi.o(.text) refers to c11_msg_handler.o(.text) for SetDspPower
    hdmi.o(.text) refers to ioport.o(.text) for DSP_Input_Stream_Select
    hdmi.o(.text) refers to channel.o(.text) for DigiSendByte
    hdmi.o(.text) refers to volume.o(.text) for SoftMute
    hdmi.o(.text) refers to dac.o(.text) for InitDSDMode
    hdmi.o(.text) refers to zone1_task.o(.text) for MsgSetStream
    hdmi.o(.text) refers to dsp_api.o(.text) for DSP_API_Read
    hdmi.o(.text) refers to hdmi.o(.constdata) for IIC_HDMI
    hdmi.o(.text) refers to zone1_task.o(.bss) for sys_flag
    hdmi.o(.text) refers to timer.o(.data) for Hdmi_Stream_tick
    hdmi.o(.text) refers to hdmi.o(.data) for Pre_value
    hdmi.o(.text) refers to dspdrv.o(.data) for last_stream
    hdmi.o(.text) refers to dsp_task.o(.data) for dsp_power_flag
    hdmi.o(.constdata) refers to ioport.o(.text) for set_scl_hdmi
    dsp_spi.o(.text) refers to ioport.o(.text) for Set_Spi_Clk
    dsp_spi.o(.text) refers to debug.o(.text) for debug_printf
    dsp_spi.o(.text) refers to c11_msg_handler.o(.text) for SetDspPower
    dsp_spi.o(.text) refers to timer.o(.text) for DelayMs
    dsp_spi.o(.text) refers to zone1_task.o(.bss) for sys_flag
    dsp_spi.o(.text) refers to hdmi.o(.data) for Pre_value
    dsp_spi.o(.text) refers to dspdrv.o(.data) for last_stream
    audiomanager.o(.text) refers to debug.o(.text) for debug_printf
    audiomanager.o(.text) refers to dspdrv.o(.text) for DSPFirmwareWrite
    audiomanager.o(.text) refers to dsp_spi.o(.text) for DspSpiWriteNByte
    audiomanager.o(.text) refers to dsp_task.o(.data) for dsp_power_flag
    audiomanager.o(.text) refers to dspdrv.o(.bss) for dsp_buf
    bassmanager.o(.text) refers to fdiv.o(x$fpl$fdiv) for __aeabi_fdiv
    bassmanager.o(.text) refers to f2d.o(x$fpl$f2d) for __aeabi_f2d
    bassmanager.o(.text) refers to pow.o(.text) for pow
    bassmanager.o(.text) refers to d2f.o(x$fpl$d2f) for __aeabi_d2f
    bassmanager.o(.text) refers to fmul.o(x$fpl$fmul) for __aeabi_fmul
    bassmanager.o(.text) refers to ffixu.o(x$fpl$ffixu) for __aeabi_f2uiz
    bassmanager.o(.text) refers to dsp_spi.o(.text) for DspSpiWriteNByte
    bassmanager.o(.text) refers to switch8.o(.text) for __ARM_switch8
    bassmanager.o(.text) refers to dspdrv.o(.bss) for dsp_buf
    bassmanager.o(.text) refers to dspdrv.o(.data) for system_spk_mode
    bassmanager.o(.text) refers to dspdrv.o(.text) for DSPFirmwareWrite
    bassmanager.o(.text) refers to bassmanager.o(.bss) for dsp_bass_corner
    bassmanager.o(.text) refers to dsp_task.o(.data) for dsp_power_flag
    delaymanager.o(.text) refers to dsp_spi.o(.text) for DspSpiWriteNByte
    delaymanager.o(.text) refers to switch8.o(.text) for __ARM_switch8
    delaymanager.o(.text) refers to timer.o(.text) for DelayMs
    delaymanager.o(.text) refers to dspdrv.o(.bss) for dsp_buf
    delaymanager.o(.text) refers to delaymanager.o(.bss) for dsp_delay_time
    delaymanager.o(.text) refers to dsp_task.o(.data) for dsp_power_flag
    delaymanager.o(.text) refers to dspdrv.o(.text) for ReadDsp
    dolbymanager.o(.text) refers to dsp_spi.o(.text) for DspSpiWriteNByte
    dolbymanager.o(.text) refers to dspdrv.o(.text) for ReadDsp
    dolbymanager.o(.text) refers to dspdrv.o(.bss) for dsp_buf
    dolbyprologicii.o(.text) refers to dsp_spi.o(.text) for DspSpiWriteNByte
    dolbyprologicii.o(.text) refers to switch8.o(.text) for __ARM_switch8
    dolbyprologicii.o(.text) refers to dspdrv.o(.bss) for dsp_buf
    dolbyprologiciix.o(.text) refers to dsp_spi.o(.text) for DspSpiWriteNByte
    dolbyprologiciix.o(.text) refers to switch8.o(.text) for __ARM_switch8
    dolbyprologiciix.o(.text) refers to dspdrv.o(.text) for ReadDsp
    dolbyprologiciix.o(.text) refers to dspdrv.o(.bss) for dsp_buf
    dsp_task.o(.text) refers to debug.o(.text) for debug_printf
    dsp_task.o(.text) refers to timer.o(.text) for DelayMs
    dsp_task.o(.text) refers to dspdrv.o(.text) for DspProcUnsolicitedMsg
    dsp_task.o(.text) refers to rt_memcpy.o(.text) for __aeabi_memcpy
    dsp_task.o(.text) refers to ioport.o(.text) for SenseAnalogSignal
    dsp_task.o(.text) refers to zone1_task.o(.text) for ProcInputSelect
    dsp_task.o(.text) refers to dsp_spi.o(.text) for DspSpiReadNByte
    dsp_task.o(.text) refers to cs8416.o(.text) for Cs8416GetFreq
    dsp_task.o(.text) refers to dspdrv.o(.bss) for dsp_buf
    dsp_task.o(.text) refers to dspdrv.o(.data) for Pre_DTS_Type
    dsp_task.o(.text) refers to dsp_task.o(.data) for current_ac3_stream
    dsp_task.o(.text) refers to channel.o(.data) for Analog_Input_To_Dsp_Flag
    dsp_task.o(.text) refers to zone1_task.o(.bss) for sys_flag
    dsp_task.o(.text) refers to timer.o(.data) for dsp_time_tick
    dspdrv.o(.text) refers to aeabi_sdiv.o(.text) for __aeabi_idivmod
    dspdrv.o(.text) refers to fflt_noclz.o(x$fpl$fflt) for __aeabi_i2f
    dspdrv.o(.text) refers to fmul.o(x$fpl$fmul) for __aeabi_fmul
    dspdrv.o(.text) refers to ffix.o(x$fpl$ffix) for __aeabi_f2iz
    dspdrv.o(.text) refers to fdiv.o(x$fpl$fdiv) for __aeabi_fdiv
    dspdrv.o(.text) refers to dolbyprologicii.o(.text) for DSP_PLII_DECODE_MODE
    dspdrv.o(.text) refers to bassmanager.o(.text) for SetBassManagerSpeaker
    dspdrv.o(.text) refers to switch8.o(.text) for __ARM_switch8
    dspdrv.o(.text) refers to delaymanager.o(.text) for DSP_Delay_Channel_Setting
    dspdrv.o(.text) refers to signalgenerator.o(.text) for DSP_SGEN_CHANNEL_ENABLE
    dspdrv.o(.text) refers to dac.o(.text) for DacMute
    dspdrv.o(.text) refers to dsp_api.o(.text) for Change_DSP_VIRTUALIZER_Code
    dspdrv.o(.text) refers to timer.o(.text) for DelayMs
    dspdrv.o(.text) refers to irc1_manager.o(.text) for DSP_IRC1_Test_Duration
    dspdrv.o(.text) refers to irc2_manager.o(.text) for Dsp_IRC2_Speaker_Select
    dspdrv.o(.text) refers to zone1_task.o(.bss) for sys_flag
    dspdrv.o(.text) refers to dspdrv.o(.data) for system_spk_mode
    dspdrv.o(.text) refers to setup_menu.o(.data) for Movie_Music_Speaker_Flag
    dspdrv.o(.text) refers to delaymanager.o(.bss) for dsp_delay_time
    dspdrv.o(.text) refers to dsp_task.o(.data) for dsp_power_flag
    dspdrv.o(.text) refers to bassmanager.o(.bss) for dsp_bass_corner
    dspdrv.o(.text) refers to os_manager.o(.text) for OS_OUTPUT_MODE_CONTROL
    dspdrv.o(.text) refers to debug.o(.text) for debug_printf
    dspdrv.o(.text) refers to eq_manager.o(.text) for DSP_EQ_Firmware_Init
    dspdrv.o(.text) refers to eeprom.o(.text) for EepromReadByte
    dspdrv.o(.text) refers to volume.o(.text) for SoftMute
    dspdrv.o(.text) refers to dsp_spi.o(.text) for DspSpiReadNByte
    dspdrv.o(.text) refers to ioport.o(.text) for DSPHwReset
    dspdrv.o(.text) refers to zone1_task.o(.data) for DSP_HDMI_Setting_Flag
    dspdrv.o(.text) refers to dspdrv.o(.bss) for dsp_buf
    dspdrv.o(.text) refers to zone1_task.o(.text) for MsgSetDSPSetting
    dspdrv.o(.text) refers to dolbymanager.o(.text) for DSP_AC3_DRC_INIT
    dspdrv.o(.text) refers to dolbytruehd.o(.text) for DSP_TRUEHD_DRC_INIT
    dspdrv.o(.text) refers to c11_msg_handler.o(.text) for SetDspPower
    dspdrv.o(.text) refers to channel.o(.text) for DigiSendByte
    dspdrv.o(.text) refers to cs8416.o(.text) for Cs8416GetFreq
    dspdrv.o(.text) refers to hdmi.o(.text) for HdmiReadByte
    dspdrv.o(.text) refers to setup_func.o(.data) for CD_Pure_Audio
    dspdrv.o(.text) refers to timer.o(.data) for pcm20_delay_timer
    eq_manager.o(.text) refers to fmul.o(x$fpl$fmul) for __aeabi_fmul
    eq_manager.o(.text) refers to ffixu.o(x$fpl$ffixu) for __aeabi_f2uiz
    eq_manager.o(.text) refers to frleqf.o(x$fpl$frleqf) for __aeabi_cfrcmple
    eq_manager.o(.text) refers to dsp_spi.o(.text) for DspSpiWriteNByte
    eq_manager.o(.text) refers to switch8.o(.text) for __ARM_switch8
    eq_manager.o(.text) refers to dspdrv.o(.bss) for dsp_buf
    eq_manager.o(.text) refers to dspdrv.o(.text) for GetNormalFreq
    eq_manager.o(.text) refers to debug.o(.text) for debug_printf
    eq_manager.o(.text) refers to f2d.o(x$fpl$f2d) for __aeabi_f2d
    eq_manager.o(.text) refers to fflt_noclz.o(x$fpl$fflt) for __aeabi_i2f
    eq_manager.o(.text) refers to zone1_task.o(.bss) for sys_flag
    eq_manager.o(.text) refers to dsp_task.o(.data) for dsp_power_flag
    eq_manager.o(.text) refers to eq_manager.o(.constdata) for freq_table
    eq_manager.o(.text) refers to eq_manager.o(.bss) for dsp_eq_table
    eq_manager.o(.text) refers to setup_menu.o(.data) for Movie_Music_Speaker_Flag
    eq_manager.o(.text) refers to dspdrv.o(.data) for PreDspMode
    eq_manager.o(.text) refers to ioport.o(.text) for SenseDspIrq
    eq_manager.o(.text) refers to timer.o(.text) for DelayMs
    irc1_manager.o(.text) refers to fmul.o(x$fpl$fmul) for __aeabi_fmul
    irc1_manager.o(.text) refers to ffixu.o(x$fpl$ffixu) for __aeabi_f2uiz
    irc1_manager.o(.text) refers to dspdrv.o(.text) for DSPFirmwareWrite
    irc1_manager.o(.text) refers to dsp_spi.o(.text) for DspSpiWriteNByte
    irc1_manager.o(.text) refers to irc1_manager.o(.constdata) for MIC_YOGE_BM38_parameter
    irc1_manager.o(.text) refers to dspdrv.o(.bss) for dsp_buf
    irc2_manager.o(.text) refers to dsp_spi.o(.text) for DspSpiWriteNByte
    irc2_manager.o(.text) refers to dspdrv.o(.text) for ReadDsp
    irc2_manager.o(.text) refers to dspdrv.o(.bss) for dsp_buf
    os_manager.o(.text) refers to dsp_spi.o(.text) for DspSpiWriteNByte
    os_manager.o(.text) refers to dspdrv.o(.text) for ReadDsp
    os_manager.o(.text) refers to dspdrv.o(.bss) for dsp_buf
    pcm_manager.o(.text) refers to dsp_spi.o(.text) for DspSpiWriteNByte
    pcm_manager.o(.text) refers to dspdrv.o(.text) for ReadDsp
    pcm_manager.o(.text) refers to dspdrv.o(.bss) for dsp_buf
    signalgenerator.o(.text) refers to dspdrv.o(.text) for DSPFirmwareWrite
    signalgenerator.o(.text) refers to switch8.o(.text) for __ARM_switch8
    signalgenerator.o(.text) refers to dsp_spi.o(.text) for DspSpiWriteNByte
    signalgenerator.o(.text) refers to dspdrv.o(.bss) for dsp_buf
    dts_es_manager.o(.text) refers to dsp_spi.o(.text) for DspSpiWriteNByte
    dts_es_manager.o(.text) refers to dspdrv.o(.bss) for dsp_buf
    dts_manager.o(.text) refers to dsp_spi.o(.text) for DspSpiWriteNByte
    dts_manager.o(.text) refers to dspdrv.o(.text) for ReadDsp
    dts_manager.o(.text) refers to dspdrv.o(.bss) for dsp_buf
    dts_neo6_manager.o(.text) refers to dsp_spi.o(.text) for DspSpiWriteNByte
    dts_neo6_manager.o(.text) refers to dspdrv.o(.text) for ReadDsp
    dts_neo6_manager.o(.text) refers to dspdrv.o(.bss) for dsp_buf
    dolbyplusmanager.o(.text) refers to dsp_spi.o(.text) for DspSpiWriteNByte
    dolbyplusmanager.o(.text) refers to dspdrv.o(.text) for ReadDsp
    dolbyplusmanager.o(.text) refers to dspdrv.o(.bss) for dsp_buf
    dolbytruehd.o(.text) refers to dsp_spi.o(.text) for DspSpiWriteNByte
    dolbytruehd.o(.text) refers to switch8.o(.text) for __ARM_switch8
    dolbytruehd.o(.text) refers to dspdrv.o(.text) for ReadDsp
    dolbytruehd.o(.text) refers to dspdrv.o(.bss) for dsp_buf
    dsp_api.o(.text) refers to switch8.o(.text) for __ARM_switch8
    dsp_api.o(.text) refers to dsp_spi.o(.text) for DspSpiWriteNByte
    dsp_api.o(.text) refers to dspdrv.o(.bss) for dsp_buf
    dsp_api.o(.text) refers to debug.o(.text) for debug_printf
    dsp_api.o(.text) refers to zone1_task.o(.text) for Zone1Mute
    dsp_api.o(.text) refers to timer.o(.text) for DelayMs
    dsp_api.o(.text) refers to zone1_task.o(.bss) for sys_flag
    dsp_api.o(.text) refers to dspdrv.o(.data) for PcmType
    dsp_api.o(.text) refers to dspdrv.o(.text) for ReadDsp
    dolbyheadphone.o(.text) refers to dsp_spi.o(.text) for DspSpiWriteNByte
    dolbyheadphone.o(.text) refers to dspdrv.o(.bss) for dsp_buf
    _printf_pad.o(.text) refers to callvia.o(.text) for __ARM_call_via_r2
    _printf_dec.o(.text) refers (Weak) to _printf_truncate.o(.text) for _printf_truncate_signed
    _printf_dec.o(.text) refers (Weak) to _printf_truncate.o(.text) for _printf_truncate_unsigned
    _printf_dec.o(.text) refers to rtudiv10.o(.text) for __rt_udiv10
    _printf_dec.o(.text) refers to _printf_intcommon.o(.text) for _printf_int_common
    vsprintf.o(.text) refers to _printf_char_common.o(.text) for _printf_char_common
    vsprintf.o(.text) refers to _sputc.o(.text) for _sputc
    vsprintf.o(.text) refers (Special) to _printf_charcount.o(.text) for _printf_charcount
    vsprintf.o(.text) refers (Special) to _printf_wctomb.o(.text) for _printf_wctomb
    vsprintf.o(.text) refers (Special) to _printf_truncate.o(.text) for _printf_truncate_unsigned
    vsprintf.o(.text) refers (Special) to _printf_str.o(.text) for _printf_str
    vsprintf.o(.text) refers (Special) to _printf_pad.o(.text) for _printf_pre_padding
    vsprintf.o(.text) refers (Special) to _printf_longlong_oct.o(.text) for _printf_longlong_oct
    vsprintf.o(.text) refers (Special) to _printf_longlong_hex.o(.text) for _printf_longlong_hex
    vsprintf.o(.text) refers (Special) to _printf_longlong_dec.o(.text) for _printf_longlong_dec
    vsprintf.o(.text) refers (Special) to _printf_dec.o(.text) for _printf_int_dec
    vsprintf.o(.text) refers (Special) to printf2.o(x$fpl$printf2) for _printf_fp_hex
    vsprintf.o(.text) refers (Special) to printf1.o(x$fpl$printf1) for _printf_fp_dec
    __0sprintf.o(.text) refers to _printf_char_common.o(.text) for _printf_char_common
    __0sprintf.o(.text) refers to _sputc.o(.text) for _sputc
    aeabi_memset.o(.text) refers to rt_memclr.o(.text) for _memset
    rt_memcpy.o(.text) refers to rt_memcpy_w.o(.text) for __aeabi_memcpy4
    strncpy.o(.text) refers to rt_memclr.o(.text) for __aeabi_memclr
    aeabi_sdiv.o(.text) refers to aeabi_idiv0.o(.text) for __aeabi_idiv0
    aeabi_sdiv.o(.text_udiv) refers to aeabi_sdiv.o(.text) for __arm_div4
    aeabi_sdiv_div0.o(.text) refers to aeabi_idiv0.o(.text) for __aeabi_idiv0
    aeabi_sdiv_div0.o(.text_udiv) refers to aeabi_sdiv_div0.o(.text) for __arm_div4
    divrt_7tdmi.o(x$divrt) refers to aeabi_idiv0.o(.text) for __aeabi_idiv0
    divrt_7tdmi_div0.o(x$divrt) refers to aeabi_idiv0.o(.text) for __aeabi_idiv0
    stkheap2.o(.text) refers to sys_stackheap_outer.o(.text) for __user_setup_stackheap
    stkheap2.o(.text) refers to rt_stackheap_storage_intlibspace.o(.text) for __rt_stackheap_storage
    __main.o(!!!main) refers to kernel.o(.text) for __rt_entry
    d2f.o(x$fpl$d2f) refers to dcheck1.o(x$fpl$dcheck1) for __fpl_dcheck_NaN1
    d2f.o(x$fpl$d2f) refers (Special) to usenofp.o(x$fpl$usenofp) for __I_use_fp
    d2f.o(x$fpl$d2f) refers (Special) to funder.o(x$fpl$funder) for __funder
    daddsub_noclz.o(x$fpl$dadd) refers to daddsub_noclz.o(x$fpl$dsub) for _dsub1
    daddsub_noclz.o(x$fpl$dadd) refers to dcheck.o(x$fpl$dcheck) for __fpl_dcheck_NaN2
    daddsub_noclz.o(x$fpl$dadd) refers (Special) to usenofp.o(x$fpl$usenofp) for __I_use_fp
    daddsub_noclz.o(x$fpl$dadd) refers (Special) to dunder.o(x$fpl$dunder) for __dunder_d
    daddsub_noclz.o(x$fpl$drsb) refers to daddsub_noclz.o(x$fpl$dadd) for _dadd1
    daddsub_noclz.o(x$fpl$drsb) refers to daddsub_noclz.o(x$fpl$dsub) for _dsub1
    daddsub_noclz.o(x$fpl$drsb) refers (Special) to usenofp.o(x$fpl$usenofp) for __I_use_fp
    daddsub_noclz.o(x$fpl$drsb) refers (Special) to dunder.o(x$fpl$dunder) for __dunder_d
    daddsub_noclz.o(x$fpl$dsub) refers to daddsub_noclz.o(x$fpl$dadd) for _dadd1
    daddsub_noclz.o(x$fpl$dsub) refers to dcheck.o(x$fpl$dcheck) for __fpl_dcheck_NaN2
    daddsub_noclz.o(x$fpl$dsub) refers (Special) to usenofp.o(x$fpl$usenofp) for __I_use_fp
    daddsub_noclz.o(x$fpl$dsub) refers (Special) to dunder.o(x$fpl$dunder) for __dunder_d
    ddiv.o(x$fpl$drdiv) refers to ddiv.o(x$fpl$ddiv) for ddiv_entry
    ddiv.o(x$fpl$drdiv) refers (Special) to usenofp.o(x$fpl$usenofp) for __I_use_fp
    ddiv.o(x$fpl$drdiv) refers (Special) to dunder.o(x$fpl$dunder) for __dunder
    ddiv.o(x$fpl$ddiv) refers to dcheck.o(x$fpl$dcheck) for __fpl_dcheck_NaN2
    ddiv.o(x$fpl$ddiv) refers (Special) to usenofp.o(x$fpl$usenofp) for __I_use_fp
    ddiv.o(x$fpl$ddiv) refers (Special) to dunder.o(x$fpl$dunder) for __dunder
    dflt_noclz.o(x$fpl$dfltu) refers to dflt_noclz.o(x$fpl$dflt) for __dflt_normalise
    dflt_noclz.o(x$fpl$dfltu) refers (Special) to usenofp.o(x$fpl$usenofp) for __I_use_fp
    dflt_noclz.o(x$fpl$dflt) refers (Special) to usenofp.o(x$fpl$usenofp) for __I_use_fp
    dmul.o(x$fpl$dmul) refers to dcheck.o(x$fpl$dcheck) for __fpl_dcheck_NaN2
    dmul.o(x$fpl$dmul) refers (Special) to usenofp.o(x$fpl$usenofp) for __I_use_fp
    dmul.o(x$fpl$dmul) refers (Special) to dunder.o(x$fpl$dunder) for __dunder
    f2d.o(x$fpl$f2d) refers to fcheck1.o(x$fpl$fcheck1) for __fpl_fcheck_NaN1
    f2d.o(x$fpl$f2d) refers (Special) to usenofp.o(x$fpl$usenofp) for __I_use_fp
    f2d.o(x$fpl$f2d) refers (Special) to dflt_noclz.o(x$fpl$dflt) for __dflt_normalise
    faddsub_noclz.o(x$fpl$fadd) refers to faddsub_noclz.o(x$fpl$fsub) for _fsub1
    faddsub_noclz.o(x$fpl$fadd) refers to fcheck.o(x$fpl$fcheck) for __fpl_fcheck_NaN2
    faddsub_noclz.o(x$fpl$fadd) refers (Special) to usenofp.o(x$fpl$usenofp) for __I_use_fp
    faddsub_noclz.o(x$fpl$fadd) refers (Special) to funder.o(x$fpl$funder) for __funder
    faddsub_noclz.o(x$fpl$frsb) refers to faddsub_noclz.o(x$fpl$fadd) for _fadd1
    faddsub_noclz.o(x$fpl$frsb) refers to faddsub_noclz.o(x$fpl$fsub) for _fsub1
    faddsub_noclz.o(x$fpl$frsb) refers (Special) to usenofp.o(x$fpl$usenofp) for __I_use_fp
    faddsub_noclz.o(x$fpl$frsb) refers (Special) to funder.o(x$fpl$funder) for __funder
    faddsub_noclz.o(x$fpl$fsub) refers to faddsub_noclz.o(x$fpl$fadd) for _fadd1
    faddsub_noclz.o(x$fpl$fsub) refers to fcheck.o(x$fpl$fcheck) for __fpl_fcheck_NaN2
    faddsub_noclz.o(x$fpl$fsub) refers (Special) to usenofp.o(x$fpl$usenofp) for __I_use_fp
    faddsub_noclz.o(x$fpl$fsub) refers (Special) to funder.o(x$fpl$funder) for __funder
    fdiv.o(x$fpl$frdiv) refers to fdiv.o(x$fpl$fdiv) for _fdiv1
    fdiv.o(x$fpl$frdiv) refers (Special) to usenofp.o(x$fpl$usenofp) for __I_use_fp
    fdiv.o(x$fpl$frdiv) refers (Special) to funder.o(x$fpl$funder) for __funder
    fdiv.o(x$fpl$frdiv) refers (Special) to fnorm2_noclz.o(x$fpl$fnorm2) for __fpl_normalise2
    fdiv.o(x$fpl$fdiv) refers to fcheck.o(x$fpl$fcheck) for __fpl_fcheck_NaN2
    fdiv.o(x$fpl$fdiv) refers (Special) to usenofp.o(x$fpl$usenofp) for __I_use_fp
    fdiv.o(x$fpl$fdiv) refers (Special) to funder.o(x$fpl$funder) for __funder
    fdiv.o(x$fpl$fdiv) refers (Special) to fnorm2_noclz.o(x$fpl$fnorm2) for __fpl_normalise2
    ffix.o(x$fpl$ffix) refers to fcheck1.o(x$fpl$fcheck1) for __fpl_fcheck_NaN1
    ffix.o(x$fpl$ffix) refers (Special) to usenofp.o(x$fpl$usenofp) for __I_use_fp
    ffix.o(x$fpl$ffixr) refers to fcheck1.o(x$fpl$fcheck1) for __fpl_fcheck_NaN1
    ffix.o(x$fpl$ffixr) refers (Special) to usenofp.o(x$fpl$usenofp) for __I_use_fp
    ffixu.o(x$fpl$ffixu) refers to fcheck1.o(x$fpl$fcheck1) for __fpl_fcheck_NaN1
    ffixu.o(x$fpl$ffixu) refers (Special) to usenofp.o(x$fpl$usenofp) for __I_use_fp
    ffixu.o(x$fpl$ffixur) refers to fcheck1.o(x$fpl$fcheck1) for __fpl_fcheck_NaN1
    ffixu.o(x$fpl$ffixur) refers (Special) to usenofp.o(x$fpl$usenofp) for __I_use_fp
    fflt_noclz.o(x$fpl$ffltu) refers to fflt_noclz.o(x$fpl$fflt) for __fflt_normalise
    fflt_noclz.o(x$fpl$ffltu) refers (Special) to usenofp.o(x$fpl$usenofp) for __I_use_fp
    fflt_noclz.o(x$fpl$fflt) refers (Special) to usenofp.o(x$fpl$usenofp) for __I_use_fp
    fmul.o(x$fpl$fmul) refers to fcheck.o(x$fpl$fcheck) for __fpl_fcheck_NaN2
    fmul.o(x$fpl$fmul) refers (Special) to usenofp.o(x$fpl$usenofp) for __I_use_fp
    fmul.o(x$fpl$fmul) refers (Special) to funder.o(x$fpl$funder) for __funder
    fmul.o(x$fpl$fmul) refers (Special) to fnorm2_noclz.o(x$fpl$fnorm2) for __fpl_normalise2
    dleqf.o(x$fpl$dleqf) refers to dcmpin.o(x$fpl$dcmpinfnan) for __fpl_dcmp_InfNaN
    dleqf.o(x$fpl$dleqf) refers (Special) to usenofp.o(x$fpl$usenofp) for __I_use_fp
    drleqf.o(x$fpl$drleqf) refers to dcmpin.o(x$fpl$dcmpinfnan) for __fpl_dcmp_InfNaN
    drleqf.o(x$fpl$drleqf) refers (Special) to usenofp.o(x$fpl$usenofp) for __I_use_fp
    feqf.o(x$fpl$feqf) refers to fcmpin.o(x$fpl$dcmpinfnan) for __fpl_fcmp_InfNaN
    feqf.o(x$fpl$feqf) refers (Special) to usenofp.o(x$fpl$usenofp) for __I_use_fp
    fleqf.o(x$fpl$fleqf) refers to fcmpin.o(x$fpl$dcmpinfnan) for __fpl_fcmp_InfNaN
    fleqf.o(x$fpl$fleqf) refers (Special) to usenofp.o(x$fpl$usenofp) for __I_use_fp
    frleqf.o(x$fpl$frleqf) refers to fcmpin.o(x$fpl$dcmpinfnan) for __fpl_fcmp_InfNaN
    frleqf.o(x$fpl$frleqf) refers (Special) to usenofp.o(x$fpl$usenofp) for __I_use_fp
    printf1.o(x$fpl$printf1) refers to _printf_fp_dec.o(.text) for _printf_fp_dec_real
    printf1.o(x$fpl$printf1) refers (Special) to usenofp.o(x$fpl$usenofp) for __I_use_fp
    pow.o(.text) refers to daddsub_noclz.o(x$fpl$dadd) for __aeabi_dadd
    pow.o(.text) refers to _rserrno.o(.text) for __set_errno
    pow.o(.text) refers to ddiv.o(x$fpl$ddiv) for __aeabi_ddiv
    pow.o(.text) refers to sqrt.o(.text) for sqrt
    pow.o(.text) refers to qnan.o(.constdata) for __mathlib_zero
    pow.o(.text) refers to dflt_noclz.o(x$fpl$dflt) for __aeabi_i2d
    pow.o(.text) refers to daddsub_noclz.o(x$fpl$dsub) for __aeabi_dsub
    pow.o(.text) refers to scalbn_noclz.o(x$fpl$scalbn) for scalbn
    pow.o(.text) refers to daddsub_noclz.o(x$fpl$drsb) for __aeabi_drsub
    pow.o(.text) refers to dmul.o(x$fpl$dmul) for __aeabi_dmul
    pow.o(.text) refers to poly.o(.text) for __kernel_poly
    pow.o(.text) refers to pow.o(.constdata) for .constdata
    pow.o(.text) refers to drleqf.o(x$fpl$drleqf) for __aeabi_cdrcmple
    pow.o(.text) refers to pow.o(i.copysign) for copysign
    pow.o(.text) refers (Special) to usenofp.o(x$fpl$usenofp) for __I_use_fp
    pow.o(.constdata) refers (Special) to usenofp.o(x$fpl$usenofp) for __I_use_fp
    kernel.o(.text) refers to stkheap2.o(.text) for __rt_stackheap_init
    kernel.o(.text) refers to boardinit2.o(.text) for _platform_post_stackheap_init
    kernel.o(.text) refers to lib_init.o(.text) for __rt_lib_init
    kernel.o(.text) refers to boardinit3.o(.text) for _platform_post_lib_init
    kernel.o(.text) refers to exit.o(.text) for exit
    kernel.o(.text) refers to main.o(.text) for main
    kernel.o(.text) refers to sys_exit.o(.text) for _sys_exit
    kernel.o(.ARM.exidx) refers to kernel.o(.text) for __rt_entry
    sys_stackheap_outer.o(.text) refers to libspace.o(.text) for __user_perproc_libspace
    sys_stackheap_outer.o(.text) refers to lpc2300.o(.text) for __user_initial_stackheap
    aeabi_idiv0_sigfpe.o(.text) refers to rt_div0.o(.text) for __rt_div0
    rt_stackheap_storage.o(.text) refers to rt_stackheap_storage.o(.bss) for __rt_stackheap_storage_data
    rt_stackheap_storage_intlibspace.o(.text) refers (Weak) to libspace.o(.bss) for __libspace_start
    rt_stackheap_storage_onelibspace.o(.text) refers (Weak) to libspace.o(.text) for __user_libspace
    rt_stackheap_storage_twolibspace.o(.text) refers (Weak) to libspace.o(.text) for __user_perproc_libspace
    _rserrno.o(.text) refers to rt_errno_addr_intlibspace.o(.text) for __aeabi_errno_addr
    _printf_str.o(.text) refers (Weak) to _printf_pad.o(.text) for _printf_pre_padding
    _printf_str.o(.text) refers to callvia.o(.text) for __ARM_call_via_r3
    _printf_str.o(.text) refers (Weak) to _printf_pad.o(.text) for _printf_post_padding
    _printf_wctomb.o(.text) refers to _wcrtomb.o(.text) for _wcrtomb
    _printf_wctomb.o(.text) refers (Weak) to _printf_pad.o(.text) for _printf_pre_padding
    _printf_wctomb.o(.text) refers to callvia.o(.text) for __ARM_call_via_r2
    _printf_wctomb.o(.text) refers (Weak) to _printf_pad.o(.text) for _printf_post_padding
    _printf_wctomb.o(.text) refers to _printf_wctomb.o(.constdata) for .constdata
    _printf_intcommon.o(.text) refers (Weak) to _printf_pad.o(.text) for _printf_pre_padding
    _printf_intcommon.o(.text) refers to callvia.o(.text) for __ARM_call_via_r2
    _printf_intcommon.o(.text) refers (Weak) to _printf_pad.o(.text) for _printf_pre_padding
    _printf_intcommon.o(.text) refers (Weak) to _printf_pad.o(.text) for _printf_post_padding
    _printf_longlong_hex.o(.text) refers (Weak) to _printf_truncate.o(.text) for _printf_truncate_unsigned
    _printf_longlong_hex.o(.text) refers to _printf_intcommon.o(.text) for _printf_int_common
    _printf_longlong_hex.o(.text) refers to _printf_longlong_hex.o(.constdata) for .constdata
    _printf_longlong_oct.o(.text) refers (Weak) to _printf_truncate.o(.text) for _printf_truncate_unsigned
    _printf_longlong_oct.o(.text) refers to _printf_intcommon.o(.text) for _printf_int_common
    _printf_longlong_dec.o(.text) refers to lludiv10.o(.text) for _ll_udiv10
    _printf_longlong_dec.o(.text) refers to _printf_intcommon.o(.text) for _printf_int_common
    _printf_fp_dec.o(.text) refers to dtoi.o(.text) for __support_dtoi
    _printf_fp_dec.o(.text) refers to istatus.o(x$fpl$ieeestatus) for __ieee_status
    _printf_fp_dec.o(.text) refers to bigflt0.o(.text) for _btod_etento
    _printf_fp_dec.o(.text) refers to btod.o(CL$$btod_d2e) for _btod_d2e
    _printf_fp_dec.o(.text) refers to btod.o(CL$$btod_ediv) for _btod_ediv
    _printf_fp_dec.o(.text) refers to btod.o(CL$$btod_emul) for _btod_emul
    _printf_fp_dec.o(.text) refers to lludiv10.o(.text) for _ll_udiv10
    _printf_fp_dec.o(.text) refers to aeabi_sdiv.o(.text) for __aeabi_idivmod
    _printf_fp_dec.o(.text) refers to rt_locale_intlibspace.o(.text) for __rt_locale
    _printf_fp_dec.o(.text) refers to classify.o(.text) for __mathlib_classify
    _printf_fp_dec.o(.text) refers (Weak) to _printf_pad.o(.text) for _printf_pre_padding
    _printf_fp_dec.o(.text) refers to callvia.o(.text) for __ARM_call_via_r2
    _printf_fp_dec.o(.text) refers (Weak) to _printf_pad.o(.text) for _printf_pre_padding
    _printf_fp_dec.o(.text) refers (Weak) to _printf_pad.o(.text) for _printf_post_padding
    _printf_fp_dec.o(.text) refers (Special) to usenofp.o(x$fpl$usenofp) for __I_use_fp
    _printf_fp_dec.o(.text) refers (Special) to lc_numeric_c.o(.text) for _get_lc_numeric
    _printf_char_common.o(.text) refers to __printf.o(.text) for __printf
    _printf_char_common.o(.text) refers to _printf_outstr_char.o(.text) for _printf_outstr_char
    _printf_char_common.o(.text) refers to _printf_input_char.o(.text) for _printf_input_char
    rt_memclr.o(.text) refers to rt_memclr_w.o(.text) for _memset_w
    dcheck.o(x$fpl$dcheck) refers to retnan.o(x$fpl$retnan) for __fpl_return_NaN
    dcheck.o(x$fpl$dcheck) refers (Special) to usenofp.o(x$fpl$usenofp) for __I_use_fp
    dcheck1.o(x$fpl$dcheck1) refers to retnan.o(x$fpl$retnan) for __fpl_return_NaN
    dcheck1.o(x$fpl$dcheck1) refers (Special) to usenofp.o(x$fpl$usenofp) for __I_use_fp
    dcmpin.o(x$fpl$dcmpinfnan) refers to dcheck.o(x$fpl$dcheck) for __fpl_dcheck_NaN2
    dcmpin.o(x$fpl$dcmpinfnan) refers to trapv.o(x$fpl$trapveneer) for __fpl_cmpreturn
    dcmpin.o(x$fpl$dcmpinfnan) refers (Special) to usenofp.o(x$fpl$usenofp) for __I_use_fp
    dunder.o(x$fpl$dunder) refers (Special) to usenofp.o(x$fpl$usenofp) for __I_use_fp
    fcheck.o(x$fpl$fcheck) refers to retnan.o(x$fpl$retnan) for __fpl_return_NaN
    fcheck.o(x$fpl$fcheck) refers (Special) to usenofp.o(x$fpl$usenofp) for __I_use_fp
    fcheck1.o(x$fpl$fcheck1) refers to retnan.o(x$fpl$retnan) for __fpl_return_NaN
    fcheck1.o(x$fpl$fcheck1) refers (Special) to usenofp.o(x$fpl$usenofp) for __I_use_fp
    fcmpin.o(x$fpl$dcmpinfnan) refers to fcheck.o(x$fpl$fcheck) for __fpl_fcheck_NaN2
    fcmpin.o(x$fpl$dcmpinfnan) refers to trapv.o(x$fpl$trapveneer) for __fpl_cmpreturn
    fcmpin.o(x$fpl$dcmpinfnan) refers (Special) to usenofp.o(x$fpl$usenofp) for __I_use_fp
    fnorm2_noclz.o(x$fpl$fnorm2) refers (Special) to usenofp.o(x$fpl$usenofp) for __I_use_fp
    funder.o(x$fpl$funder) refers (Special) to usenofp.o(x$fpl$usenofp) for __I_use_fp
    scalbn_noclz.o(x$fpl$scalbn) refers to dcheck1.o(x$fpl$dcheck1) for __fpl_dcheck_NaN1
    scalbn_noclz.o(x$fpl$scalbn) refers (Special) to usenofp.o(x$fpl$usenofp) for __I_use_fp
    printf2.o(x$fpl$printf2) refers (Special) to usenofp.o(x$fpl$usenofp) for __I_use_fp
    printf2a.o(x$fpl$printf2) refers (Special) to usenofp.o(x$fpl$usenofp) for __I_use_fp
    printf2b.o(x$fpl$printf2) refers to _printf_fp_hex.o(.text) for _printf_fp_hex_real
    printf2b.o(x$fpl$printf2) refers (Special) to usenofp.o(x$fpl$usenofp) for __I_use_fp
    poly.o(.text) refers to dmul.o(x$fpl$dmul) for __aeabi_dmul
    poly.o(.text) refers to daddsub_noclz.o(x$fpl$dadd) for __aeabi_dadd
    poly.o(.text) refers (Special) to usenofp.o(x$fpl$usenofp) for __I_use_fp
    qnan.o(.constdata) refers (Special) to usenofp.o(x$fpl$usenofp) for __I_use_fp
    sqrt.o(.text) refers to dleqf.o(x$fpl$dleqf) for __aeabi_cdcmple
    sqrt.o(.text) refers to _rserrno.o(.text) for __set_errno
    sqrt.o(.text) refers to dsqrt.o(x$fpl$dsqrt) for _dsqrt
    sqrt.o(.text) refers (Special) to usenofp.o(x$fpl$usenofp) for __I_use_fp
    sys_exit.o(.text) refers to use_no_semi.o(.text) for __I_use_semihosting
    libspace.o(.text) refers to libspace.o(.bss) for __libspace_start
    rt_div0.o(.text) refers to defsig_fpe_outer.o(.text) for __rt_SIGFPE
    rt_errno_addr.o(.text) refers to rt_errno_addr.o(.bss) for __aeabi_errno_addr_data
    rt_errno_addr_intlibspace.o(.text) refers (Weak) to libspace.o(.bss) for __libspace_start
    rt_errno_addr_onelibspace.o(.text) refers (Weak) to libspace.o(.text) for __user_libspace
    rt_errno_addr_twolibspace.o(.text) refers (Weak) to libspace.o(.text) for __user_perthread_libspace
    rt_locale.o(.text) refers to rt_locale.o(.bss) for __rt_locale_data
    rt_locale_intlibspace.o(.text) refers (Weak) to libspace.o(.bss) for __libspace_start
    rt_locale_onelibspace.o(.text) refers (Weak) to libspace.o(.text) for __user_libspace
    rt_locale_twolibspace.o(.text) refers (Weak) to libspace.o(.text) for __user_perproc_libspace
    bigflt0.o(.text) refers to aeabi_sdiv.o(.text) for __aeabi_idivmod
    bigflt0.o(.text) refers to btod.o(CL$$btod_emul) for _btod_emul
    bigflt0.o(.text) refers to btod.o(CL$$btod_ediv) for _btod_ediv
    bigflt0.o(.text) refers to bigflt0.o(.constdata) for .constdata
    bigflt0.o(.text) refers (Special) to usenofp.o(x$fpl$usenofp) for __I_use_fp
    bigflt0.o(.constdata) refers (Special) to usenofp.o(x$fpl$usenofp) for __I_use_fp
    btod.o(CL$$btod_d2e) refers to btod.o(CL$$btod_d2e_norm_op1) for _d2e_norm_op1
    btod.o(CL$$btod_d2e) refers (Special) to usenofp.o(x$fpl$usenofp) for __I_use_fp
    btod.o(CL$$btod_d2e_norm_op1) refers to btod.o(CL$$btod_d2e_denorm_low) for _d2e_denorm_low
    btod.o(CL$$btod_d2e_norm_op1) refers (Special) to usenofp.o(x$fpl$usenofp) for __I_use_fp
    btod.o(CL$$btod_d2e_denorm_low) refers (Special) to usenofp.o(x$fpl$usenofp) for __I_use_fp
    btod.o(CL$$btod_emul) refers to btod.o(CL$$btod_mult_common) for __btod_mult_common
    btod.o(CL$$btod_emul) refers to btod.o(CL$$btod_e2e) for _e2e
    btod.o(CL$$btod_emul) refers (Special) to usenofp.o(x$fpl$usenofp) for __I_use_fp
    btod.o(CL$$btod_ediv) refers to btod.o(CL$$btod_div_common) for __btod_div_common
    btod.o(CL$$btod_ediv) refers to btod.o(CL$$btod_e2e) for _e2e
    btod.o(CL$$btod_ediv) refers (Special) to usenofp.o(x$fpl$usenofp) for __I_use_fp
    btod.o(CL$$btod_emuld) refers to btod.o(CL$$btod_mult_common) for __btod_mult_common
    btod.o(CL$$btod_emuld) refers to btod.o(CL$$btod_e2d) for _e2d
    btod.o(CL$$btod_emuld) refers (Special) to usenofp.o(x$fpl$usenofp) for __I_use_fp
    btod.o(CL$$btod_edivd) refers to btod.o(CL$$btod_div_common) for __btod_div_common
    btod.o(CL$$btod_edivd) refers to btod.o(CL$$btod_e2d) for _e2d
    btod.o(CL$$btod_edivd) refers (Special) to usenofp.o(x$fpl$usenofp) for __I_use_fp
    btod.o(CL$$btod_e2e) refers (Special) to usenofp.o(x$fpl$usenofp) for __I_use_fp
    btod.o(CL$$btod_e2d) refers to btod.o(CL$$btod_e2e) for _e2e
    btod.o(CL$$btod_e2d) refers (Special) to usenofp.o(x$fpl$usenofp) for __I_use_fp
    btod.o(CL$$btod_mult_common) refers (Special) to usenofp.o(x$fpl$usenofp) for __I_use_fp
    btod.o(CL$$btod_div_common) refers (Special) to usenofp.o(x$fpl$usenofp) for __I_use_fp
    __printf.o(.text) refers to callvia.o(.text) for __ARM_call_via_r1
    __printf.o(.text) refers (Weak) to _printf_wctomb.o(.text) for _printf_wctomb
    __printf.o(.text) refers (Weak) to _printf_str.o(.text) for _printf_str
    __printf.o(.text) refers (Weak) to _printf_charcount.o(.text) for _printf_charcount
    __printf.o(.text) refers (Weak) to _printf_longlong_hex.o(.text) for _printf_longlong_hex
    __printf.o(.text) refers (Weak) to _printf_longlong_oct.o(.text) for _printf_longlong_oct
    __printf.o(.text) refers (Weak) to _printf_longlong_dec.o(.text) for _printf_longlong_dec
    __printf.o(.text) refers (Weak) to _printf_dec.o(.text) for _printf_int_dec
    __printf.o(.text) refers (Weak) to printf1.o(x$fpl$printf1) for _printf_fp_dec
    __printf.o(.text) refers (Weak) to printf2.o(x$fpl$printf2) for _printf_fp_hex
    __printf.o(.text) refers to __printf.o(.constdata) for .constdata
    _printf_fp_hex.o(.text) refers to classify.o(.text) for __mathlib_classify
    _printf_fp_hex.o(.text) refers to dtoi.o(.text) for __support_dtoi
    _printf_fp_hex.o(.text) refers to istatus.o(x$fpl$ieeestatus) for __ieee_status
    _printf_fp_hex.o(.text) refers to aeabi_sdiv.o(.text) for __aeabi_idivmod
    _printf_fp_hex.o(.text) refers (Weak) to _printf_pad.o(.text) for _printf_pre_padding
    _printf_fp_hex.o(.text) refers to callvia.o(.text) for __ARM_call_via_r2
    _printf_fp_hex.o(.text) refers (Weak) to _printf_pad.o(.text) for _printf_pre_padding
    _printf_fp_hex.o(.text) refers (Weak) to _printf_pad.o(.text) for _printf_post_padding
    _printf_fp_hex.o(.text) refers to _printf_fp_hex.o(.constdata) for .constdata
    _printf_fp_hex.o(.text) refers (Special) to usenofp.o(x$fpl$usenofp) for __I_use_fp
    _printf_fp_hex.o(.constdata) refers (Special) to usenofp.o(x$fpl$usenofp) for __I_use_fp
    _printf_outstr_char.o(.text) refers to callvia.o(.text) for __ARM_call_via_r2
    _wcrtomb.o(.text) refers to rt_ctype_table.o(.text) for __rt_ctype_table
    _wcrtomb.o(.text) refers to callvia.o(.text) for __ARM_call_via_r3
    lc_numeric_c.o(.text) refers to strcmp.o(.text) for strcmp
    lc_numeric_c.o(.text) refers to lc_numeric_c.o(.constdata) for .constdata
    exit.o(.text) refers to kernel.o(.text) for __rt_exit
    stkheap1.o(.text) refers to sys_stackheap_outer.o(.text) for __user_setup_stackheap
    stkheap1.o(.text) refers to rt_stackheap_storage_intlibspace.o(.text) for __rt_stackheap_storage
    stkheap1sc.o(.text) refers to sys_stackheap_outer.o(.text) for __user_setup_stackheap
    stkheap1sc.o(.text) refers to rt_stackheap_storage_intlibspace.o(.text) for __rt_stackheap_storage
    stkheap1sc.o(.text) refers to stkovf.o(.text) for __stack_overflow
    stkheap1sc.o(.text) refers to kernel.o(.text) for __rt_exit
    stkheap1sc.o(.text) refers to sys_exit.o(.text) for _sys_exit
    stkheap1sc.o(.text) refers to stacklimit.o(.bss) for __stack_limit
    stkheap1scss.o(.text) refers to sys_stackheap_outer.o(.text) for __user_setup_stackheap
    stkheap1scss.o(.text) refers to rt_stackheap_storage_intlibspace.o(.text) for __rt_stackheap_storage
    stkheap1scss.o(.text) refers to stack_cleanup.o(.text) for __user_stack_cleanup_space
    stkheap1scss.o(.text) refers to stkovf.o(.text) for __stack_overflow
    stkheap1scss.o(.text) refers to kernel.o(.text) for __rt_exit
    stkheap1scss.o(.text) refers to sys_exit.o(.text) for _sys_exit
    stkheap1scss.o(.text) refers to stacklimit.o(.bss) for __stack_limit
    stkheap2sc.o(.text) refers to sys_stackheap_outer.o(.text) for __user_setup_stackheap
    stkheap2sc.o(.text) refers to rt_stackheap_storage_intlibspace.o(.text) for __rt_stackheap_storage
    stkheap2sc.o(.text) refers to stkovf.o(.text) for __stack_overflow
    stkheap2sc.o(.text) refers to kernel.o(.text) for __rt_exit
    stkheap2sc.o(.text) refers to sys_exit.o(.text) for _sys_exit
    stkheap2sc.o(.text) refers to stacklimit.o(.bss) for __stack_limit
    stkheap2scss.o(.text) refers to sys_stackheap_outer.o(.text) for __user_setup_stackheap
    stkheap2scss.o(.text) refers to rt_stackheap_storage_intlibspace.o(.text) for __rt_stackheap_storage
    stkheap2scss.o(.text) refers to stack_cleanup.o(.text) for __user_stack_cleanup_space
    stkheap2scss.o(.text) refers to stkovf.o(.text) for __stack_overflow
    stkheap2scss.o(.text) refers to kernel.o(.text) for __rt_exit
    stkheap2scss.o(.text) refers to sys_exit.o(.text) for _sys_exit
    stkheap2scss.o(.text) refers to stacklimit.o(.bss) for __stack_limit
    lib_init.o(.emb_text) refers to no_argv.o(.text) for __ARM_get_argv
    lib_init.o(.text) refers to fpinit.o(x$fpl$fpinit) for _fp_init
    lib_init.o(.text) refers to lib_init.o(.emb_text) for __ARM_argv_veneer
    lib_init.o(.text) refers to rt_locale_intlibspace.o(.text) for __rt_locale
    lib_init.o(.text) refers (Weak) to lc_ctype_c.o(.text) for _get_lc_ctype
    lib_init.o(.text) refers (Weak) to lc_numeric_c.o(.text) for _get_lc_numeric
    dsqrt.o(x$fpl$dsqrt) refers to dcheck1.o(x$fpl$dcheck1) for __fpl_dcheck_NaN1
    dsqrt.o(x$fpl$dsqrt) refers (Special) to usenofp.o(x$fpl$usenofp) for __I_use_fp
    retnan.o(x$fpl$retnan) refers to trapv.o(x$fpl$trapveneer) for __fpl_cmpreturn
    retnan.o(x$fpl$retnan) refers (Special) to usenofp.o(x$fpl$usenofp) for __I_use_fp
    trapv.o(x$fpl$trapveneer) refers (Special) to usenofp.o(x$fpl$usenofp) for __I_use_fp
    istatus.o(x$fpl$ieeestatus) refers (Special) to usenofp.o(x$fpl$usenofp) for __I_use_fp
    classify.o(.text) refers to fpclassify.o(.text) for __ARM_fpclassify
    classify.o(.text) refers (Special) to usenofp.o(x$fpl$usenofp) for __I_use_fp
    dtoi.o(.text) refers to scalbn_noclz.o(x$fpl$scalbn) for scalbn
    dtoi.o(.text) refers (Special) to usenofp.o(x$fpl$usenofp) for __I_use_fp
    rt_ctype_table.o(.text) refers to rt_locale_intlibspace.o(.text) for __rt_locale
    rt_ctype_table.o(.text) refers to lc_ctype_c.o(.text) for _get_lc_ctype
    defsig_fpe_outer.o(.text) refers to defsig_fpe_inner.o(.text) for __rt_SIGFPE_inner
    defsig_fpe_outer.o(.text) refers to defsig_exit.o(.text) for __sig_exit
    defsig_fpe_formal.o(.text) refers to rt_raise.o(.text) for __rt_raise
    stkovf.o(.text) refers to defsig_stak_outer.o(.text) for __rt_SIGSTAK
    _get_argv.o(.text) refers to heapext.o(.text) for __heap_extend
    _get_argv.o(.text) refers to defsig_rtmem_outer.o(.text) for __rt_SIGRTMEM
    _get_argv.o(.text) refers to sys_command.o(.text) for _sys_command_string
    _get_argv.o(.text) refers (Special) to hrguard.o(.text) for __heap_region_guard
    fpinit.o(x$fpl$fpinit) refers to rt_fp_status_addr_intlibspace.o(.text) for __rt_fp_status_addr
    fpclassify.o(.text) refers (Special) to usenofp.o(x$fpl$usenofp) for __I_use_fp
    sys_command.o(.text) refers (Special) to use_no_semi.o(.text) for __I_use_semihosting
    rt_raise.o(.text) refers to __raise.o(.text) for __raise
    rt_raise.o(.text) refers to sys_exit.o(.text) for _sys_exit
    rt_fp_status_addr.o(.text) refers to rt_fp_status_addr.o(.bss) for __rt_fp_status_addr_data
    rt_fp_status_addr_intlibspace.o(.text) refers (Weak) to libspace.o(.bss) for __libspace_start
    rt_fp_status_addr_onelibspace.o(.text) refers (Weak) to libspace.o(.text) for __user_libspace
    rt_fp_status_addr_twolibspace.o(.text) refers (Weak) to libspace.o(.text) for __user_perthread_libspace
    lc_ctype_c.o(.text) refers to strcmp.o(.text) for strcmp
    lc_ctype_c.o(.text) refers to lc_ctype_c.o(.constdata) for .constdata
    defsig_exit.o(.text) refers to sys_exit.o(.text) for _sys_exit
    defsig_fpe_inner.o(.text) refers to defsig_general.o(.text) for __default_signal_display
    defsig_rtmem_outer.o(.text) refers to defsig_rtmem_inner.o(.text) for __rt_SIGRTMEM_inner
    defsig_rtmem_outer.o(.text) refers to defsig_exit.o(.text) for __sig_exit
    defsig_rtmem_formal.o(.text) refers to rt_raise.o(.text) for __rt_raise
    defsig_stak_outer.o(.text) refers to defsig_stak_inner.o(.text) for __rt_SIGSTAK_inner
    defsig_stak_outer.o(.text) refers to defsig_exit.o(.text) for __sig_exit
    defsig_stak_formal.o(.text) refers to rt_raise.o(.text) for __rt_raise
    heapext.o(.text) refers to stkheap2.o(.text) for __rt_heap_extend
    __raise.o(.text) refers to defsig.o(CL$$defsig) for __default_signal_handler
    __raise.o(.text) refers to callvia.o(.text) for __ARM_call_via_r2
    defsig_general.o(.text) refers to sys_wrch.o(.text) for _ttywrch
    defsig_rtmem_inner.o(.text) refers to defsig_general.o(.text) for __default_signal_display
    defsig_stak_inner.o(.text) refers to defsig_general.o(.text) for __default_signal_display
    sys_wrch.o(.text) refers (Special) to use_no_semi.o(.text) for __I_use_semihosting
    defsig.o(CL$$defsig) refers (Weak) to defsig_fpe_inner.o(.text) for __rt_SIGFPE_inner
    defsig.o(CL$$defsig) refers (Weak) to defsig_stak_inner.o(.text) for __rt_SIGSTAK_inner
    defsig.o(CL$$defsig) refers (Weak) to defsig_rtmem_inner.o(.text) for __rt_SIGRTMEM_inner
    pow.o(i.copysign) refers (Special) to usenofp.o(x$fpl$usenofp) for __I_use_fp


================================================================================

Removing Unused input sections from the image.

    Removing debug.o(.data), (76 bytes).
    Removing debug.o(.conststring), (220 bytes).
    Removing audiomanager.o(.text), (268 bytes).
    Removing pcm_manager.o(.text), (228 bytes).
    Removing dts_es_manager.o(.text), (168 bytes).
    Removing dts_manager.o(.text), (220 bytes).
    Removing dts_neo6_manager.o(.text), (424 bytes).
    Removing dolbyplusmanager.o(.text), (620 bytes).
    Removing dolbyheadphone.o(.text), (404 bytes).

9 unused section(s) (total 2628 bytes) removed from the image.

================================================================================

Adding Veneers to the image

    Adding TA veneer (4 bytes, Inline) for call to '__aeabi_idivmod' from queue.o(.text).
    Adding TA veneer (4 bytes, Inline) for call to '__aeabi_memcpy' from message.o(.text).
    Adding TA veneer (4 bytes, Inline) for call to '__aeabi_fmul' from rs232_protocol.o(.text).
    Adding TA veneer (4 bytes, Inline) for call to '__aeabi_i2f' from rs232_protocol.o(.text).
    Adding TA veneer (4 bytes, Inline) for call to '__aeabi_fadd' from rs232_protocol.o(.text).
    Adding TA veneer (4 bytes, Inline) for call to '__aeabi_fdiv' from rs232_protocol.o(.text).
    Adding TA veneer (4 bytes, Inline) for call to '__aeabi_f2d' from rs232_protocol.o(.text).
    Adding TA veneer (4 bytes, Inline) for call to '__ARM_switch8' from rs232_protocol.o(.text).
    Adding TA veneer (4 bytes, Inline) for call to '__aeabi_f2iz' from rs232_protocol.o(.text).
    Adding TA veneer (4 bytes, Inline) for call to '__aeabi_cdrcmple' from rs232_protocol.o(.text).
    Adding TA veneer (4 bytes, Inline) for call to '__aeabi_cdcmple' from rs232_protocol.o(.text).
    Adding TA veneer (4 bytes, Inline) for call to '__aeabi_cfrcmple' from rs232_protocol.o(.text).
    Adding TA veneer (4 bytes, Inline) for call to '__aeabi_f2uiz' from rs232_protocol.o(.text).
    Adding TA veneer (4 bytes, Inline) for call to '__aeabi_ui2f' from rs232_protocol.o(.text).
    Adding TA veneer (4 bytes, Inline) for call to '__aeabi_cfcmpeq' from rs232_protocol.o(.text).
    Adding TA veneer (4 bytes, Inline) for call to '__aeabi_cfcmple' from rs232_protocol.o(.text).
    Adding TA veneer (4 bytes, Inline) for call to '__aeabi_uidivmod' from rs232_protocol.o(.text).
    Adding TA veneer (4 bytes, Inline) for call to '__aeabi_ddiv' from setup_menu.o(.text).
    Adding TA veneer (4 bytes, Inline) for call to 'strncpy' from vfd_disp.o(.text).
    Adding TA veneer (4 bytes, Inline) for call to '__aeabi_memset' from vfd_disp.o(.text).
    Adding TA veneer (4 bytes, Inline) for call to '__aeabi_d2f' from auto_sound.o(.text).
    Adding TA veneer (4 bytes, Inline) for call to '__aeabi_dmul' from auto_sound.o(.text).
    Adding TA veneer (4 bytes, Inline) for call to '__aeabi_dsub' from auto_sound.o(.text).
    Adding TA veneer (4 bytes, Inline) for call to '__aeabi_fsub' from auto_sound.o(.text).
    Adding TA veneer (4 bytes, Inline) for call to '__aeabi_memcpy4' from auto_sound.o(.text).
    Adding AT veneer (8 bytes, Inline) for call to 'InQueue' from uart.o(.text).
    Adding AT veneer (8 bytes, Inline) for call to 'ir_core_philips' from ioport.o(.text).
    Adding AT veneer (12 bytes, Long) for call to 'ir2_core_philips' from ioport.o(.text).
    Adding TA veneer (4 bytes, Inline) for call to '__aeabi_ui2d' from ir.o(.text).
    Adding AT veneer (8 bytes, Inline) for call to 'VfdTimerHandler' from timer.o(.text).
    Adding AT veneer (12 bytes, Long) for call to 'RefreshHandle' from timer.o(.text).
    Adding AT veneer (12 bytes, Long) for call to 'MsgSetVfdShow' from timer.o(.text).
    Adding AT veneer (8 bytes, Inline) for call to 'MsgSetSoftMute' from timer.o(.text).
    Adding AT veneer (12 bytes, Long) for call to 'MsgSetDSPHDMISetting' from timer.o(.text).
    Adding TA veneer (4 bytes, Inline) for call to 'pow' from bassmanager.o(.text).
    Adding TA veneer (4 bytes, Inline) for call to '__rt_udiv10' from _printf_dec.o(.text).
    Adding AT veneer (8 bytes, Inline) for call to '__set_errno' from pow.o(.text).
    Adding AT veneer (8 bytes, Inline) for call to '__rt_lib_init' from kernel.o(.text).
    Adding AT veneer (12 bytes, Long) for call to '__rt_lib_shutdown' from kernel.o(.text).
    Adding TA veneer (4 bytes, Inline) for call to '__aeabi_errno_addr' from _rserrno.o(.text).
    Adding TA veneer (4 bytes, Inline) for call to '_ll_udiv10' from _printf_longlong_dec.o(.text).
    Adding TA veneer (4 bytes, Inline) for call to '__support_dtoi' from _printf_fp_dec.o(.text).
    Adding TA veneer (4 bytes, Inline) for call to '__ieee_status' from _printf_fp_dec.o(.text).
    Adding TA veneer (4 bytes, Inline) for call to '_btod_d2e' from _printf_fp_dec.o(.text).
    Adding TA veneer (4 bytes, Inline) for call to '_btod_ediv' from _printf_fp_dec.o(.text).
    Adding TA veneer (4 bytes, Inline) for call to '_btod_emul' from _printf_fp_dec.o(.text).
    Adding TA veneer (4 bytes, Inline) for call to '__rt_locale' from _printf_fp_dec.o(.text).
    Adding TA veneer (4 bytes, Inline) for call to '__mathlib_classify' from _printf_fp_dec.o(.text).
    Adding TA veneer (4 bytes, Inline) for call to '_printf_fp_dec' from __printf.o(.text).
    Adding TA veneer (4 bytes, Inline) for call to '_printf_fp_hex' from __printf.o(.text).
    Adding TA veneer (4 bytes, Inline) for call to '__rt_ctype_table' from _wcrtomb.o(.text).
    Adding TA veneer (4 bytes, Inline) for call to 'strcmp' from lc_numeric_c.o(.text).
    Adding TA veneer (8 bytes, Short) for call to '__rt_exit' from exit.o(.text).
    Adding TA veneer (4 bytes, Inline) for call to '_fp_init' from lib_init.o(.text).
    Adding TA veneer (4 bytes, Inline) for call to '__ARM_argv_veneer' from lib_init.o(.text).
    Adding AT veneer (12 bytes, Long) for call to '_printf_fp_dec_real' from printf1.o(x$fpl$printf1).

56 Veneer(s) (total 300 bytes) added to the image.

================================================================================

Image Symbol Table

    Local Symbols

    Symbol Name                              Value     Ov Type        Size  Object(Section)

    RESET                                    0x00000000   Section      364  lpc2300.o(RESET)
    ../../angel/boardlib.s                   0x00000000   Number         0  boardinit2.o ABSOLUTE
    ../../angel/boardlib.s                   0x00000000   Number         0  boardinit1.o ABSOLUTE
    ../../angel/boardlib.s                   0x00000000   Number         0  cpuinit.o ABSOLUTE
    ../../angel/boardlib.s                   0x00000000   Number         0  boardinit3.o ABSOLUTE
    ../../angel/boardlib.s                   0x00000000   Number         0  boardshut.o ABSOLUTE
    ../../angel/dczerorl2.s                  0x00000000   Number         0  __dczerorl2.o ABSOLUTE
    ../../angel/handlers.s                   0x00000000   Number         0  __scatter_zi.o ABSOLUTE
    ../../angel/kernel.s                     0x00000000   Number         0  kernel.o ABSOLUTE
    ../../angel/rt.s                         0x00000000   Number         0  rt_ctype_table.o ABSOLUTE
    ../../angel/rt.s                         0x00000000   Number         0  rt_fp_status_addr_intlibspace.o ABSOLUTE
    ../../angel/rt.s                         0x00000000   Number         0  rt_div0.o ABSOLUTE
    ../../angel/rt.s                         0x00000000   Number         0  rt_errno_addr.o ABSOLUTE
    ../../angel/rt.s                         0x00000000   Number         0  rt_fp_status_addr.o ABSOLUTE
    ../../angel/rt.s                         0x00000000   Number         0  rt_raise.o ABSOLUTE
    ../../angel/rt.s                         0x00000000   Number         0  rt_stackheap_storage_twolibspace.o ABSOLUTE
    ../../angel/rt.s                         0x00000000   Number         0  rt_fp_status_addr_onelibspace.o ABSOLUTE
    ../../angel/rt.s                         0x00000000   Number         0  rt_errno_addr_onelibspace.o ABSOLUTE
    ../../angel/rt.s                         0x00000000   Number         0  rt_errno_addr_twolibspace.o ABSOLUTE
    ../../angel/rt.s                         0x00000000   Number         0  rt_errno_addr_intlibspace.o ABSOLUTE
    ../../angel/rt.s                         0x00000000   Number         0  rt_locale_intlibspace.o ABSOLUTE
    ../../angel/rt.s                         0x00000000   Number         0  rt_locale_onelibspace.o ABSOLUTE
    ../../angel/rt.s                         0x00000000   Number         0  stack_cleanup.o ABSOLUTE
    ../../angel/rt.s                         0x00000000   Number         0  rt_locale_twolibspace.o ABSOLUTE
    ../../angel/rt.s                         0x00000000   Number         0  aeabi_idiv0.o ABSOLUTE
    ../../angel/rt.s                         0x00000000   Number         0  aeabi_idiv0_sigfpe.o ABSOLUTE
    ../../angel/rt.s                         0x00000000   Number         0  rt_stackheap_storage.o ABSOLUTE
    ../../angel/rt.s                         0x00000000   Number         0  rt_stackheap_storage_intlibspace.o ABSOLUTE
    ../../angel/rt.s                         0x00000000   Number         0  rt_stackheap_storage_onelibspace.o ABSOLUTE
    ../../angel/rt.s                         0x00000000   Number         0  rt_fp_status_addr_twolibspace.o ABSOLUTE
    ../../angel/rt.s                         0x00000000   Number         0  rt_locale.o ABSOLUTE
    ../../angel/scatter.s                    0x00000000   Number         0  __scatter.o ABSOLUTE
    ../../angel/startup.s                    0x00000000   Number         0  __main.o ABSOLUTE
    ../../angel/sys.s                        0x00000000   Number         0  libspace.o ABSOLUTE
    ../../angel/sys.s                        0x00000000   Number         0  sys_stackheap_outer.o ABSOLUTE
    ../../angel/sys.s                        0x00000000   Number         0  use_no_semi.o ABSOLUTE
    ../../angel/sys.s                        0x00000000   Number         0  sys_exit.o ABSOLUTE
    ../../angel/sysapp.c                     0x00000000   Number         0  sys_wrch.o ABSOLUTE
    ../../angel/sysapp.c                     0x00000000   Number         0  sys_command.o ABSOLUTE
    ../../armsys.c                           0x00000000   Number         0  lib_init.o ABSOLUTE
    ../../armsys.c                           0x00000000   Number         0  _get_argv.o ABSOLUTE
    ../../armsys.c                           0x00000000   Number         0  no_argv.o ABSOLUTE
    ../../armsys.c                           0x00000000   Number         0  lib_init.o ABSOLUTE
    ../../bigflt.c                           0x00000000   Number         0  bigflt0.o ABSOLUTE
    ../../btod.s                             0x00000000   Number         0  btod.o ABSOLUTE
    ../../classify.c                         0x00000000   Number         0  classify.o ABSOLUTE
    ../../d2f.s                              0x00000000   Number         0  d2f.o ABSOLUTE
    ../../daddsub.s                          0x00000000   Number         0  daddsub_noclz.o ABSOLUTE
    ../../dcheck.s                           0x00000000   Number         0  dcheck.o ABSOLUTE
    ../../dcheck1.s                          0x00000000   Number         0  dcheck1.o ABSOLUTE
    ../../dcmpin.s                           0x00000000   Number         0  dcmpin.o ABSOLUTE
    ../../ddiv.s                             0x00000000   Number         0  ddiv.o ABSOLUTE
    ../../dflt.s                             0x00000000   Number         0  dflt_noclz.o ABSOLUTE
    ../../division.s                         0x00000000   Number         0  aeabi_sdiv_div0.o ABSOLUTE
    ../../division.s                         0x00000000   Number         0  rtudiv10.o ABSOLUTE
    ../../division.s                         0x00000000   Number         0  aeabi_sdiv.o ABSOLUTE
    ../../divrt.s                            0x00000000   Number         0  divrt_7tdmi.o ABSOLUTE
    ../../divrt.s                            0x00000000   Number         0  divrt_7tdmi_div0.o ABSOLUTE
    ../../dleqf.s                            0x00000000   Number         0  dleqf.o ABSOLUTE
    ../../dmul.s                             0x00000000   Number         0  dmul.o ABSOLUTE
    ../../drleqf.s                           0x00000000   Number         0  drleqf.o ABSOLUTE
    ../../dsqrt.s                            0x00000000   Number         0  dsqrt.o ABSOLUTE
    ../../dtoi.c                             0x00000000   Number         0  dtoi.o ABSOLUTE
    ../../dunder.s                           0x00000000   Number         0  dunder.o ABSOLUTE
    ../../f2d.s                              0x00000000   Number         0  f2d.o ABSOLUTE
    ../../faddsub.s                          0x00000000   Number         0  faddsub_noclz.o ABSOLUTE
    ../../fcheck.s                           0x00000000   Number         0  fcheck.o ABSOLUTE
    ../../fcheck1.s                          0x00000000   Number         0  fcheck1.o ABSOLUTE
    ../../fcmpin.s                           0x00000000   Number         0  fcmpin.o ABSOLUTE
    ../../fdiv.s                             0x00000000   Number         0  fdiv.o ABSOLUTE
    ../../fenv.c                             0x00000000   Number         0  _rserrno.o ABSOLUTE
    ../../feqf.s                             0x00000000   Number         0  feqf.o ABSOLUTE
    ../../ffix.s                             0x00000000   Number         0  ffix.o ABSOLUTE
    ../../ffixu.s                            0x00000000   Number         0  ffixu.o ABSOLUTE
    ../../fflt.s                             0x00000000   Number         0  fflt_noclz.o ABSOLUTE
    ../../fleqf.s                            0x00000000   Number         0  fleqf.o ABSOLUTE
    ../../fmul.s                             0x00000000   Number         0  fmul.o ABSOLUTE
    ../../fnorm2.s                           0x00000000   Number         0  fnorm2_noclz.o ABSOLUTE
    ../../fpclassify.c                       0x00000000   Number         0  fpclassify.o ABSOLUTE
    ../../fpinit.s                           0x00000000   Number         0  fpinit.o ABSOLUTE
    ../../frleqf.s                           0x00000000   Number         0  frleqf.o ABSOLUTE
    ../../funder.s                           0x00000000   Number         0  funder.o ABSOLUTE
    ../../heapalloc.c                        0x00000000   Number         0  hrguard.o ABSOLUTE
    ../../istatus.s                          0x00000000   Number         0  istatus.o ABSOLUTE
    ../../locale.c                           0x00000000   Number         0  lc_numeric_c.o ABSOLUTE
    ../../locale.c                           0x00000000   Number         0  _wcrtomb.o ABSOLUTE
    ../../locale.c                           0x00000000   Number         0  lc_ctype_c.o ABSOLUTE
    ../../longlong.s                         0x00000000   Number         0  lludiv10.o ABSOLUTE
    ../../memcpset.s                         0x00000000   Number         0  strncpy.o ABSOLUTE
    ../../memcpset.s                         0x00000000   Number         0  rt_memclr.o ABSOLUTE
    ../../memcpset.s                         0x00000000   Number         0  strcmp.o ABSOLUTE
    ../../memcpset.s                         0x00000000   Number         0  rt_memclr_w.o ABSOLUTE
    ../../memcpset.s                         0x00000000   Number         0  rt_memcpy_w.o ABSOLUTE
    ../../memcpset.s                         0x00000000   Number         0  rt_memcpy.o ABSOLUTE
    ../../memcpset.s                         0x00000000   Number         0  aeabi_memset.o ABSOLUTE
    ../../poly.c                             0x00000000   Number         0  poly.o ABSOLUTE
    ../../pow.c                              0x00000000   Number         0  pow.o ABSOLUTE
    ../../printf.c                           0x00000000   Number         0  _sputc.o ABSOLUTE
    ../../printf.c                           0x00000000   Number         0  _printf_longlong_oct.o ABSOLUTE
    ../../printf.c                           0x00000000   Number         0  _printf_input_char.o ABSOLUTE
    ../../printf.c                           0x00000000   Number         0  _printf_outstr_char.o ABSOLUTE
    ../../printf.c                           0x00000000   Number         0  _printf_truncate.o ABSOLUTE
    ../../printf.c                           0x00000000   Number         0  _printf_str.o ABSOLUTE
    ../../printf.c                           0x00000000   Number         0  __0sprintf.o ABSOLUTE
    ../../printf.c                           0x00000000   Number         0  vsprintf.o ABSOLUTE
    ../../printf.c                           0x00000000   Number         0  _printf_fp_hex.o ABSOLUTE
    ../../printf.c                           0x00000000   Number         0  _printf_wctomb.o ABSOLUTE
    ../../printf.c                           0x00000000   Number         0  _printf_dec.o ABSOLUTE
    ../../printf.c                           0x00000000   Number         0  _printf_pad.o ABSOLUTE
    ../../printf.c                           0x00000000   Number         0  _printf_intcommon.o ABSOLUTE
    ../../printf.c                           0x00000000   Number         0  _printf_longlong_dec.o ABSOLUTE
    ../../printf.c                           0x00000000   Number         0  _printf_charcount.o ABSOLUTE
    ../../printf.c                           0x00000000   Number         0  _printf_fp_dec.o ABSOLUTE
    ../../printf.c                           0x00000000   Number         0  _printf_longlong_hex.o ABSOLUTE
    ../../printf.c                           0x00000000   Number         0  _printf_char_common.o ABSOLUTE
    ../../printf.c                           0x00000000   Number         0  __printf.o ABSOLUTE
    ../../printf1.s                          0x00000000   Number         0  printf1.o ABSOLUTE
    ../../printf2.s                          0x00000000   Number         0  printf2.o ABSOLUTE
    ../../printf2a.s                         0x00000000   Number         0  printf2a.o ABSOLUTE
    ../../printf2b.s                         0x00000000   Number         0  printf2b.o ABSOLUTE
    ../../qnan.c                             0x00000000   Number         0  qnan.o ABSOLUTE
    ../../retnan.s                           0x00000000   Number         0  retnan.o ABSOLUTE
    ../../scalbn.s                           0x00000000   Number         0  scalbn_noclz.o ABSOLUTE
    ../../signal.c                           0x00000000   Number         0  defsig_stak_outer.o ABSOLUTE
    ../../signal.c                           0x00000000   Number         0  defsig_rtmem_formal.o ABSOLUTE
    ../../signal.c                           0x00000000   Number         0  defsig_rtmem_outer.o ABSOLUTE
    ../../signal.c                           0x00000000   Number         0  defsig_fpe_inner.o ABSOLUTE
    ../../signal.c                           0x00000000   Number         0  __raise.o ABSOLUTE
    ../../signal.c                           0x00000000   Number         0  defsig_fpe_formal.o ABSOLUTE
    ../../signal.c                           0x00000000   Number         0  defsig_exit.o ABSOLUTE
    ../../signal.c                           0x00000000   Number         0  defsig_stak_inner.o ABSOLUTE
    ../../signal.c                           0x00000000   Number         0  defsig_rtmem_inner.o ABSOLUTE
    ../../signal.c                           0x00000000   Number         0  defsig_general.o ABSOLUTE
    ../../signal.c                           0x00000000   Number         0  defsig_fpe_outer.o ABSOLUTE
    ../../signal.c                           0x00000000   Number         0  defsig_stak_formal.o ABSOLUTE
    ../../signal.s                           0x00000000   Number         0  defsig.o ABSOLUTE
    ../../sqrt.c                             0x00000000   Number         0  sqrt.o ABSOLUTE
    ../../stdlib.c                           0x00000000   Number         0  exit.o ABSOLUTE
    ../../stkheap.s                          0x00000000   Number         0  stacklimit.o ABSOLUTE
    ../../stkheap.s                          0x00000000   Number         0  stkovf.o ABSOLUTE
    ../../stkheap.s                          0x00000000   Number         0  heapext.o ABSOLUTE
    ../../stkheap1.s                         0x00000000   Number         0  stkheap1.o ABSOLUTE
    ../../stkheap1.s                         0x00000000   Number         0  stkheap1sc.o ABSOLUTE
    ../../stkheap1.s                         0x00000000   Number         0  stkheap1scss.o ABSOLUTE
    ../../stkheap2.s                         0x00000000   Number         0  stkheap2.o ABSOLUTE
    ../../stkheap2.s                         0x00000000   Number         0  stkheap2sc.o ABSOLUTE
    ../../stkheap2.s                         0x00000000   Number         0  stkheap2scss.o ABSOLUTE
    ../../string.c                           0x00000000   Number         0  strlen.o ABSOLUTE
    ../../trapv.s                            0x00000000   Number         0  trapv.o ABSOLUTE
    ../../unhosted.s                         0x00000000   Number         0  switch8.o ABSOLUTE
    ../../unhosted.s                         0x00000000   Number         0  callvia.o ABSOLUTE
    ../../usenofp.s                          0x00000000   Number         0  usenofp.o ABSOLUTE
    Sourcecode\cs495300\AudioManager.c       0x00000000   Number         0  audiomanager.o ABSOLUTE
    Sourcecode\cs495300\BassManager.c        0x00000000   Number         0  bassmanager.o ABSOLUTE
    Sourcecode\cs495300\DSP_API.c            0x00000000   Number         0  dsp_api.o ABSOLUTE
    Sourcecode\cs495300\DTS_ES_Manager.c     0x00000000   Number         0  dts_es_manager.o ABSOLUTE
    Sourcecode\cs495300\DTS_Manager.c        0x00000000   Number         0  dts_manager.o ABSOLUTE
    Sourcecode\cs495300\DTS_NEO6_Manager.c   0x00000000   Number         0  dts_neo6_manager.o ABSOLUTE
    Sourcecode\cs495300\DelayManager.c       0x00000000   Number         0  delaymanager.o ABSOLUTE
    Sourcecode\cs495300\DolbyHeadphone.c     0x00000000   Number         0  dolbyheadphone.o ABSOLUTE
    Sourcecode\cs495300\DolbyManager.c       0x00000000   Number         0  dolbymanager.o ABSOLUTE
    Sourcecode\cs495300\DolbyPlusManager.c   0x00000000   Number         0  dolbyplusmanager.o ABSOLUTE
    Sourcecode\cs495300\DolbyProLogicII.c    0x00000000   Number         0  dolbyprologicii.o ABSOLUTE
    Sourcecode\cs495300\DolbyProLogicIIx.c   0x00000000   Number         0  dolbyprologiciix.o ABSOLUTE
    Sourcecode\cs495300\DolbyTrueHD.c        0x00000000   Number         0  dolbytruehd.o ABSOLUTE
    Sourcecode\cs495300\DspInputOutputCfg.c  0x00000000   Number         0  dspinputoutputcfg.o ABSOLUTE
    Sourcecode\cs495300\Dsp_task.c           0x00000000   Number         0  dsp_task.o ABSOLUTE
    Sourcecode\cs495300\Eq_Manager.c         0x00000000   Number         0  eq_manager.o ABSOLUTE
    Sourcecode\cs495300\Irc1_Manager.c       0x00000000   Number         0  irc1_manager.o ABSOLUTE
    Sourcecode\cs495300\Irc2_Manager.c       0x00000000   Number         0  irc2_manager.o ABSOLUTE
    Sourcecode\cs495300\OS_Manager.c         0x00000000   Number         0  os_manager.o ABSOLUTE
    Sourcecode\cs495300\PCM_Manager.c        0x00000000   Number         0  pcm_manager.o ABSOLUTE
    Sourcecode\cs495300\SignalGenerator.c    0x00000000   Number         0  signalgenerator.o ABSOLUTE
    Sourcecode\cs495300\dspdrv.c             0x00000000   Number         0  dspdrv.o ABSOLUTE
    Sourcecode\driver\Dsp_Spi.c              0x00000000   Number         0  dsp_spi.o ABSOLUTE
    Sourcecode\driver\IC4094.c               0x00000000   Number         0  ic4094.o ABSOLUTE
    Sourcecode\driver\Ioport.c               0x00000000   Number         0  ioport.o ABSOLUTE
    Sourcecode\driver\channel.c              0x00000000   Number         0  channel.o ABSOLUTE
    Sourcecode\driver\cs8416.c               0x00000000   Number         0  cs8416.o ABSOLUTE
    Sourcecode\driver\dac.c                  0x00000000   Number         0  dac.o ABSOLUTE
    Sourcecode\driver\eeprom.c               0x00000000   Number         0  eeprom.o ABSOLUTE
    Sourcecode\driver\hdmi.c                 0x00000000   Number         0  hdmi.o ABSOLUTE
    Sourcecode\driver\i2cdrv.c               0x00000000   Number         0  i2cdrv.o ABSOLUTE
    Sourcecode\driver\ic165.c                0x00000000   Number         0  ic165.o ABSOLUTE
    Sourcecode\driver\ir.c                   0x00000000   Number         0  ir.o ABSOLUTE
    Sourcecode\driver\mas9116.c              0x00000000   Number         0  mas9116.o ABSOLUTE
    Sourcecode\driver\max335.c               0x00000000   Number         0  max335.o ABSOLUTE
    Sourcecode\driver\timer.c                0x00000000   Number         0  timer.o ABSOLUTE
    Sourcecode\driver\tuner.c                0x00000000   Number         0  tuner.o ABSOLUTE
    Sourcecode\driver\uart.c                 0x00000000   Number         0  uart.o ABSOLUTE
    Sourcecode\driver\vfddriver.c            0x00000000   Number         0  vfddriver.o ABSOLUTE
    Sourcecode\driver\volume.c               0x00000000   Number         0  volume.o ABSOLUTE
    Sourcecode\main\Menu_tbl.c               0x00000000   Number         0  menu_tbl.o ABSOLUTE
    Sourcecode\main\Zone1_task.c             0x00000000   Number         0  zone1_task.o ABSOLUTE
    Sourcecode\main\auto_sound.c             0x00000000   Number         0  auto_sound.o ABSOLUTE
    Sourcecode\main\c11_msg_handler.c        0x00000000   Number         0  c11_msg_handler.o ABSOLUTE
    Sourcecode\main\debug.c                  0x00000000   Number         0  debug.o ABSOLUTE
    Sourcecode\main\key_tab.c                0x00000000   Number         0  key_tab.o ABSOLUTE
    Sourcecode\main\key_task.c               0x00000000   Number         0  key_task.o ABSOLUTE
    Sourcecode\main\main.c                   0x00000000   Number         0  main.o ABSOLUTE
    Sourcecode\main\message.c                0x00000000   Number         0  message.o ABSOLUTE
    Sourcecode\main\queue.c                  0x00000000   Number         0  queue.o ABSOLUTE
    Sourcecode\main\radio_task.c             0x00000000   Number         0  radio_task.o ABSOLUTE
    Sourcecode\main\rs232_protocol.c         0x00000000   Number         0  rs232_protocol.o ABSOLUTE
    Sourcecode\main\setup_func.c             0x00000000   Number         0  setup_func.o ABSOLUTE
    Sourcecode\main\setup_menu.c             0x00000000   Number         0  setup_menu.o ABSOLUTE
    Sourcecode\main\task.c                   0x00000000   Number         0  task.o ABSOLUTE
    Sourcecode\main\vfd_disp.c               0x00000000   Number         0  vfd_disp.o ABSOLUTE
    Sourcecode\main\zone2_task.c             0x00000000   Number         0  zone2_task.o ABSOLUTE
    Sourcecode\startup\LPC2300.s             0x00000000   Number         0  lpc2300.o ABSOLUTE
    dc.s                                     0x00000000   Number         0  dc.o ABSOLUTE
    Undef_Handler                            0x00000040   ARM Code       4  lpc2300.o(RESET)
    SWI_Handler                              0x00000044   ARM Code       4  lpc2300.o(RESET)
    PAbt_Handler                             0x00000048   ARM Code       4  lpc2300.o(RESET)
    DAbt_Handler                             0x0000004c   ARM Code       4  lpc2300.o(RESET)
    IRQ_Handler                              0x00000050   ARM Code       4  lpc2300.o(RESET)
    FIQ_Handler                              0x00000054   ARM Code       4  lpc2300.o(RESET)
    !!!main                                  0x0000016c   Section        8  __main.o(!!!main)
    !!!scatter                               0x00000174   Section       56  __scatter.o(!!!scatter)
    !!dczerorl2                              0x000001ac   Section       92  __dczerorl2.o(!!dczerorl2)
    _decompress_loop                         0x000001b7   Thumb Code     0  __dczerorl2.o(!!dczerorl2)
    _decompress_zerolen                      0x000001c5   Thumb Code     0  __dczerorl2.o(!!dczerorl2)
    _decompress_litn                         0x000001cd   Thumb Code     0  __dczerorl2.o(!!dczerorl2)
    _decompress_lit                          0x000001d1   Thumb Code     0  __dczerorl2.o(!!dczerorl2)
    _decompress_copyorzero                   0x000001dd   Thumb Code     0  __dczerorl2.o(!!dczerorl2)
    _decompress_zero                         0x000001e5   Thumb Code     0  __dczerorl2.o(!!dczerorl2)
    _decompress_copyn                        0x000001ef   Thumb Code     0  __dczerorl2.o(!!dczerorl2)
    _decompress_copy                         0x000001f7   Thumb Code     0  __dczerorl2.o(!!dczerorl2)
    _decompress_end                          0x00000203   Thumb Code     0  __dczerorl2.o(!!dczerorl2)
    !!handler_zi                             0x00000208   Section       44  __scatter_zi.o(!!handler_zi)
    .emb_text                                0x00000238   Section       16  lib_init.o(.emb_text)
    .text                                    0x00000248   Section       32  lpc2300.o(.text)
    .text                                    0x00000268   Section      268  main.o(.text)
    .text                                    0x00000374   Section      200  debug.o(.text)
    .text                                    0x00000444   Section      356  queue.o(.text)
    .text                                    0x000005a8   Section      132  c11_msg_handler.o(.text)
    .text                                    0x0000062c   Section     1056  key_task.o(.text)
    panel_convert_key_value                  0x0000062d   Thumb Code    42  key_task.o(.text)
    read_key                                 0x000006f1   Thumb Code   166  key_task.o(.text)
    proc_key_press                           0x00000911   Thumb Code    24  key_task.o(.text)
    proc_key_hold                            0x00000929   Thumb Code    30  key_task.o(.text)
    GetPanelKeyThread                        0x00000947   Thumb Code    94  key_task.o(.text)
    .text                                    0x00000a4c   Section      412  message.o(.text)
    IsMsgQueueEmpty                          0x00000a5d   Thumb Code    24  message.o(.text)
    IsMsgQueueFull                           0x00000a75   Thumb Code    38  message.o(.text)
    .text                                    0x00000be8   Section    28484  rs232_protocol.o(.text)
    |L1.3572|                                0x000019dc   Data           0  rs232_protocol.o(.text)
    |L1.3584|                                0x000019e8   Data           0  rs232_protocol.o(.text)
    |L1.4720|                                0x00001e58   Data           0  rs232_protocol.o(.text)
    |L1.4840|                                0x00001ed0   Data           0  rs232_protocol.o(.text)
    |L1.19796|                               0x0000593c   Data           0  rs232_protocol.o(.text)
    |L1.19988|                               0x000059fc   Data           0  rs232_protocol.o(.text)
    |L1.20008|                               0x00005a10   Data           0  rs232_protocol.o(.text)
    |L1.20028|                               0x00005a24   Data           0  rs232_protocol.o(.text)
    |L1.20048|                               0x00005a38   Data           0  rs232_protocol.o(.text)
    .text                                    0x00007b2c   Section     6540  setup_func.o(.text)
    .text                                    0x000094b8   Section     6432  setup_menu.o(.text)
    |L1.1068|                                0x000098e4   Data           0  setup_menu.o(.text)
    |L1.5588|                                0x0000aa8c   Data           0  setup_menu.o(.text)
    .text                                    0x0000add8   Section      120  task.o(.text)
    .text                                    0x0000ae58   Section      620  vfd_disp.o(.text)
    .text                                    0x0000b0cc   Section    12152  zone1_task.o(.text)
    |L1.1612|                                0x0000b718   Data           0  zone1_task.o(.text)
    |L1.1624|                                0x0000b724   Data           0  zone1_task.o(.text)
    |L1.1632|                                0x0000b72c   Data           0  zone1_task.o(.text)
    |L1.1640|                                0x0000b734   Data           0  zone1_task.o(.text)
    |L1.1648|                                0x0000b73c   Data           0  zone1_task.o(.text)
    |L1.1660|                                0x0000b748   Data           0  zone1_task.o(.text)
    |L1.1668|                                0x0000b750   Data           0  zone1_task.o(.text)
    |L1.1676|                                0x0000b758   Data           0  zone1_task.o(.text)
    |L1.1692|                                0x0000b768   Data           0  zone1_task.o(.text)
    |L1.1704|                                0x0000b774   Data           0  zone1_task.o(.text)
    |L1.1712|                                0x0000b77c   Data           0  zone1_task.o(.text)
    |L1.1736|                                0x0000b794   Data           0  zone1_task.o(.text)
    |L1.1760|                                0x0000b7ac   Data           0  zone1_task.o(.text)
    |L1.2972|                                0x0000bc68   Data           0  zone1_task.o(.text)
    |L1.2992|                                0x0000bc7c   Data           0  zone1_task.o(.text)
    |L1.4844|                                0x0000c3b8   Data           0  zone1_task.o(.text)
    |L1.7084|                                0x0000cc78   Data           0  zone1_task.o(.text)
    |L1.7100|                                0x0000cc88   Data           0  zone1_task.o(.text)
    Zone1ProcessKey                          0x0000d52d   Thumb Code  1476  zone1_task.o(.text)
    .text                                    0x0000e044   Section     2172  zone2_task.o(.text)
    Zone2ProcessKey                          0x0000e2cd   Thumb Code   816  zone2_task.o(.text)
    .text                                    0x0000e8c0   Section     8964  auto_sound.o(.text)
    |L1.2220|                                0x0000f16c   Data           0  auto_sound.o(.text)
    |L1.2256|                                0x0000f190   Data           0  auto_sound.o(.text)
    GetCrossoverPoint                        0x0000ffb5   Thumb Code    48  auto_sound.o(.text)
    |L1.6752|                                0x00010320   Data           0  auto_sound.o(.text)
    .text                                    0x00010bc4   Section     8720  radio_task.o(.text)
    get_freq                                 0x00010ce7   Thumb Code    26  radio_task.o(.text)
    |L1.2452|                                0x00011558   Data           0  radio_task.o(.text)
    |L1.2476|                                0x00011570   Data           0  radio_task.o(.text)
    |L1.3648|                                0x00011a04   Data           0  radio_task.o(.text)
    PreProcDigitKey                          0x00011b3d   Thumb Code   144  radio_task.o(.text)
    SaveExit                                 0x00011bcd   Thumb Code    22  radio_task.o(.text)
    SaveInit                                 0x00011c19   Thumb Code    30  radio_task.o(.text)
    |L1.4928|                                0x00011f04   Data           0  radio_task.o(.text)
    |L1.4940|                                0x00011f10   Data           0  radio_task.o(.text)
    |L1.4952|                                0x00011f1c   Data           0  radio_task.o(.text)
    |L1.4964|                                0x00011f28   Data           0  radio_task.o(.text)
    |L1.4976|                                0x00011f34   Data           0  radio_task.o(.text)
    .text                                    0x00012dd4   Section      356  uart.o(.text)
    .text                                    0x00012f38   Section      172  uart.o(.text)
    .text                                    0x00012fe4   Section      328  cs8416.o(.text)
    .text                                    0x0001312c   Section      860  dac.o(.text)
    .text                                    0x00013488   Section      228  eeprom.o(.text)
    .text                                    0x0001356c   Section     1428  i2cdrv.o(.text)
    i2c_ack                                  0x0001357d   Thumb Code   286  i2cdrv.o(.text)
    i2c_start                                0x0001369b   Thumb Code   102  i2cdrv.o(.text)
    i2c_stop                                 0x00013701   Thumb Code    72  i2cdrv.o(.text)
    i2c_writebyte                            0x00013749   Thumb Code   168  i2cdrv.o(.text)
    i2c_readbyte                             0x000137f1   Thumb Code   132  i2cdrv.o(.text)
    .text                                    0x00013b00   Section       80  ic165.o(.text)
    .text                                    0x00013b50   Section      640  ic4094.o(.text)
    Iec4094Sendbyte                          0x00013b51   Thumb Code    68  ic4094.o(.text)
    .text                                    0x00013dd0   Section     3800  ioport.o(.text)
    .text                                    0x00014ca8   Section      920  ioport.o(.text)
    .text                                    0x00015048   Section     1600  ir.o(.text)
    |L1.1032|                                0x00015450   Data           0  ir.o(.text)
    |L1.1040|                                0x00015458   Data           0  ir.o(.text)
    .text                                    0x00015688   Section      344  timer.o(.text)
    .text                                    0x000157e0   Section      860  timer.o(.text)
    .text                                    0x00015b3c   Section      268  vfddriver.o(.text)
    .text                                    0x00015c48   Section      708  mas9116.o(.text)
    Mas9116WriteWord                         0x00015c49   Thumb Code    84  mas9116.o(.text)
    .text                                    0x00015f0c   Section      636  volume.o(.text)
    .text                                    0x00016188   Section      176  max335.o(.text)
    .text                                    0x00016238   Section     1332  channel.o(.text)
    CheckInputChannel                        0x00016529   Thumb Code   396  channel.o(.text)
    .text                                    0x0001676c   Section     1164  tuner.o(.text)
    .text                                    0x00016bf8   Section     1024  hdmi.o(.text)
    .text                                    0x00016ff8   Section      640  dsp_spi.o(.text)
    Write_Byte                               0x0001700f   Thumb Code    56  dsp_spi.o(.text)
    ReadByteDsp                              0x00017047   Thumb Code    82  dsp_spi.o(.text)
    .text                                    0x00017278   Section     4360  bassmanager.o(.text)
    .text                                    0x00018380   Section     1200  delaymanager.o(.text)
    .text                                    0x00018830   Section      712  dolbymanager.o(.text)
    .text                                    0x00018af8   Section      800  dolbyprologicii.o(.text)
    .text                                    0x00018e18   Section      996  dolbyprologiciix.o(.text)
    .text                                    0x000191fc   Section      896  dsp_task.o(.text)
    .text                                    0x0001957c   Section     8980  dspdrv.o(.text)
    |L1.2268|                                0x00019e58   Data           0  dspdrv.o(.text)
    |L1.5044|                                0x0001a930   Data           0  dspdrv.o(.text)
    .text                                    0x0001b890   Section     2616  eq_manager.o(.text)
    .text                                    0x0001c2c8   Section      736  irc1_manager.o(.text)
    .text                                    0x0001c5a8   Section      376  irc2_manager.o(.text)
    .text                                    0x0001c720   Section      560  os_manager.o(.text)
    .text                                    0x0001c950   Section      516  signalgenerator.o(.text)
    .text                                    0x0001cb54   Section      652  dolbytruehd.o(.text)
    .text                                    0x0001cde0   Section     2720  dsp_api.o(.text)
    .text                                    0x0001d880   Section       84  _printf_pad.o(.text)
    .text                                    0x0001d8d4   Section      116  _printf_dec.o(.text)
    .text                                    0x0001d948   Section       44  vsprintf.o(.text)
    .text                                    0x0001d974   Section       44  __0sprintf.o(.text)
    .text                                    0x0001d9a4   Section       16  aeabi_memset.o(.text)
    .text                                    0x0001d9b8   Section      212  rt_memcpy.o(.text)
    .text                                    0x0001da90   Section      100  rt_memcpy_w.o(.text)
    .text                                    0x0001daf8   Section      112  strncpy.o(.text)
    .text                                    0x0001db68   Section       72  strlen.o(.text)
    .text                                    0x0001dbb4   Section      364  aeabi_sdiv.o(.text)
    __arm_div8                               0x0001dbe0   ARM Code       0  aeabi_sdiv.o(.text)
    __arm_div4                               0x0001dc10   ARM Code       0  aeabi_sdiv.o(.text)
    __arm_div_large                          0x0001dc64   ARM Code       0  aeabi_sdiv.o(.text)
    .text                                    0x0001dd20   Section       88  stkheap2.o(.text)
    .text                                    0x0001dd7c   Section       24  switch8.o(.text)
    .text                                    0x0001dd94   Section       16  callvia.o(.text)
    .text                                    0x0001dda8   Section     3620  pow.o(.text)
    .text                                    0x0001ebcc   Section      104  kernel.o(.text)
    .text                                    0x0001ec34   Section       96  sys_stackheap_outer.o(.text)
    .text                                    0x0001ec94   Section        4  aeabi_idiv0.o(.text)
    .text                                    0x0001ec98   Section       16  rt_stackheap_storage_intlibspace.o(.text)
    .text                                    0x0001ecb0   Section       34  _rserrno.o(.text)
    .text                                    0x0001ecd2   Section       44  _printf_truncate.o(.text)
    .text                                    0x0001ecfe   Section       94  _printf_str.o(.text)
    .text                                    0x0001ed5c   Section      196  _printf_wctomb.o(.text)
    .text                                    0x0001ee20   Section      168  _printf_intcommon.o(.text)
    .text                                    0x0001eec8   Section      204  _printf_longlong_hex.o(.text)
    .text                                    0x0001ef94   Section      148  _printf_longlong_oct.o(.text)
    .text                                    0x0001f028   Section      140  _printf_longlong_dec.o(.text)
    .text                                    0x0001f0b4   Section       36  _printf_charcount.o(.text)
    .text                                    0x0001f0d8   Section     1606  _printf_fp_dec.o(.text)
    _fp_digits                               0x0001f0db   Thumb Code   492  _printf_fp_dec.o(.text)
    _fp_addexp                               0x0001f2c7   Thumb Code    72  _printf_fp_dec.o(.text)
    .text                                    0x0001f720   Section       52  _printf_char_common.o(.text)
    .text                                    0x0001f754   Section       10  _sputc.o(.text)
    .text                                    0x0001f760   Section       64  rt_memclr.o(.text)
    .text                                    0x0001f7a4   Section       44  rtudiv10.o(.text)
    .text                                    0x0001f7d0   Section      248  poly.o(.text)
    .text                                    0x0001f8c8   Section      124  sqrt.o(.text)
    .text                                    0x0001f944   Section       24  sys_exit.o(.text)
    .text                                    0x0001f95c   Section       12  libspace.o(.text)
    .text                                    0x0001f96c   Section       16  rt_errno_addr_intlibspace.o(.text)
    .text                                    0x0001f980   Section       16  rt_locale_intlibspace.o(.text)
    .text                                    0x0001f994   Section      160  lludiv10.o(.text)
    .text                                    0x0001fa34   Section      208  bigflt0.o(.text)
    .text                                    0x0001fb04   Section      744  __printf.o(.text)
    .text                                    0x0001fdec   Section       32  _printf_outstr_char.o(.text)
    .text                                    0x0001fe0c   Section       10  _printf_input_char.o(.text)
    .text                                    0x0001fe16   Section       78  _wcrtomb.o(.text)
    .text                                    0x0001fe64   Section       48  lc_numeric_c.o(.text)
    .text                                    0x0001fe94   Section       24  exit.o(.text)
    .text                                    0x0001feac   Section       84  rt_memclr_w.o(.text)
    .text                                    0x0001ff08   Section      214  lib_init.o(.text)
    .text                                    0x0001ffe0   Section       12  boardinit2.o(.text)
    .text                                    0x0001ffec   Section       16  boardinit3.o(.text)
    .text                                    0x00020000   Section       56  classify.o(.text)
    .text                                    0x0002003c   Section       96  dtoi.o(.text)
    .text                                    0x0002009c   Section        4  use_no_semi.o(.text)
    .text                                    0x000200a4   Section       24  rt_ctype_table.o(.text)
    .text                                    0x000200c0   Section      160  strcmp.o(.text)
    .text                                    0x00020160   Section        6  no_argv.o(.text)
    .text                                    0x00020168   Section       48  fpclassify.o(.text)
    .text                                    0x00020198   Section       16  rt_fp_status_addr_intlibspace.o(.text)
    .text                                    0x000201a8   Section       48  lc_ctype_c.o(.text)
    .text_udiv                               0x000201dc   Section       28  aeabi_sdiv.o(.text_udiv)
    CL$$btod_d2e                             0x000201fc   Section       56  btod.o(CL$$btod_d2e)
    CL$$btod_d2e_denorm_low                  0x00020234   Section       84  btod.o(CL$$btod_d2e_denorm_low)
    CL$$btod_d2e_norm_op1                    0x00020288   Section      104  btod.o(CL$$btod_d2e_norm_op1)
    CL$$btod_div_common                      0x000202f0   Section      844  btod.o(CL$$btod_div_common)
    CL$$btod_e2e                             0x0002063c   Section      220  btod.o(CL$$btod_e2e)
    CL$$btod_ediv                            0x0002071c   Section       52  btod.o(CL$$btod_ediv)
    CL$$btod_emul                            0x00020754   Section       52  btod.o(CL$$btod_emul)
    CL$$btod_mult_common                     0x00020788   Section      616  btod.o(CL$$btod_mult_common)
    i.copysign                               0x00020a40   Section       16  pow.o(i.copysign)
    x$fpl$d2f                                0x00020a54   Section      172  d2f.o(x$fpl$d2f)
    x$fpl$dadd                               0x00020b00   Section      468  daddsub_noclz.o(x$fpl$dadd)
    _dadd1                                   0x00020b10   ARM Code       0  daddsub_noclz.o(x$fpl$dadd)
    x$fpl$dcheck                             0x00020cd4   Section       16  dcheck.o(x$fpl$dcheck)
    x$fpl$dcheck1                            0x00020ce4   Section       16  dcheck1.o(x$fpl$dcheck1)
    x$fpl$dcmpinfnan                         0x00020cf4   Section      128  dcmpin.o(x$fpl$dcmpinfnan)
    x$fpl$dcmpinfnan                         0x00020d74   Section      100  fcmpin.o(x$fpl$dcmpinfnan)
    x$fpl$ddiv                               0x00020ddc   Section     1216  ddiv.o(x$fpl$ddiv)
    ddiv_entry                               0x00020de0   ARM Code       0  ddiv.o(x$fpl$ddiv)
    x$fpl$dflt                               0x0002129c   Section       88  dflt_noclz.o(x$fpl$dflt)
    x$fpl$dfltu                              0x000212f8   Section       12  dflt_noclz.o(x$fpl$dfltu)
    x$fpl$dleqf                              0x00021308   Section      136  dleqf.o(x$fpl$dleqf)
    x$fpl$dmul                               0x00021394   Section      476  dmul.o(x$fpl$dmul)
    x$fpl$drleqf                             0x00021574   Section      160  drleqf.o(x$fpl$drleqf)
    x$fpl$drsb                               0x00021614   Section       24  daddsub_noclz.o(x$fpl$drsb)
    x$fpl$dsqrt                              0x0002162c   Section      392  dsqrt.o(x$fpl$dsqrt)
    x$fpl$dsub                               0x000217b8   Section      584  daddsub_noclz.o(x$fpl$dsub)
    _dsub1                                   0x000217c8   ARM Code       0  daddsub_noclz.o(x$fpl$dsub)
    x$fpl$dunder                             0x00021a00   Section      276  dunder.o(x$fpl$dunder)
    x$fpl$f2d                                0x00021b18   Section      100  f2d.o(x$fpl$f2d)
    x$fpl$fadd                               0x00021b80   Section      264  faddsub_noclz.o(x$fpl$fadd)
    _fadd1                                   0x00021b8c   ARM Code       0  faddsub_noclz.o(x$fpl$fadd)
    x$fpl$fcheck                             0x00021c88   Section       12  fcheck.o(x$fpl$fcheck)
    x$fpl$fcheck1                            0x00021c94   Section       12  fcheck1.o(x$fpl$fcheck1)
    x$fpl$fdiv                               0x00021ca4   Section      484  fdiv.o(x$fpl$fdiv)
    _fdiv1                                   0x00021ca4   ARM Code       0  fdiv.o(x$fpl$fdiv)
    x$fpl$feqf                               0x00021e8c   Section      120  feqf.o(x$fpl$feqf)
    x$fpl$ffix                               0x00021f08   Section      116  ffix.o(x$fpl$ffix)
    x$fpl$ffixu                              0x00021f80   Section       96  ffixu.o(x$fpl$ffixu)
    x$fpl$fflt                               0x00021fe4   Section       92  fflt_noclz.o(x$fpl$fflt)
    x$fpl$ffltu                              0x00022044   Section        8  fflt_noclz.o(x$fpl$ffltu)
    x$fpl$fleqf                              0x00022050   Section      120  fleqf.o(x$fpl$fleqf)
    x$fpl$fmul                               0x000220cc   Section      264  fmul.o(x$fpl$fmul)
    x$fpl$fnorm2                             0x000221d4   Section      148  fnorm2_noclz.o(x$fpl$fnorm2)
    x$fpl$fpinit                             0x0002226c   Section       24  fpinit.o(x$fpl$fpinit)
    x$fpl$frleqf                             0x00022288   Section      132  frleqf.o(x$fpl$frleqf)
    x$fpl$fsub                               0x00022310   Section      360  faddsub_noclz.o(x$fpl$fsub)
    _fsub1                                   0x0002231c   ARM Code       0  faddsub_noclz.o(x$fpl$fsub)
    x$fpl$funder                             0x00022478   Section      144  funder.o(x$fpl$funder)
    x$fpl$ieeestatus                         0x0002250c   Section        8  istatus.o(x$fpl$ieeestatus)
    x$fpl$printf1                            0x00022518   Section        4  printf1.o(x$fpl$printf1)
    x$fpl$printf2                            0x00022520   Section        4  printf2.o(x$fpl$printf2)
    x$fpl$retnan                             0x00022524   Section      116  retnan.o(x$fpl$retnan)
    x$fpl$scalbn                             0x00022598   Section      108  scalbn_noclz.o(x$fpl$scalbn)
    x$fpl$trapveneer                         0x00022604   Section       60  trapv.o(x$fpl$trapveneer)
    .constdata                               0x00022640   Section      128  key_tab.o(.constdata)
    x$fpl$usenofp                            0x00022640   Number         0  usenofp.o(x$fpl$usenofp)
    .constdata                               0x000226c0   Section      256  key_task.o(.constdata)
    .constdata                               0x000227c0   Section      844  menu_tbl.o(.constdata)
    .constdata                               0x00022b0c   Section     1504  rs232_protocol.o(.constdata)
    .constdata                               0x000230ec   Section       21  setup_func.o(.constdata)
    .constdata                               0x00023104   Section       40  task.o(.constdata)
    .constdata                               0x0002312c   Section       21  vfd_disp.o(.constdata)
    .constdata                               0x00023144   Section      276  auto_sound.o(.constdata)
    .constdata                               0x00023258   Section       76  cs8416.o(.constdata)
    .constdata                               0x000232a4   Section       76  eeprom.o(.constdata)
    .constdata                               0x000232f0   Section       80  vfddriver.o(.constdata)
    .constdata                               0x00023340   Section        8  volume.o(.constdata)
    .constdata                               0x00023348   Section        8  max335.o(.constdata)
    .constdata                               0x00023350   Section      216  channel.o(.constdata)
    .constdata                               0x00023428   Section       76  hdmi.o(.constdata)
    .constdata                               0x00023474   Section      216  eq_manager.o(.constdata)
    .constdata                               0x0002354c   Section      256  irc1_manager.o(.constdata)
    .constdata                               0x00023650   Section      136  pow.o(.constdata)
    bp                                       0x00023650   Data          16  pow.o(.constdata)
    dp_h                                     0x00023660   Data          16  pow.o(.constdata)
    dp_l                                     0x00023670   Data          16  pow.o(.constdata)
    L                                        0x00023680   Data          48  pow.o(.constdata)
    P                                        0x000236b0   Data          40  pow.o(.constdata)
    .constdata                               0x000236d8   Section        8  _printf_wctomb.o(.constdata)
    initial_mbstate@_printf_wctomb_0         0x000236d8   Data           8  _printf_wctomb.o(.constdata)
    .constdata                               0x000236e0   Section       34  _printf_longlong_hex.o(.constdata)
    lc_hextab@_printf_longlong_hex_0         0x000236e0   Data          17  _printf_longlong_hex.o(.constdata)
    uc_hextab@_printf_longlong_hex_1         0x000236f1   Data          17  _printf_longlong_hex.o(.constdata)
    .constdata                               0x00023708   Section        8  qnan.o(.constdata)
    .constdata                               0x00023710   Section      148  bigflt0.o(.constdata)
    tenpwrs_x@_btod_etento_0                 0x00023710   Data          60  bigflt0.o(.constdata)
    tenpwrs_i@_btod_etento_1                 0x0002374c   Data          64  bigflt0.o(.constdata)
    .constdata                               0x000237a4   Section       17  __printf.o(.constdata)
    maptable@__printf_0                      0x000237a4   Data          17  __printf.o(.constdata)
    .constdata                               0x000237b8   Section       28  lc_numeric_c.o(.constdata)
    __lcnum_c_index                          0x000237b8   Data           4  lc_numeric_c.o(.constdata)
    __lcnum_c_lname                          0x000237bc   Data           4  lc_numeric_c.o(.constdata)
    __lcnum_c_pname                          0x000237c0   Data           4  lc_numeric_c.o(.constdata)
    __lcnum_c_start                          0x000237c4   Data           4  lc_numeric_c.o(.constdata)
    __lcnum_c_tsoff                          0x000237c8   Data           4  lc_numeric_c.o(.constdata)
    __lcnum_c_groff                          0x000237cc   Data           4  lc_numeric_c.o(.constdata)
    __lcnum_c_dptxt                          0x000237d0   Data           2  lc_numeric_c.o(.constdata)
    __lcnum_c_tstxt                          0x000237d2   Data           1  lc_numeric_c.o(.constdata)
    __lcnum_c_grtxt                          0x000237d3   Data           1  lc_numeric_c.o(.constdata)
    .constdata                               0x000237d4   Section      269  lc_ctype_c.o(.constdata)
    __lcctype_c_index                        0x000237d4   Data           4  lc_ctype_c.o(.constdata)
    __lcctype_c_lname                        0x000237d8   Data           4  lc_ctype_c.o(.constdata)
    __lcctype_c_pname                        0x000237dc   Data           4  lc_ctype_c.o(.constdata)
    __lcctype_c_start                        0x000237e0   Data           1  lc_ctype_c.o(.constdata)
    .conststring                             0x000238e1   Section     1487  menu_tbl.o(.conststring)
    .conststring                             0x00023e58   Section     1099  rs232_protocol.o(.conststring)
    .conststring                             0x00024198   Section      175  zone1_task.o(.conststring)
    .conststring                             0x0002423e   Section       29  auto_sound.o(.conststring)
    .data                                    0x40000000   Section        4  main.o(.data)
    .data                                    0x40000004   Section       28  key_task.o(.data)
    pre_mode@HeadphoneDetect_0               0x4000000a   Data           1  key_task.o(.data)
    det_counter@HeadphoneDetect_1            0x4000000b   Data           1  key_task.o(.data)
    pre_key@read_key_0                       0x4000000c   Data           1  key_task.o(.data)
    key_counter@read_key_1                   0x4000000d   Data           1  key_task.o(.data)
    pre_encoder_flag@GetEncoderSwitchThread_0 0x4000000e   Data           1  key_task.o(.data)
    new_flag@GetEncoderSwitchThread_1        0x4000000f   Data           1  key_task.o(.data)
    counter@GetEncoderSwitchThread_2         0x40000010   Data           4  key_task.o(.data)
    key_counter@GetEncoderSwitchThread_3     0x40000014   Data           4  key_task.o(.data)
    pre_key_value@GetEncoderSwitchThread_4   0x40000018   Data           2  key_task.o(.data)
    key_hold_timer@GetPanelKeyThread_0       0x4000001c   Data           4  key_task.o(.data)
    .data                                    0x40000020   Section     9243  menu_tbl.o(.data)
    .data                                    0x4000243c   Section        4  message.o(.data)
    .data                                    0x40002440   Section      762  rs232_protocol.o(.data)
    msg_status@C11Rs232_0                    0x40002738   Data           1  rs232_protocol.o(.data)
    byte_count@C11Rs232_1                    0x40002739   Data           1  rs232_protocol.o(.data)
    .data                                    0x4000273c   Section      589  setup_func.o(.data)
    position@InputNameSetup_0                0x40002987   Data           1  setup_func.o(.data)
    position@LogoSetup_0                     0x40002988   Data           1  setup_func.o(.data)
    .data                                    0x4000298c   Section       32  setup_menu.o(.data)
    flash_time_cnter                         0x4000299c   Data           2  setup_menu.o(.data)
    i@MenuItemShow_0                         0x4000299f   Data           1  setup_menu.o(.data)
    bak_char@UpdateVfdFlash_0                0x400029a0   Data           1  setup_menu.o(.data)
    normal_char@UpdateVfdFlash_1             0x400029a1   Data           1  setup_menu.o(.data)
    current_position@UpdateVfdFlash_2        0x400029a2   Data           1  setup_menu.o(.data)
    bak_id                                   0x400029a3   Data           1  setup_menu.o(.data)
    .data                                    0x400029ac   Section       25  task.o(.data)
    .data                                    0x400029c6   Section       88  vfd_disp.o(.data)
    vfd_owner                                0x400029c6   Data           1  vfd_disp.o(.data)
    temp_display_time                        0x400029c8   Data           2  vfd_disp.o(.data)
    vfd_buffer                               0x400029ca   Data          41  vfd_disp.o(.data)
    vfd_temp_disp_buffer                     0x400029f3   Data          41  vfd_disp.o(.data)
    .data                                    0x40002a20   Section      286  zone1_task.o(.data)
    RefreshTimer                             0x40002b22   Data           2  zone1_task.o(.data)
    key_value@IsHidenKey_0                   0x40002b34   Data           2  zone1_task.o(.data)
    Pre_Message@Zone1ProcMessage_0           0x40002b36   Data           1  zone1_task.o(.data)
    refresh_id                               0x40002b3c   Data           1  zone1_task.o(.data)
    .data                                    0x40002b40   Section        4  zone2_task.o(.data)
    .data                                    0x40002b44   Section      341  auto_sound.o(.data)
    enable@ASProcSetupConfig_0               0x40002c8c   Data           1  auto_sound.o(.data)
    setup_config_status@ASProcSetupConfig_1  0x40002c8d   Data           1  auto_sound.o(.data)
    enable@ASProcSpeakerCheck_0              0x40002c8e   Data           1  auto_sound.o(.data)
    as_key_enable@ASProcSpeakerCheck_1       0x40002c8f   Data           1  auto_sound.o(.data)
    total_spk@ASProcSpeakerCheck_2           0x40002c90   Data           1  auto_sound.o(.data)
    enable@ASProcSetDistance_0               0x40002c91   Data           1  auto_sound.o(.data)
    enable@ASProcSetBalance_0                0x40002c92   Data           1  auto_sound.o(.data)
    enable@ASProcSetCrossoverPoints_0        0x40002c93   Data           1  auto_sound.o(.data)
    enable@ASProcSetRoomEQ_0                 0x40002c94   Data           1  auto_sound.o(.data)
    enable@ASProcSetSpeakerphase_0           0x40002c95   Data           1  auto_sound.o(.data)
    as_key_enable@ASProcSetSpeakerphase_1    0x40002c96   Data           1  auto_sound.o(.data)
    any_spk_outphase@ASProcSetSpeakerphase_2 0x40002c97   Data           1  auto_sound.o(.data)
    .data                                    0x40002c9c   Section      120  radio_task.o(.data)
    old_freq@ISValidTunerPostion_0           0x40002cfc   Data           4  radio_task.o(.data)
    digi_10_key@PreProcDigitKey_0            0x40002d00   Data           1  radio_task.o(.data)
    digi_key_count@PreProcDigitKey_1         0x40002d01   Data           1  radio_task.o(.data)
    msg_status@C11_Tuner_SIS_Change_0        0x40002d02   Data           1  radio_task.o(.data)
    byte_count@C11_Tuner_SIS_Change_1        0x40002d03   Data           1  radio_task.o(.data)
    comm_data@C11_Tuner_SIS_Change_2         0x40002d04   Data           1  radio_task.o(.data)
    msg_status@C11_Tuner_PSD_Change_0        0x40002d05   Data           1  radio_task.o(.data)
    byte_count@C11_Tuner_PSD_Change_1        0x40002d06   Data           1  radio_task.o(.data)
    comm_data@C11_Tuner_PSD_Change_2         0x40002d07   Data           1  radio_task.o(.data)
    old_st_mode@RadioLoop_0                  0x40002d08   Data           1  radio_task.o(.data)
    cnter@RadioLoop_1                        0x40002d09   Data           1  radio_task.o(.data)
    .data                                    0x40002d14   Section       32  uart.o(.data)
    .data                                    0x40002d34   Section        1  cs8416.o(.data)
    error_count@IsCs8416Unlock_0             0x40002d34   Data           1  cs8416.o(.data)
    .data                                    0x40002d35   Section        2  dac.o(.data)
    Pre_DSD_Mode@DSD_Choose_0                0x40002d35   Data           1  dac.o(.data)
    Pre_mode@InitDSDMode_0                   0x40002d36   Data           1  dac.o(.data)
    .data                                    0x40002d37   Section        2  i2cdrv.o(.data)
    timeout                                  0x40002d37   Data           1  i2cdrv.o(.data)
    need_to_stop                             0x40002d38   Data           1  i2cdrv.o(.data)
    .data                                    0x40002d39   Section        1  ic4094.o(.data)
    shadow_ext4094                           0x40002d39   Data           1  ic4094.o(.data)
    .data                                    0x40002d3c   Section       24  ioport.o(.data)
    prevIRtime@exint3_0                      0x40002d44   Data           4  ioport.o(.data)
    prevIRtime@exint2_0                      0x40002d48   Data           4  ioport.o(.data)
    prevIRtime@exint1_0                      0x40002d4c   Data           4  ioport.o(.data)
    prevIRtime@exint0_0                      0x40002d50   Data           4  ioport.o(.data)
    .data                                    0x40002d54   Section       29  ir.o(.data)
    dataIR@ir_core_philips_0                 0x40002d5e   Data           2  ir.o(.data)
    cntIRbits@ir_core_philips_1              0x40002d60   Data           1  ir.o(.data)
    stateIR@ir_core_philips_2                0x40002d61   Data           1  ir.o(.data)
    data_half@ir_core_philips_3              0x40002d62   Data           1  ir.o(.data)
    IR_ctlbit@ir_core_philips_4              0x40002d63   Data           1  ir.o(.data)
    IR_rep_cnt@ir_core_philips_5             0x40002d64   Data           1  ir.o(.data)
    dataIR@ir2_core_philips_0                0x40002d66   Data           2  ir.o(.data)
    cntIRbits@ir2_core_philips_1             0x40002d68   Data           1  ir.o(.data)
    stateIR@ir2_core_philips_2               0x40002d69   Data           1  ir.o(.data)
    data_half@ir2_core_philips_3             0x40002d6a   Data           1  ir.o(.data)
    IR_ctlbit@ir2_core_philips_4             0x40002d6b   Data           1  ir.o(.data)
    IR_rep_cnt@ir2_core_philips_5            0x40002d6c   Data           1  ir.o(.data)
    .data                                    0x40002d74   Section       40  timer.o(.data)
    t_count@timer0_irq_0                     0x40002d80   Data           4  timer.o(.data)
    text_count@timer0_irq_1                  0x40002d84   Data           4  timer.o(.data)
    hdmi_cnter@timer0_irq_2                  0x40002d88   Data           4  timer.o(.data)
    t_cnter@timer0_irq_3                     0x40002d8c   Data           4  timer.o(.data)
    softmute_cnter@timer0_irq_4              0x40002d90   Data           4  timer.o(.data)
    HDMI_Setting_cnter@timer0_irq_5          0x40002d94   Data           4  timer.o(.data)
    key_cnt@Timer0_Handler_0                 0x40002d98   Data           1  timer.o(.data)
    system_delay_timer                       0x40002d9a   Data           2  timer.o(.data)
    .data                                    0x40002d9c   Section        5  volume.o(.data)
    Pre_Mute_mode@SoftMute_0                 0x40002da0   Data           1  volume.o(.data)
    .data                                    0x40002da1   Section        8  max335.o(.data)
    shadow_max335                            0x40002da1   Data           8  max335.o(.data)
    .data                                    0x40002da9   Section        2  channel.o(.data)
    pre_channel@AnalogInSelectChannel_0      0x40002da9   Data           1  channel.o(.data)
    .data                                    0x40002dab   Section        2  hdmi.o(.data)
    Pre_value@DSD_Loop_0                     0x40002dac   Data           1  hdmi.o(.data)
    .data                                    0x40002dae   Section       18  dsp_task.o(.data)
    old_freq@DspLoop_0                       0x40002daf   Data           1  dsp_task.o(.data)
    cnter@DspLoop_1                          0x40002db0   Data           1  dsp_task.o(.data)
    .data                                    0x40002dc0   Section       30  dspdrv.o(.data)
    .bss                                     0x40002de0   Section     1800  message.o(.bss)
    .bss                                     0x400034e8   Section       20  rs232_protocol.o(.bss)
    .bss                                     0x400034fc   Section       20  setup_func.o(.bss)
    .bss                                     0x40003510   Section       50  zone1_task.o(.bss)
    .bss                                     0x40003542   Section      100  radio_task.o(.bss)
    .bss                                     0x400035a6   Section      512  uart.o(.bss)
    .bss                                     0x400037a8   Section       32  volume.o(.bss)
    .bss                                     0x400037c8   Section       12  bassmanager.o(.bss)
    .bss                                     0x400037d4   Section       32  delaymanager.o(.bss)
    .bss                                     0x400037f4   Section      128  dspdrv.o(.bss)
    .bss                                     0x40003874   Section      640  eq_manager.o(.bss)
    .bss                                     0x40003af4   Section       96  libspace.o(.bss)
    HEAP                                     0x40003b58   Number         0  lpc2300.o(HEAP)
    STACK                                    0x40003b58   Section     1288  lpc2300.o(STACK)
    Heap_Mem                                 0x40003b58   Number         0  lpc2300.o(HEAP)
    Stack_Mem                                0x40003b58   Data        1288  lpc2300.o(STACK)
    Stack_Top                                0x40004060   Number         0  lpc2300.o(STACK)

    Global Symbols

    Symbol Name                              Value     Ov Type        Size  Object(Section)

    BuildAttributes$$THUMB_ISAv1$ARM_ISAv4$M$PE$A:L22$X:L11$S22$IEEE1$IW$USESV6$~STKCKD$USESV7$~SHL$OSPACE$EBA8$REQ8$EABIv2 0x00000000   Number         0  anon$$obj.o ABSOLUTE
    __ARM_use_no_argv                        0x00000000   Number         0  main.o ABSOLUTE
    __use_stack_checking                     0x00000000   Number         0  stkovf.o ABSOLUTE
    __ARM_exceptions_init                     - Undefined Weak Reference
    __ARM_stackcheck                          - Undefined Weak Reference
    __Heap_DescSize                           - Undefined Weak Reference
    __alloca_initialize                       - Undefined Weak Reference
    __cpp_initialize__aeabi_                  - Undefined Weak Reference
    __cxa_finalize                            - Undefined Weak Reference
    __fpl_infinity                            - Undefined Weak Reference
    __rt_SIGABRT_inner                        - Undefined Weak Reference
    __rt_SIGCPPL_inner                        - Undefined Weak Reference
    __rt_SIGILL_inner                         - Undefined Weak Reference
    __rt_SIGINT_inner                         - Undefined Weak Reference
    __rt_SIGPVFN_inner                        - Undefined Weak Reference
    __rt_SIGRTRED_inner                       - Undefined Weak Reference
    __rt_SIGSEGV_inner                        - Undefined Weak Reference
    __rt_SIGTERM_inner                        - Undefined Weak Reference
    __rt_SIGUSR1_inner                        - Undefined Weak Reference
    __rt_SIGUSR2_inner                        - Undefined Weak Reference
    __rt_sigother_inner                       - Undefined Weak Reference
    __sigvec_lookup                           - Undefined Weak Reference
    __user_heap_extend                        - Undefined Weak Reference
    __user_stack_slop                         - Undefined Weak Reference
    _atexit_init                              - Undefined Weak Reference
    _call_atexit_fns                          - Undefined Weak Reference
    _clock_init                               - Undefined Weak Reference
    _fp_trap_init                             - Undefined Weak Reference
    _get_lc_collate                           - Undefined Weak Reference
    _get_lc_monetary                          - Undefined Weak Reference
    _get_lc_time                              - Undefined Weak Reference
    _getenv_init                              - Undefined Weak Reference
    _handle_redirection                       - Undefined Weak Reference
    _init_alloc                               - Undefined Weak Reference
    _init_user_alloc                          - Undefined Weak Reference
    _initio                                   - Undefined Weak Reference
    _printf_mbtowc                            - Undefined Weak Reference
    _printf_wc                                - Undefined Weak Reference
    _rand_init                                - Undefined Weak Reference
    _signal_init                              - Undefined Weak Reference
    _terminate_user_alloc                     - Undefined Weak Reference
    _terminateio                              - Undefined Weak Reference
    Reset_Handler                            0x00000058   ARM Code       0  lpc2300.o(RESET)
    __main                                   0x0000016c   ARM Code       8  __main.o(!!!main)
    __scatterload                            0x00000174   ARM Code       0  __scatter.o(!!!scatter)
    __scatterload_rt2                        0x00000174   ARM Code      48  __scatter.o(!!!scatter)
    __scatterload_null                       0x00000188   ARM Code       0  __scatter.o(!!!scatter)
    __decompress                             0x000001ac   ARM Code      92  __dczerorl2.o(!!dczerorl2)
    __decompress1                            0x000001ac   ARM Code       0  __dczerorl2.o(!!dczerorl2)
    __scatterload_zeroinit                   0x00000208   ARM Code      44  __scatter_zi.o(!!handler_zi)
    Inline Thumb to ARM Veneer to __ARM_argv_veneer 0x00000235   Thumb Code     0  lib_init.o(.emb_text)
    __ARM_argv_veneer                        0x00000238   ARM Code      16  lib_init.o(.emb_text)
    __user_initial_stackheap                 0x00000248   ARM Code       0  lpc2300.o(.text)
    Systeminit                               0x00000269   Thumb Code    36  main.o(.text)
    ProcDimerOff                             0x0000028d   Thumb Code    42  main.o(.text)
    main                                     0x000002b7   Thumb Code   130  main.o(.text)
    debug_printf                             0x00000375   Thumb Code    62  debug.o(.text)
    assert_Function                          0x000003b3   Thumb Code    42  debug.o(.text)
    rs232_printf                             0x000003dd   Thumb Code    62  debug.o(.text)
    debug_message                            0x0000041b   Thumb Code     6  debug.o(.text)
    Inline ARM to Thumb Veneer to InQueue    0x0000043c   ARM Code       0  queue.o(.text)
    InitQueue                                0x00000445   Thumb Code    10  queue.o(.text)
    IsQueueEmpty                             0x0000044f   Thumb Code    36  queue.o(.text)
    IsQueueFull                              0x00000473   Thumb Code    38  queue.o(.text)
    QueueFront                               0x00000499   Thumb Code     8  queue.o(.text)
    DeQueue                                  0x000004a1   Thumb Code    58  queue.o(.text)
    InQueue                                  0x000004db   Thumb Code    56  queue.o(.text)
    GetQueueElementNum                       0x00000513   Thumb Code    80  queue.o(.text)
    GetQueueElementRemain                    0x00000563   Thumb Code    22  queue.o(.text)
    GetQueueElement                          0x00000579   Thumb Code    48  queue.o(.text)
    SetDspPower                              0x000005a9   Thumb Code    18  c11_msg_handler.o(.text)
    SetDspDelay                              0x000005bb   Thumb Code    22  c11_msg_handler.o(.text)
    SetDspCorner                             0x000005d1   Thumb Code    22  c11_msg_handler.o(.text)
    SetDspSpkMode                            0x000005e7   Thumb Code    22  c11_msg_handler.o(.text)
    SetDspSignal                             0x000005fd   Thumb Code    26  c11_msg_handler.o(.text)
    SetDspIrc                                0x00000617   Thumb Code    22  c11_msg_handler.o(.text)
    HeadphoneDetect                          0x00000657   Thumb Code   154  key_task.o(.text)
    GetEncoderSwitchThread                   0x00000797   Thumb Code   378  key_task.o(.text)
    key_task                                 0x000009a5   Thumb Code   168  key_task.o(.text)
    InitMsgQueue                             0x00000a4d   Thumb Code    16  message.o(.text)
    PostMessage                              0x00000a9b   Thumb Code   104  message.o(.text)
    SendMessage                              0x00000b03   Thumb Code   102  message.o(.text)
    GetMessage                               0x00000b69   Thumb Code    68  message.o(.text)
    GetProtocolFloatValue                    0x00000be9   Thumb Code   200  rs232_protocol.o(.text)
    IsProtocolStringValid                    0x00000cb1   Thumb Code    48  rs232_protocol.o(.text)
    ProcCmdSPU                               0x00000ce1   Thumb Code     6  rs232_protocol.o(.text)
    GetCurrentDecodeStatus                   0x00000ce7   Thumb Code    68  rs232_protocol.o(.text)
    GetPcmDecodeMode                         0x00000d2b   Thumb Code   126  rs232_protocol.o(.text)
    ProcCmdZ1_                               0x00000da9   Thumb Code    70  rs232_protocol.o(.text)
    GetZone1Channel                          0x00000def   Thumb Code   158  rs232_protocol.o(.text)
    ProcCmdZ1S                               0x00000e8d   Thumb Code   280  rs232_protocol.o(.text)
    ProcCmdZ1P                               0x00000fa5   Thumb Code    94  rs232_protocol.o(.text)
    ProcCmdZ1M                               0x00001003   Thumb Code   192  rs232_protocol.o(.text)
    ProcCmdZ1A_                              0x000010c3   Thumb Code    70  rs232_protocol.o(.text)
    ProcCmdZ1C                               0x00001109   Thumb Code    94  rs232_protocol.o(.text)
    ProcCmdZ1D                               0x00001167   Thumb Code   110  rs232_protocol.o(.text)
    ProcCmdZ1ED                              0x000011d5   Thumb Code   142  rs232_protocol.o(.text)
    GetDolby2ChDecodeMode                    0x00001263   Thumb Code   108  rs232_protocol.o(.text)
    ProcCmdZ1EF                              0x000012cf   Thumb Code   252  rs232_protocol.o(.text)
    ProcCmdZ1EE                              0x000013cb   Thumb Code    60  rs232_protocol.o(.text)
    ProcCmdZ1ES                              0x00001407   Thumb Code    60  rs232_protocol.o(.text)
    GetDolby5ChDecodeMode                    0x00001443   Thumb Code    52  rs232_protocol.o(.text)
    ProcCmdZ1EX                              0x00001477   Thumb Code   374  rs232_protocol.o(.text)
    ProcCmdZ1E                               0x000015ed   Thumb Code   292  rs232_protocol.o(.text)
    ProcCmdZ1EU                              0x00001711   Thumb Code    50  rs232_protocol.o(.text)
    ProcCmdZ1VM                              0x00001743   Thumb Code   192  rs232_protocol.o(.text)
    ProcCmdZ1DF_                             0x00001803   Thumb Code   242  rs232_protocol.o(.text)
    ProtocolSetEq                            0x000018f5   Thumb Code    96  rs232_protocol.o(.text)
    IsProtocolEqBandValid                    0x00001955   Thumb Code   230  rs232_protocol.o(.text)
    IsBalanceValid                           0x00001a3b   Thumb Code    62  rs232_protocol.o(.text)
    ProcCmdZ1EQL                             0x00001a79   Thumb Code    92  rs232_protocol.o(.text)
    ProcCmdZ1EQC                             0x00001ad5   Thumb Code    94  rs232_protocol.o(.text)
    ProcCmdZ1EQR                             0x00001b33   Thumb Code    94  rs232_protocol.o(.text)
    ProcCmdZ1EQSR                            0x00001b91   Thumb Code    96  rs232_protocol.o(.text)
    ProcCmdZ1EQBSR                           0x00001bf1   Thumb Code    96  rs232_protocol.o(.text)
    ProcCmdZ1EQBSL                           0x00001c51   Thumb Code    96  rs232_protocol.o(.text)
    ProcCmdZ1EQSL                            0x00001cb1   Thumb Code    96  rs232_protocol.o(.text)
    ProcCmdZ1EQSW                            0x00001d11   Thumb Code    96  rs232_protocol.o(.text)
    ProcCmdZ1EQ                              0x00001d71   Thumb Code   156  rs232_protocol.o(.text)
    ProcCmdZ2P                               0x00001e0d   Thumb Code   334  rs232_protocol.o(.text)
    GetZone2Channel                          0x00001f5b   Thumb Code   108  rs232_protocol.o(.text)
    ProcCmdZ2S                               0x00001fc7   Thumb Code   554  rs232_protocol.o(.text)
    ProcCmdZ2V                               0x000021f1   Thumb Code   186  rs232_protocol.o(.text)
    ProcCmdZ2M                               0x000022ab   Thumb Code    60  rs232_protocol.o(.text)
    ProcCmdZ2_                               0x000022e7   Thumb Code   190  rs232_protocol.o(.text)
    ProCmdZ2VFD_                             0x000023a5   Thumb Code    60  rs232_protocol.o(.text)
    ProcCmdRSN                               0x000023e1   Thumb Code   152  rs232_protocol.o(.text)
    ProcCmdSLL                               0x00002479   Thumb Code    78  rs232_protocol.o(.text)
    ProcCmdSLC                               0x000024c7   Thumb Code    76  rs232_protocol.o(.text)
    ProcCmdSLR                               0x00002513   Thumb Code    78  rs232_protocol.o(.text)
    ProcCmdSLSR                              0x00002561   Thumb Code    78  rs232_protocol.o(.text)
    ProcCmdSLSL                              0x000025af   Thumb Code    78  rs232_protocol.o(.text)
    ProcCmdSLBR                              0x000025fd   Thumb Code    78  rs232_protocol.o(.text)
    ProcCmdSLBL                              0x0000264b   Thumb Code    78  rs232_protocol.o(.text)
    ProcCmdSLSW                              0x00002699   Thumb Code    78  rs232_protocol.o(.text)
    IsDistanceValid                          0x000026e7   Thumb Code    90  rs232_protocol.o(.text)
    ProcCmdSPL                               0x00002741   Thumb Code   340  rs232_protocol.o(.text)
    ProcCmdSPC                               0x00002895   Thumb Code   102  rs232_protocol.o(.text)
    ProcCmdSPR                               0x000028fb   Thumb Code   102  rs232_protocol.o(.text)
    ProcCmdSPSR                              0x00002961   Thumb Code   102  rs232_protocol.o(.text)
    ProcCmdSPSL                              0x000029c7   Thumb Code   102  rs232_protocol.o(.text)
    ProcCmdSPBR                              0x00002a2d   Thumb Code   102  rs232_protocol.o(.text)
    ProcCmdSPBL                              0x00002a93   Thumb Code   102  rs232_protocol.o(.text)
    ProcCmdSPs                               0x00002af9   Thumb Code   102  rs232_protocol.o(.text)
    ProcCmdSZL                               0x00002b5f   Thumb Code    80  rs232_protocol.o(.text)
    ProcCmdSZR                               0x00002baf   Thumb Code    80  rs232_protocol.o(.text)
    ProcCmdSZSL                              0x00002bff   Thumb Code    80  rs232_protocol.o(.text)
    ProcCmdSZSR                              0x00002c4f   Thumb Code   270  rs232_protocol.o(.text)
    ProcCmdSZSBL                             0x00002d5d   Thumb Code    80  rs232_protocol.o(.text)
    ProcCmdSZSBR                             0x00002dad   Thumb Code    80  rs232_protocol.o(.text)
    ProcCmdSZC                               0x00002dfd   Thumb Code    80  rs232_protocol.o(.text)
    ProcCmdSZS                               0x00002e4d   Thumb Code    80  rs232_protocol.o(.text)
    IsCrossoverValid                         0x00002e9d   Thumb Code   110  rs232_protocol.o(.text)
    GetCrossoverPoint                        0x00002f0b   Thumb Code   116  rs232_protocol.o(.text)
    ProcCmdSZXFL                             0x00002f7f   Thumb Code   122  rs232_protocol.o(.text)
    ProcCmdSZXFC                             0x00002ff9   Thumb Code   122  rs232_protocol.o(.text)
    ProcCmdSZXFR                             0x00003073   Thumb Code   122  rs232_protocol.o(.text)
    ProcCmdSZXSR                             0x000030ed   Thumb Code   276  rs232_protocol.o(.text)
    ProcCmdSZXSL                             0x00003201   Thumb Code   122  rs232_protocol.o(.text)
    ProcCmdSZXSBR                            0x0000327b   Thumb Code   122  rs232_protocol.o(.text)
    ProcCmdSZXSBL                            0x000032f5   Thumb Code   122  rs232_protocol.o(.text)
    ProcCmdSZX                               0x0000336f   Thumb Code   122  rs232_protocol.o(.text)
    ProcCmdZ1LPS                             0x000033e9   Thumb Code    72  rs232_protocol.o(.text)
    ProcCmdSSPL                              0x00003431   Thumb Code    78  rs232_protocol.o(.text)
    ProcCmdSSPC                              0x0000347f   Thumb Code    82  rs232_protocol.o(.text)
    ProcCmdSSPR                              0x000034d1   Thumb Code    82  rs232_protocol.o(.text)
    ProcCmdSSPSR                             0x00003523   Thumb Code    82  rs232_protocol.o(.text)
    ProcCmdSSPSL                             0x00003575   Thumb Code    82  rs232_protocol.o(.text)
    ProcCmdSSPSBR                            0x000035c7   Thumb Code   298  rs232_protocol.o(.text)
    ProcCmdSSPSBL                            0x000036f1   Thumb Code    82  rs232_protocol.o(.text)
    ProcCmdSSPSW                             0x00003743   Thumb Code    82  rs232_protocol.o(.text)
    ProcCmdMSZL                              0x00003795   Thumb Code    94  rs232_protocol.o(.text)
    ProcCmdMSZR                              0x000037f3   Thumb Code    94  rs232_protocol.o(.text)
    ProcCmdMSZSL                             0x00003851   Thumb Code    94  rs232_protocol.o(.text)
    ProcCmdMSZSR                             0x000038af   Thumb Code    94  rs232_protocol.o(.text)
    ProcCmdMSZSBL                            0x0000390d   Thumb Code    94  rs232_protocol.o(.text)
    ProcCmdMSZSBR                            0x0000396b   Thumb Code    94  rs232_protocol.o(.text)
    ProcCmdMSZC                              0x000039c9   Thumb Code    92  rs232_protocol.o(.text)
    ProcCmdMSZS                              0x00003a25   Thumb Code    94  rs232_protocol.o(.text)
    ProcCmdMSPL                              0x00003a83   Thumb Code   318  rs232_protocol.o(.text)
    ProcCmdMSPC                              0x00003bc1   Thumb Code   100  rs232_protocol.o(.text)
    ProcCmdMSPR                              0x00003c25   Thumb Code   100  rs232_protocol.o(.text)
    ProcCmdMSPSR                             0x00003c89   Thumb Code   100  rs232_protocol.o(.text)
    ProcCmdMSPSL                             0x00003ced   Thumb Code   100  rs232_protocol.o(.text)
    ProcCmdMSPBR                             0x00003d51   Thumb Code   100  rs232_protocol.o(.text)
    ProcCmdMSPBL                             0x00003db5   Thumb Code   100  rs232_protocol.o(.text)
    ProcCmdMSPs                              0x00003e19   Thumb Code   100  rs232_protocol.o(.text)
    ProcCmdMSLL                              0x00003e7d   Thumb Code    80  rs232_protocol.o(.text)
    ProcCmdMSLC                              0x00003ecd   Thumb Code    76  rs232_protocol.o(.text)
    ProcCmdMSLR                              0x00003f19   Thumb Code    80  rs232_protocol.o(.text)
    ProcCmdMSLSR                             0x00003f69   Thumb Code   296  rs232_protocol.o(.text)
    ProcCmdMSLSL                             0x00004091   Thumb Code    78  rs232_protocol.o(.text)
    ProcCmdMSLBR                             0x000040df   Thumb Code    80  rs232_protocol.o(.text)
    ProcCmdMSLBL                             0x0000412f   Thumb Code    80  rs232_protocol.o(.text)
    ProcCmdMSLSW                             0x0000417f   Thumb Code    80  rs232_protocol.o(.text)
    ProcCmdMSZXFL                            0x000041cf   Thumb Code   120  rs232_protocol.o(.text)
    ProcCmdMSZXFC                            0x00004247   Thumb Code   120  rs232_protocol.o(.text)
    ProcCmdMSZXFR                            0x000042bf   Thumb Code   120  rs232_protocol.o(.text)
    ProcCmdMSZXSR                            0x00004337   Thumb Code   120  rs232_protocol.o(.text)
    ProcCmdMSZXSBR                           0x000043af   Thumb Code   120  rs232_protocol.o(.text)
    ProcCmdMSZXSBL                           0x00004427   Thumb Code   336  rs232_protocol.o(.text)
    ProcCmdMSZXSL                            0x00004577   Thumb Code   120  rs232_protocol.o(.text)
    ProcCmdMSZX                              0x000045ef   Thumb Code   120  rs232_protocol.o(.text)
    ProcCmdMZ1EQL                            0x00004667   Thumb Code    94  rs232_protocol.o(.text)
    ProcCmdMZ1EQC                            0x000046c5   Thumb Code    92  rs232_protocol.o(.text)
    ProcCmdMZ1EQR                            0x00004721   Thumb Code    94  rs232_protocol.o(.text)
    ProcCmdMZ1EQSR                           0x0000477f   Thumb Code    94  rs232_protocol.o(.text)
    ProcCmdMZ1EQBSR                          0x000047dd   Thumb Code    94  rs232_protocol.o(.text)
    ProcCmdMZ1EQBSL                          0x0000483b   Thumb Code    94  rs232_protocol.o(.text)
    ProcCmdMZ1EQSL                           0x00004899   Thumb Code    94  rs232_protocol.o(.text)
    ProcCmdMZ1EQSW                           0x000048f7   Thumb Code    94  rs232_protocol.o(.text)
    ProcCmdMSSPL                             0x00004955   Thumb Code   272  rs232_protocol.o(.text)
    ProcCmdMSSPC                             0x00004a65   Thumb Code    78  rs232_protocol.o(.text)
    ProcCmdMSSPR                             0x00004ab3   Thumb Code    82  rs232_protocol.o(.text)
    ProcCmdMSSPSR                            0x00004b05   Thumb Code    82  rs232_protocol.o(.text)
    ProcCmdMSSPSL                            0x00004b57   Thumb Code    82  rs232_protocol.o(.text)
    ProcCmdMSSPSBR                           0x00004ba9   Thumb Code    82  rs232_protocol.o(.text)
    ProcCmdMSSPSBL                           0x00004bfb   Thumb Code    82  rs232_protocol.o(.text)
    ProcCmdMSSPSW                            0x00004c4d   Thumb Code    82  rs232_protocol.o(.text)
    ProcCmdZ1EMDIM                           0x00004c9f   Thumb Code   120  rs232_protocol.o(.text)
    ProcCmdZ1EMP                             0x00004d17   Thumb Code   104  rs232_protocol.o(.text)
    ProcCmdZ1EMC                             0x00004d7f   Thumb Code   120  rs232_protocol.o(.text)
    ProcCmdZ1EMDEL                           0x00004df7   Thumb Code   554  rs232_protocol.o(.text)
    ProcCmdZ1VFL_                            0x00005021   Thumb Code    88  rs232_protocol.o(.text)
    ProcCmdZ1VFR_                            0x00005079   Thumb Code    88  rs232_protocol.o(.text)
    ProcCmdZ1VC_                             0x000050d1   Thumb Code    88  rs232_protocol.o(.text)
    ProcCmdZ1VSL_                            0x00005129   Thumb Code    88  rs232_protocol.o(.text)
    ProcCmdZ1VSR_                            0x00005181   Thumb Code    88  rs232_protocol.o(.text)
    ProcCmdZ1VBL_                            0x000051d9   Thumb Code    88  rs232_protocol.o(.text)
    ProcCmdZ1VBR_                            0x00005231   Thumb Code    88  rs232_protocol.o(.text)
    ProcCmdZ1VS_                             0x00005289   Thumb Code    88  rs232_protocol.o(.text)
    Rs232UpdateStreamType                    0x000052e1   Thumb Code  2526  rs232_protocol.o(.text)
    ProCmdZ1VFD_                             0x00005cbf   Thumb Code    72  rs232_protocol.o(.text)
    ProcCmdZ1IN1                             0x00005d07   Thumb Code    80  rs232_protocol.o(.text)
    ProcCmdZ1IN2                             0x00005d57   Thumb Code    88  rs232_protocol.o(.text)
    ProcCmdZ1IN3                             0x00005daf   Thumb Code    88  rs232_protocol.o(.text)
    ProcCmdZ1IN4                             0x00005e07   Thumb Code   674  rs232_protocol.o(.text)
    ProcCmdZ1IN5                             0x000060a9   Thumb Code    82  rs232_protocol.o(.text)
    ProcCmdZ1IN6                             0x000060fb   Thumb Code    84  rs232_protocol.o(.text)
    ProcCmdZ1IN7                             0x0000614f   Thumb Code    84  rs232_protocol.o(.text)
    ProcCmdZ1IN8                             0x000061a3   Thumb Code    84  rs232_protocol.o(.text)
    IsAnalogLevelValid                       0x000061f7   Thumb Code    62  rs232_protocol.o(.text)
    FindLevelPosition                        0x00006235   Thumb Code   140  rs232_protocol.o(.text)
    ProcCmdZ1SAL1                            0x000062c1   Thumb Code    82  rs232_protocol.o(.text)
    ProcCmdZ1SAL2                            0x00006313   Thumb Code    82  rs232_protocol.o(.text)
    ProcCmdZ1SAL3                            0x00006365   Thumb Code    82  rs232_protocol.o(.text)
    ProcCmdZ1SAL4                            0x000063b7   Thumb Code    82  rs232_protocol.o(.text)
    ProcCmdZ1SAL5                            0x00006409   Thumb Code    82  rs232_protocol.o(.text)
    ProcCmdZ1SAL6                            0x0000645b   Thumb Code   322  rs232_protocol.o(.text)
    ProcCmdZ1SAL7                            0x0000659d   Thumb Code    80  rs232_protocol.o(.text)
    ProcCmdZ1SAL8                            0x000065ed   Thumb Code    82  rs232_protocol.o(.text)
    ProcCmdZ1ACN1                            0x0000663f   Thumb Code    86  rs232_protocol.o(.text)
    ProcCmdZ1ACN2                            0x00006695   Thumb Code    86  rs232_protocol.o(.text)
    ProcCmdZ1ACN3                            0x000066eb   Thumb Code    86  rs232_protocol.o(.text)
    ProcCmdZ1ACN4                            0x00006741   Thumb Code    86  rs232_protocol.o(.text)
    ProcCmdZ1ACN5                            0x00006797   Thumb Code    86  rs232_protocol.o(.text)
    ProcCmdZ1ACN6                            0x000067ed   Thumb Code    86  rs232_protocol.o(.text)
    ProcCmdZ1ACN7                            0x00006843   Thumb Code    86  rs232_protocol.o(.text)
    ProcCmdZ1ACN8                            0x00006899   Thumb Code    86  rs232_protocol.o(.text)
    ProcCmdZ1ACN7_1                          0x000068ef   Thumb Code    86  rs232_protocol.o(.text)
    ProcCmdZ1ACNR                            0x00006945   Thumb Code   332  rs232_protocol.o(.text)
    ProcCmdTAT                               0x00006a91   Thumb Code   152  rs232_protocol.o(.text)
    ProcCmdTAHDT                             0x00006b29   Thumb Code   152  rs232_protocol.o(.text)
    ProcCmdTFT                               0x00006bc1   Thumb Code   160  rs232_protocol.o(.text)
    ProcCmdTFHDT                             0x00006c61   Thumb Code   162  rs232_protocol.o(.text)
    ProcCmdTAP                               0x00006d03   Thumb Code    86  rs232_protocol.o(.text)
    ProcCmdTAHDP                             0x00006d59   Thumb Code    86  rs232_protocol.o(.text)
    ProcCmdTFP                               0x00006daf   Thumb Code    86  rs232_protocol.o(.text)
    ProcCmdTFHDP                             0x00006e05   Thumb Code    86  rs232_protocol.o(.text)
    ProcCmdT                                 0x00006e5b   Thumb Code   236  rs232_protocol.o(.text)
    GetTunerPosition                         0x00006f47   Thumb Code    38  rs232_protocol.o(.text)
    ProcCmdTAS                               0x00006f6d   Thumb Code   164  rs232_protocol.o(.text)
    ProcCmdTAHDS                             0x00007011   Thumb Code   166  rs232_protocol.o(.text)
    ProcCmdTAF                               0x000070b7   Thumb Code   220  rs232_protocol.o(.text)
    ProcCmdTAHDF                             0x00007193   Thumb Code   218  rs232_protocol.o(.text)
    ProcCmdTT_                               0x0000726d   Thumb Code   184  rs232_protocol.o(.text)
    ProcCmdASSP                              0x00007325   Thumb Code   318  rs232_protocol.o(.text)
    ProcCmdASHDMIAO                          0x00007463   Thumb Code    82  rs232_protocol.o(.text)
    ProcCmdASAVD                             0x000074b5   Thumb Code    90  rs232_protocol.o(.text)
    ProcCmdASFP                              0x0000750f   Thumb Code   144  rs232_protocol.o(.text)
    ProcCmdASRSN                             0x0000759f   Thumb Code    62  rs232_protocol.o(.text)
    ProcCmdASIRC                             0x000075dd   Thumb Code    96  rs232_protocol.o(.text)
    ProcCmdASIR2C                            0x0000763d   Thumb Code   102  rs232_protocol.o(.text)
    ProcCmdASIRM                             0x000076a3   Thumb Code    78  rs232_protocol.o(.text)
    ProcCmdASIR2M                            0x000076f1   Thumb Code    78  rs232_protocol.o(.text)
    ProcCmdASTO                              0x0000773f   Thumb Code   102  rs232_protocol.o(.text)
    ProcCmdASAIS                             0x000077a5   Thumb Code    62  rs232_protocol.o(.text)
    ProcCmdASDD                              0x000077e3   Thumb Code   364  rs232_protocol.o(.text)
    ProcCmdASRD                              0x0000794f   Thumb Code    88  rs232_protocol.o(.text)
    StrCmp                                   0x000079a7   Thumb Code    30  rs232_protocol.o(.text)
    ProcRs232Msg                             0x000079c5   Thumb Code    84  rs232_protocol.o(.text)
    C11Rs232                                 0x00007a19   Thumb Code   188  rs232_protocol.o(.text)
    SetSpeakerMode                           0x00007b2d   Thumb Code    62  setup_func.o(.text)
    SetDistanceMode                          0x00007b6b   Thumb Code   336  setup_func.o(.text)
    SetBalanceMode                           0x00007cbb   Thumb Code    70  setup_func.o(.text)
    SetCrossoverPointsMode                   0x00007d01   Thumb Code   364  setup_func.o(.text)
    Phase_Relay                              0x00007e6d   Thumb Code   136  setup_func.o(.text)
    SetSpkPhase                              0x00007ef5   Thumb Code   358  setup_func.o(.text)
    SetSpeakerPhaseMode                      0x0000805b   Thumb Code    66  setup_func.o(.text)
    SetPanoramaMode                          0x0000809d   Thumb Code     2  setup_func.o(.text)
    SetPanoramaToDefault                     0x0000809f   Thumb Code     2  setup_func.o(.text)
    ChangeListenProfileMode                  0x000080a1   Thumb Code    72  setup_func.o(.text)
    AssignedInputSetup                       0x000080e9   Thumb Code   106  setup_func.o(.text)
    SpkDimensionSetup                        0x00008153   Thumb Code    78  setup_func.o(.text)
    SpkPanoramaSetup                         0x000081a1   Thumb Code    78  setup_func.o(.text)
    SpkWidthSetup                            0x000081ef   Thumb Code    78  setup_func.o(.text)
    SetSpkDistance                           0x0000823d   Thumb Code    62  setup_func.o(.text)
    SpkDelaySetup                            0x0000827b   Thumb Code   108  setup_func.o(.text)
    SpkPhaseSetup                            0x000082e7   Thumb Code   190  setup_func.o(.text)
    SpkEqSetup                               0x000083a5   Thumb Code   206  setup_func.o(.text)
    SpkCrossoverSetup                        0x00008473   Thumb Code   120  setup_func.o(.text)
    AvSyncDelaySetup                         0x000084eb   Thumb Code    70  setup_func.o(.text)
    SpkBlanceTestMode                        0x00008531   Thumb Code   372  setup_func.o(.text)
    SetBalanceTestSignal                     0x000086a5   Thumb Code    46  setup_func.o(.text)
    SpkBlanceSetup                           0x000086d3   Thumb Code   124  setup_func.o(.text)
    LateSetup                                0x0000874f   Thumb Code   134  setup_func.o(.text)
    PasswordModeSetup                        0x000087d5   Thumb Code   100  setup_func.o(.text)
    PasswordSetup                            0x00008839   Thumb Code    64  setup_func.o(.text)
    BrightSetup                              0x00008879   Thumb Code    76  setup_func.o(.text)
    AutoInputSeekSetup                       0x000088c5   Thumb Code    64  setup_func.o(.text)
    Zone2InputSetup                          0x00008905   Thumb Code   340  setup_func.o(.text)
    GetVolumeIndex                           0x00008a59   Thumb Code    36  setup_func.o(.text)
    Zone2VolumeSetup                         0x00008a7d   Thumb Code   110  setup_func.o(.text)
    IrControlSetup                           0x00008aeb   Thumb Code    70  setup_func.o(.text)
    Zone2IrControlSetup                      0x00008b31   Thumb Code    74  setup_func.o(.text)
    Zone2IrModeSetup                         0x00008b7b   Thumb Code   120  setup_func.o(.text)
    RearIrModeSetup                          0x00008bf3   Thumb Code    92  setup_func.o(.text)
    TriggerSetup                             0x00008c4f   Thumb Code    72  setup_func.o(.text)
    RestoreDefaultSetup                      0x00008c97   Thumb Code   106  setup_func.o(.text)
    SpkConfigSetup                           0x00008d01   Thumb Code   138  setup_func.o(.text)
    SpkDistanceSetup                         0x00008d8b   Thumb Code   120  setup_func.o(.text)
    SetAnalogInLevel                         0x00008e03   Thumb Code    50  setup_func.o(.text)
    AnalogLevelSetup                         0x00008e35   Thumb Code    92  setup_func.o(.text)
    SetAnalogInMode                          0x00008e91   Thumb Code    10  setup_func.o(.text)
    AnalogInSetup                            0x00008e9b   Thumb Code   154  setup_func.o(.text)
    HDMIInAudioSetup                         0x00008f35   Thumb Code    68  setup_func.o(.text)
    SetHdmiAudioOut                          0x00008f79   Thumb Code   128  setup_func.o(.text)
    CDPureAudio                              0x00008ff9   Thumb Code    68  setup_func.o(.text)
    HDMIAUIDOOUT                             0x0000903d   Thumb Code    78  setup_func.o(.text)
    SetMasterVolumeLevel                     0x0000908b   Thumb Code    58  setup_func.o(.text)
    MasterVolumeLevel                        0x000090c5   Thumb Code   102  setup_func.o(.text)
    SetZ2MasterVolumeLevel                   0x0000912b   Thumb Code    40  setup_func.o(.text)
    Z2MasterVolumeLevel                      0x00009153   Thumb Code    72  setup_func.o(.text)
    MaxVolumeLevel                           0x0000919b   Thumb Code   212  setup_func.o(.text)
    SetMaxVolumeLevel                        0x0000926f   Thumb Code    72  setup_func.o(.text)
    ReadName                                 0x000092b7   Thumb Code    40  setup_func.o(.text)
    WriteName                                0x000092df   Thumb Code    74  setup_func.o(.text)
    ChanegName                               0x00009329   Thumb Code   106  setup_func.o(.text)
    InputNameSetup                           0x00009393   Thumb Code   172  setup_func.o(.text)
    LogoSetup                                0x0000943f   Thumb Code   100  setup_func.o(.text)
    ReadPwd                                  0x000094b9   Thumb Code    38  setup_menu.o(.text)
    WritePwd                                 0x000094df   Thumb Code    30  setup_menu.o(.text)
    read_curr_option                         0x000094fd   Thumb Code    60  setup_menu.o(.text)
    write_curr_option                        0x00009539   Thumb Code    30  setup_menu.o(.text)
    execute_curr_option                      0x00009557   Thumb Code    38  setup_menu.o(.text)
    load_default_option                      0x0000957d   Thumb Code    36  setup_menu.o(.text)
    Inquire_restrict_option                  0x000095a1   Thumb Code    38  setup_menu.o(.text)
    MenuLoadCurOption                        0x000095c7   Thumb Code    62  setup_menu.o(.text)
    MenuFindPage                             0x00009605   Thumb Code    42  setup_menu.o(.text)
    MenuCaptionShow                          0x0000962f   Thumb Code    70  setup_menu.o(.text)
    MenuHeaderShow                           0x00009675   Thumb Code    44  setup_menu.o(.text)
    VfdShowMenuOption                        0x000096a1   Thumb Code    76  setup_menu.o(.text)
    MenuItemShow                             0x000096ed   Thumb Code  1204  setup_menu.o(.text)
    MenuDisplay                              0x00009ba1   Thumb Code    40  setup_menu.o(.text)
    SetupMenuDisplay                         0x00009bc9   Thumb Code    84  setup_menu.o(.text)
    SetupMenuInit                            0x00009c1d   Thumb Code    90  setup_menu.o(.text)
    VfdInitDispPwd                           0x00009c77   Thumb Code    56  setup_menu.o(.text)
    SetupInit                                0x00009caf   Thumb Code    68  setup_menu.o(.text)
    SetupExit                                0x00009cf3   Thumb Code   252  setup_menu.o(.text)
    SetupMenuProcBalance                     0x00009def   Thumb Code    98  setup_menu.o(.text)
    ProcSetupUpKey                           0x00009e51   Thumb Code   312  setup_menu.o(.text)
    ProcSetupDownKey                         0x00009f89   Thumb Code   328  setup_menu.o(.text)
    ProcSetupLeftKey                         0x0000a0d1   Thumb Code   450  setup_menu.o(.text)
    ProcSetupRightKey                        0x0000a293   Thumb Code   444  setup_menu.o(.text)
    ProcSetupEnterKey                        0x0000a44f   Thumb Code   282  setup_menu.o(.text)
    SetupExitMenu                            0x0000a569   Thumb Code    42  setup_menu.o(.text)
    SetupLoadEeprom                          0x0000a593   Thumb Code   582  setup_menu.o(.text)
    SetupLoadDefault                         0x0000a7d9   Thumb Code   238  setup_menu.o(.text)
    PwdKeyService                            0x0000a8c7   Thumb Code   624  setup_menu.o(.text)
    SetupKeyService                          0x0000ab37   Thumb Code   246  setup_menu.o(.text)
    SetupFlashHandler                        0x0000ac2d   Thumb Code    80  setup_menu.o(.text)
    UpdateVfdFlash                           0x0000ac7d   Thumb Code   158  setup_menu.o(.text)
    SetupProcMessage                         0x0000ad1b   Thumb Code    70  setup_menu.o(.text)
    IsCurFocusTid                            0x0000add9   Thumb Code    18  task.o(.text)
    SetCurFocusTid                           0x0000adeb   Thumb Code    16  task.o(.text)
    GetCurFocusTid                           0x0000adfb   Thumb Code     6  task.o(.text)
    ProcMessage                              0x0000ae01   Thumb Code    70  task.o(.text)
    Inline ARM to Thumb Veneer to VfdTimerHandler 0x0000ae50   ARM Code       0  vfd_disp.o(.text)
    VfdRefresh                               0x0000ae59   Thumb Code    16  vfd_disp.o(.text)
    GetVfdbufferChar                         0x0000ae69   Thumb Code     8  vfd_disp.o(.text)
    SetVfdOwner                              0x0000ae71   Thumb Code    42  vfd_disp.o(.text)
    VfdTimerHandler                          0x0000ae9b   Thumb Code    94  vfd_disp.o(.text)
    SetVfdDispMode                           0x0000aef9   Thumb Code    16  vfd_disp.o(.text)
    VfdDisplay                               0x0000af09   Thumb Code   114  vfd_disp.o(.text)
    VfdDisplayBlank                          0x0000af7b   Thumb Code   100  vfd_disp.o(.text)
    VfdTempDisp                              0x0000afdf   Thumb Code   114  vfd_disp.o(.text)
    VfdTempDispBlank                         0x0000b051   Thumb Code    94  vfd_disp.o(.text)
    Inline ARM to Thumb Veneer to MsgSetSoftMute 0x0000b0c4   ARM Code       0  zone1_task.o(.text)
    IsZone1VolumeValid                       0x0000b0cd   Thumb Code    22  zone1_task.o(.text)
    MsgSetMute                               0x0000b0e3   Thumb Code    40  zone1_task.o(.text)
    MsgSetStream                             0x0000b10b   Thumb Code    38  zone1_task.o(.text)
    MsgSetInputSource                        0x0000b131   Thumb Code    36  zone1_task.o(.text)
    MsgSetDSPSetting                         0x0000b155   Thumb Code    36  zone1_task.o(.text)
    MsgSetDSPHDMISetting                     0x0000b179   Thumb Code    36  zone1_task.o(.text)
    MsgSetDspChannel                         0x0000b19d   Thumb Code    36  zone1_task.o(.text)
    MsgSetSoftMute                           0x0000b1c1   Thumb Code    36  zone1_task.o(.text)
    MsgSetPower                              0x0000b1e5   Thumb Code    36  zone1_task.o(.text)
    MsgSetVfdShow                            0x0000b209   Thumb Code    36  zone1_task.o(.text)
    MsgSetDimer                              0x0000b22d   Thumb Code    38  zone1_task.o(.text)
    MsgSetKey                                0x0000b253   Thumb Code    62  zone1_task.o(.text)
    MsgSetVolume                             0x0000b291   Thumb Code    46  zone1_task.o(.text)
    MsgSetFlash                              0x0000b2bf   Thumb Code    42  zone1_task.o(.text)
    IsZone1PowerOn                           0x0000b2e9   Thumb Code    14  zone1_task.o(.text)
    SetRefresh                               0x0000b2f7   Thumb Code    10  zone1_task.o(.text)
    RefreshHandle                            0x0000b301   Thumb Code    54  zone1_task.o(.text)
    ShowVersion                              0x0000b337   Thumb Code    88  zone1_task.o(.text)
    VfdUpdateVolumeValue                     0x0000b38f   Thumb Code    60  zone1_task.o(.text)
    VfdUpdateStreamType                      0x0000b3cb   Thumb Code  2990  zone1_task.o(.text)
    VfdUpdateZone1                           0x0000bf79   Thumb Code    54  zone1_task.o(.text)
    GetSrcName                               0x0000bfaf   Thumb Code    94  zone1_task.o(.text)
    SelectSource                             0x0000c00d   Thumb Code  1080  zone1_task.o(.text)
    ProcInputSelect                          0x0000c445   Thumb Code   186  zone1_task.o(.text)
    PowerOnDisplay                           0x0000c4ff   Thumb Code    36  zone1_task.o(.text)
    SetMasterVolumeValue                     0x0000c523   Thumb Code    82  zone1_task.o(.text)
    GetVolumeEepromSetValue                  0x0000c575   Thumb Code    32  zone1_task.o(.text)
    SystemPowerOn                            0x0000c595   Thumb Code   160  zone1_task.o(.text)
    SystemPowerOff                           0x0000c635   Thumb Code    92  zone1_task.o(.text)
    Zone1Mute                                0x0000c691   Thumb Code    52  zone1_task.o(.text)
    SetAutoseekFlag                          0x0000c6c5   Thumb Code    32  zone1_task.o(.text)
    IsAutoSeekOn                             0x0000c6e5   Thumb Code    24  zone1_task.o(.text)
    IsEverAutoseek                           0x0000c6fd   Thumb Code    22  zone1_task.o(.text)
    SeekSelect                               0x0000c713   Thumb Code   352  zone1_task.o(.text)
    ProcAutoSeekSur                          0x0000c873   Thumb Code   534  zone1_task.o(.text)
    ProcZone1PowerOn                         0x0000ca89   Thumb Code   170  zone1_task.o(.text)
    ProcZone1PowerOff                        0x0000cb33   Thumb Code   116  zone1_task.o(.text)
    LoadSystemStartupValue                   0x0000cba7   Thumb Code    96  zone1_task.o(.text)
    Zone1ProcAutoSeek                        0x0000cc07   Thumb Code   660  zone1_task.o(.text)
    PcmProcCesKey                            0x0000ce9b   Thumb Code    76  zone1_task.o(.text)
    Ac3ProcCesKey                            0x0000cee7   Thumb Code   132  zone1_task.o(.text)
    DtsProcCesKey                            0x0000cf6b   Thumb Code   126  zone1_task.o(.text)
    PcmProcNeoKey                            0x0000cfe9   Thumb Code    76  zone1_task.o(.text)
    PcmProcPliiKey                           0x0000d035   Thumb Code   184  zone1_task.o(.text)
    PcmProcSurKey                            0x0000d0ed   Thumb Code   288  zone1_task.o(.text)
    Ac3ProcPliiKey                           0x0000d20d   Thumb Code   284  zone1_task.o(.text)
    DtsProcPliiKey                           0x0000d329   Thumb Code   100  zone1_task.o(.text)
    Ac3ProcSurKey                            0x0000d38d   Thumb Code   232  zone1_task.o(.text)
    IsHidenKey                               0x0000d475   Thumb Code   184  zone1_task.o(.text)
    Zone1ProcMessage                         0x0000daf1   Thumb Code  1330  zone1_task.o(.text)
    IsZone2PowerOn                           0x0000e045   Thumb Code    14  zone2_task.o(.text)
    IsZone2VolumeValid                       0x0000e053   Thumb Code    22  zone2_task.o(.text)
    SetZ2MasterVolumeValue                   0x0000e069   Thumb Code    28  zone2_task.o(.text)
    ProcZone2PowerOn                         0x0000e085   Thumb Code   138  zone2_task.o(.text)
    ProcZone2PowerOff                        0x0000e10f   Thumb Code   124  zone2_task.o(.text)
    Zone2ProcInputSelect                     0x0000e18b   Thumb Code    78  zone2_task.o(.text)
    Zone2RadioMode                           0x0000e1d9   Thumb Code   244  zone2_task.o(.text)
    Zone2ProcMessage                         0x0000e5fd   Thumb Code   580  zone2_task.o(.text)
    MsgSetIrc                                0x0000e8c1   Thumb Code    38  auto_sound.o(.text)
    AutoSoundInit                            0x0000e8e7   Thumb Code    42  auto_sound.o(.text)
    AutoSoundExit                            0x0000e911   Thumb Code    66  auto_sound.o(.text)
    InitSpkPara                              0x0000e953   Thumb Code   142  auto_sound.o(.text)
    IsAnySpkValid                            0x0000e9e1   Thumb Code    44  auto_sound.o(.text)
    DisplayConnectHelp                       0x0000ea0d   Thumb Code    28  auto_sound.o(.text)
    DisplayNA                                0x0000ea29   Thumb Code    54  auto_sound.o(.text)
    GetIrc2EqValue                           0x0000ea5f   Thumb Code  1022  auto_sound.o(.text)
    ASProcSetupConfig                        0x0000ee5d   Thumb Code   278  auto_sound.o(.text)
    ASProcSpeakerCheck                       0x0000ef73   Thumb Code  1016  auto_sound.o(.text)
    ASProcSetDistance                        0x0000f36b   Thumb Code   562  auto_sound.o(.text)
    ASProcSetBalance                         0x0000f59d   Thumb Code  1034  auto_sound.o(.text)
    sort                                     0x0000f9a7   Thumb Code    58  auto_sound.o(.text)
    ASProcSetCrossoverPoints                 0x0000f9e1   Thumb Code   620  auto_sound.o(.text)
    ASProcSetRoomEQ                          0x0000fc4d   Thumb Code   872  auto_sound.o(.text)
    FindBalancePosition                      0x0000ffe5   Thumb Code   120  auto_sound.o(.text)
    SPK_Phase_Display                        0x0001005d   Thumb Code   112  auto_sound.o(.text)
    ASProcSetSpeakerphase                    0x000100cd   Thumb Code  2632  auto_sound.o(.text)
    AutoSoundProcMessage                     0x00010b15   Thumb Code   176  auto_sound.o(.text)
    SetRadioStatus                           0x00010bc5   Thumb Code     6  radio_task.o(.text)
    GetRadioStatus                           0x00010bcb   Thumb Code     6  radio_task.o(.text)
    IsFreqValid                              0x00010bd1   Thumb Code   114  radio_task.o(.text)
    MsgSetRadioFreq                          0x00010c43   Thumb Code    54  radio_task.o(.text)
    MsgSetRadioSearch                        0x00010c79   Thumb Code    38  radio_task.o(.text)
    MsgSetRadioLoadPreset                    0x00010c9f   Thumb Code    38  radio_task.o(.text)
    MsgTextDisplay                           0x00010cc5   Thumb Code    34  radio_task.o(.text)
    MsgSetRadioSavePreset                    0x00010d01   Thumb Code    58  radio_task.o(.text)
    SaveFmPreset                             0x00010d3b   Thumb Code   250  radio_task.o(.text)
    LoadRadioPreset                          0x00010e35   Thumb Code   258  radio_task.o(.text)
    IsTunerIfCorrect                         0x00010f37   Thumb Code    14  radio_task.o(.text)
    ISValidTunerPostion                      0x00010f45   Thumb Code   332  radio_task.o(.text)
    RadioDisplay                             0x00011091   Thumb Code   656  radio_task.o(.text)
    GetTextDispBuffer                        0x00011321   Thumb Code    42  radio_task.o(.text)
    Radio_Text_Display                       0x0001134b   Thumb Code    44  radio_task.o(.text)
    RadioChangeMode                          0x00011377   Thumb Code   824  radio_task.o(.text)
    RadioInit                                0x000116af   Thumb Code   496  radio_task.o(.text)
    RadioExit                                0x0001189f   Thumb Code    68  radio_task.o(.text)
    CalcRadioPosition                        0x000118e3   Thumb Code   376  radio_task.o(.text)
    CalcRadioFreq                            0x00011a5b   Thumb Code   166  radio_task.o(.text)
    CalcCurrenTunerFreq                      0x00011b01   Thumb Code    60  radio_task.o(.text)
    UpdateSaveVfd                            0x00011be3   Thumb Code    54  radio_task.o(.text)
    TextDisplayExit                          0x00011c37   Thumb Code    26  radio_task.o(.text)
    C11_Tuner_SIS_Change                     0x00011c51   Thumb Code   426  radio_task.o(.text)
    C11_Tuner_PSD_Change                     0x00011dfb   Thumb Code   628  radio_task.o(.text)
    PreProcSaveKey                           0x0001206f   Thumb Code   234  radio_task.o(.text)
    PreProcTextDisplayKey                    0x00012159   Thumb Code    66  radio_task.o(.text)
    RadioKeyService                          0x0001219b   Thumb Code   986  radio_task.o(.text)
    RadioProcMessage                         0x00012575   Thumb Code  1908  radio_task.o(.text)
    RadioLoop                                0x00012ce9   Thumb Code   144  radio_task.o(.text)
    SetUart0Baudrate                         0x00012dd5   Thumb Code    36  uart.o(.text)
    Uart0Init                                0x00012df9   Thumb Code    60  uart.o(.text)
    Uart0Send                                0x00012e35   Thumb Code    40  uart.o(.text)
    SetUart1Baudrate                         0x00012e5d   Thumb Code    36  uart.o(.text)
    Uart1Init                                0x00012e81   Thumb Code    74  uart.o(.text)
    Uart1Send                                0x00012ecb   Thumb Code    40  uart.o(.text)
    UartInit                                 0x00012ef3   Thumb Code    24  uart.o(.text)
    Uart0Isr                                 0x00012f38   ARM Code      68  uart.o(.text)
    Uart1Isr                                 0x00012f7c   ARM Code      84  uart.o(.text)
    Cs8416WriteByte                          0x00012fe5   Thumb Code    52  cs8416.o(.text)
    Cs8416ReadByte                           0x00013019   Thumb Code    40  cs8416.o(.text)
    Cs8416GetFreq                            0x00013041   Thumb Code    44  cs8416.o(.text)
    CheckCs8416Unlock                        0x0001306d   Thumb Code    54  cs8416.o(.text)
    IsCs8416Unlock                           0x000130a3   Thumb Code    56  cs8416.o(.text)
    InitCs8416                               0x000130db   Thumb Code    48  cs8416.o(.text)
    SelectDSD                                0x0001312d   Thumb Code   186  dac.o(.text)
    write_word                               0x000131e7   Thumb Code    92  dac.o(.text)
    Pcm1796Write                             0x00013243   Thumb Code    20  dac.o(.text)
    DacInvert                                0x00013257   Thumb Code   182  dac.o(.text)
    Auto_Setup_DAC_Phase                     0x0001330d   Thumb Code    50  dac.o(.text)
    InitDACPhase                             0x0001333f   Thumb Code    40  dac.o(.text)
    DacMute                                  0x00013367   Thumb Code    34  dac.o(.text)
    InitDACReg                               0x00013389   Thumb Code    40  dac.o(.text)
    DSD_Choose                               0x000133b1   Thumb Code    40  dac.o(.text)
    InitDSDMode                              0x000133d9   Thumb Code   158  dac.o(.text)
    EepromWriteByte                          0x00013489   Thumb Code    52  eeprom.o(.text)
    EepromReadByte                           0x000134bd   Thumb Code    40  eeprom.o(.text)
    FillEepromValue                          0x000134e5   Thumb Code    32  eeprom.o(.text)
    DebugEepromValue                         0x00013505   Thumb Code    66  eeprom.o(.text)
    wait_timer                               0x0001356d   Thumb Code    16  i2cdrv.o(.text)
    I2CWriteNByte                            0x00013875   Thumb Code   128  i2cdrv.o(.text)
    I2CReadNByte                             0x000138f5   Thumb Code   184  i2cdrv.o(.text)
    I2C_bytewrite                            0x000139ad   Thumb Code   148  i2cdrv.o(.text)
    I2C_byteread                             0x00013a41   Thumb Code   188  i2cdrv.o(.text)
    read165                                  0x00013b01   Thumb Code    80  ic165.o(.text)
    Ext4094Sendbyte                          0x00013b95   Thumb Code    34  ic4094.o(.text)
    Ext4094SetBit                            0x00013bb7   Thumb Code    28  ic4094.o(.text)
    Ext4094ClearBit                          0x00013bd3   Thumb Code    28  ic4094.o(.text)
    Set_SLSR_Mas9116_Mute                    0x00013bef   Thumb Code    28  ic4094.o(.text)
    Set_HDMI_ISR                             0x00013c0b   Thumb Code    28  ic4094.o(.text)
    Set_HDMI_RST                             0x00013c27   Thumb Code    28  ic4094.o(.text)
    Set_UART_SEL                             0x00013c43   Thumb Code    28  ic4094.o(.text)
    Set_Zone2_Mas9116_Mute                   0x00013c5f   Thumb Code    28  ic4094.o(.text)
    Set_FLFR_Mas9116_Mute                    0x00013c7b   Thumb Code    28  ic4094.o(.text)
    Set_CENLFE_Mas9116_Mute                  0x00013c97   Thumb Code    28  ic4094.o(.text)
    Set_SBLSBR_Mas9116_Mute                  0x00013cb3   Thumb Code    28  ic4094.o(.text)
    Set_Mas9116_HardMute                     0x00013ccf   Thumb Code    76  ic4094.o(.text)
    LPC2132HwReset                           0x00013d1b   Thumb Code    26  ic4094.o(.text)
    IC4094_Default                           0x00013d35   Thumb Code    62  ic4094.o(.text)
    HDMI_Software_Update                     0x00013d73   Thumb Code    26  ic4094.o(.text)
    SetIoport0                               0x00013dd1   Thumb Code    16  ioport.o(.text)
    SensePort0                               0x00013de1   Thumb Code    18  ioport.o(.text)
    SetIoport1                               0x00013df3   Thumb Code    16  ioport.o(.text)
    SensePort1                               0x00013e03   Thumb Code    18  ioport.o(.text)
    SetIoport2                               0x00013e15   Thumb Code    16  ioport.o(.text)
    SensePort2                               0x00013e25   Thumb Code    18  ioport.o(.text)
    SetIoport3                               0x00013e37   Thumb Code    16  ioport.o(.text)
    SensePort3                               0x00013e47   Thumb Code    18  ioport.o(.text)
    SetIoport4                               0x00013e59   Thumb Code    20  ioport.o(.text)
    SensePort4                               0x00013e6d   Thumb Code    20  ioport.o(.text)
    SystemPower                              0x00013e81   Thumb Code    22  ioport.o(.text)
    PowerLed                                 0x00013e97   Thumb Code    22  ioport.o(.text)
    LedStandby                               0x00013ead   Thumb Code    78  ioport.o(.text)
    InitPower                                0x00013efb   Thumb Code    16  ioport.o(.text)
    HDRadioPower                             0x00013f0b   Thumb Code    22  ioport.o(.text)
    InitHDRaidoPower                         0x00013f21   Thumb Code    16  ioport.o(.text)
    SetResetPin                              0x00013f31   Thumb Code    20  ioport.o(.text)
    InitResetPin                             0x00013f45   Thumb Code    14  ioport.o(.text)
    SystemReset                              0x00013f53   Thumb Code    32  ioport.o(.text)
    InitDac                                  0x00013f73   Thumb Code   122  ioport.o(.text)
    SetMas9116Cs0                            0x00013fed   Thumb Code    22  ioport.o(.text)
    SetMas9116Cs1                            0x00014003   Thumb Code    22  ioport.o(.text)
    SetMas9116Cs2                            0x00014019   Thumb Code    22  ioport.o(.text)
    SetMas9116Cs3                            0x0001402f   Thumb Code    22  ioport.o(.text)
    SetMas9116Cs4                            0x00014045   Thumb Code    22  ioport.o(.text)
    SetMas9116Cs5                            0x0001405b   Thumb Code    22  ioport.o(.text)
    SelectMas9116                            0x00014071   Thumb Code   314  ioport.o(.text)
    InitMas9116                              0x000141ab   Thumb Code    78  ioport.o(.text)
    SetMax335Data                            0x000141f9   Thumb Code    24  ioport.o(.text)
    SetMax335Clk                             0x00014211   Thumb Code    24  ioport.o(.text)
    SetMax335Cs1                             0x00014229   Thumb Code    22  ioport.o(.text)
    SetMax335Cs2                             0x0001423f   Thumb Code    22  ioport.o(.text)
    SetMax335Cs3                             0x00014255   Thumb Code    22  ioport.o(.text)
    SetMax335Cs4                             0x0001426b   Thumb Code    22  ioport.o(.text)
    SetMax335Cs5                             0x00014281   Thumb Code    20  ioport.o(.text)
    SetMax335Cs6                             0x00014295   Thumb Code    20  ioport.o(.text)
    SetMax335Cs7                             0x000142a9   Thumb Code    22  ioport.o(.text)
    SetMax335Cs8                             0x000142bf   Thumb Code    22  ioport.o(.text)
    SelectMax335                             0x000142d5   Thumb Code   144  ioport.o(.text)
    InitMAS335                               0x00014365   Thumb Code    72  ioport.o(.text)
    Set7CH1Mute                              0x000143ad   Thumb Code    22  ioport.o(.text)
    SetZone2Mute                             0x000143c3   Thumb Code    22  ioport.o(.text)
    SetBalance_Mute                          0x000143d9   Thumb Code    22  ioport.o(.text)
    SetHeadphoneMute                         0x000143ef   Thumb Code    22  ioport.o(.text)
    Zone2Mute                                0x00014405   Thumb Code    26  ioport.o(.text)
    InitMuteControl                          0x0001441f   Thumb Code    72  ioport.o(.text)
    PowerOffMuteControl                      0x00014467   Thumb Code    24  ioport.o(.text)
    Init165                                  0x0001447f   Thumb Code    28  ioport.o(.text)
    SenseEncoderSwitchPlus                   0x0001449b   Thumb Code    14  ioport.o(.text)
    SenseEncoderSwitchMinus                  0x000144a9   Thumb Code    10  ioport.o(.text)
    InitEncoderSwitch                        0x000144b3   Thumb Code    26  ioport.o(.text)
    DSP_Input_Stream_Select                  0x000144cd   Thumb Code    20  ioport.o(.text)
    Init_Dsp_Input_Select                    0x000144e1   Thumb Code    14  ioport.o(.text)
    DSD_Select                               0x000144ef   Thumb Code    20  ioport.o(.text)
    Init_DSD_Select                          0x00014503   Thumb Code    14  ioport.o(.text)
    SenseAnalogSignal                        0x00014511   Thumb Code    14  ioport.o(.text)
    Set4094Cs                                0x0001451f   Thumb Code    24  ioport.o(.text)
    Set4094OE                                0x00014537   Thumb Code    24  ioport.o(.text)
    SetData4094                              0x0001454f   Thumb Code    24  ioport.o(.text)
    Set4094Clk                               0x00014567   Thumb Code    24  ioport.o(.text)
    Init4094                                 0x0001457f   Thumb Code    30  ioport.o(.text)
    SetDspReset                              0x0001459d   Thumb Code    20  ioport.o(.text)
    InitDspResetPin                          0x000145b1   Thumb Code    28  ioport.o(.text)
    DSPHwReset                               0x000145cd   Thumb Code    50  ioport.o(.text)
    SenseDspIrq                              0x000145ff   Thumb Code    18  ioport.o(.text)
    SenseDspBusy                             0x00014611   Thumb Code    18  ioport.o(.text)
    Set_Spi_Cs                               0x00014623   Thumb Code    24  ioport.o(.text)
    Set_Spi_Clk                              0x0001463b   Thumb Code    24  ioport.o(.text)
    Set_Spi_MOSI                             0x00014653   Thumb Code    20  ioport.o(.text)
    Sense_Spi_MISO                           0x00014667   Thumb Code    14  ioport.o(.text)
    Init_Dsp_Spi_Pin                         0x00014675   Thumb Code    64  ioport.o(.text)
    set_sda                                  0x000146b5   Thumb Code    44  ioport.o(.text)
    set_scl                                  0x000146e1   Thumb Code    44  ioport.o(.text)
    sense_sda                                0x0001470d   Thumb Code    18  ioport.o(.text)
    sense_scl                                0x0001471f   Thumb Code    18  ioport.o(.text)
    set_vfd_sda                              0x00014731   Thumb Code    52  ioport.o(.text)
    set_vfd_scl                              0x00014765   Thumb Code    52  ioport.o(.text)
    sense_vfd_sda                            0x00014799   Thumb Code    20  ioport.o(.text)
    sense_vfd_scl                            0x000147ad   Thumb Code    20  ioport.o(.text)
    set_sda1                                 0x000147c1   Thumb Code    52  ioport.o(.text)
    set_scl1                                 0x000147f5   Thumb Code    52  ioport.o(.text)
    sense_sda1                               0x00014829   Thumb Code    20  ioport.o(.text)
    sense_scl1                               0x0001483d   Thumb Code    20  ioport.o(.text)
    set_sda2                                 0x00014851   Thumb Code    52  ioport.o(.text)
    set_scl2                                 0x00014885   Thumb Code    52  ioport.o(.text)
    sense_sda2                               0x000148b9   Thumb Code    20  ioport.o(.text)
    sense_scl2                               0x000148cd   Thumb Code    20  ioport.o(.text)
    set_sda_hdmi                             0x000148e1   Thumb Code    52  ioport.o(.text)
    set_scl_hdmi                             0x00014915   Thumb Code    52  ioport.o(.text)
    sense_sda_hdmi                           0x00014949   Thumb Code    20  ioport.o(.text)
    sense_scl_hdmi                           0x0001495d   Thumb Code    20  ioport.o(.text)
    I2cPinInit                               0x00014971   Thumb Code   172  ioport.o(.text)
    EnableEint0                              0x00014a1d   Thumb Code    10  ioport.o(.text)
    DisableEint0                             0x00014a27   Thumb Code    10  ioport.o(.text)
    EnableEint1                              0x00014a31   Thumb Code    10  ioport.o(.text)
    DisableEint1                             0x00014a3b   Thumb Code    10  ioport.o(.text)
    EnableEint2                              0x00014a45   Thumb Code    10  ioport.o(.text)
    DisableEint2                             0x00014a4f   Thumb Code    10  ioport.o(.text)
    EnableEint3                              0x00014a59   Thumb Code    10  ioport.o(.text)
    DisableEint3                             0x00014a63   Thumb Code    10  ioport.o(.text)
    Zone1SelectIr                            0x00014a6d   Thumb Code   110  ioport.o(.text)
    remote_config                            0x00014adb   Thumb Code    60  ioport.o(.text)
    Zone2SelectIr                            0x00014b17   Thumb Code    92  ioport.o(.text)
    SetIoStandby                             0x00014b73   Thumb Code   180  ioport.o(.text)
    SetIoPowerOn                             0x00014c27   Thumb Code     2  ioport.o(.text)
    HardwareInit                             0x00014c29   Thumb Code    90  ioport.o(.text)
    exint3                                   0x00014ca8   ARM Code     200  ioport.o(.text)
    exint2                                   0x00014d70   ARM Code     236  ioport.o(.text)
    exint1                                   0x00014e5c   ARM Code     236  ioport.o(.text)
    exint0                                   0x00014f48   ARM Code     200  ioport.o(.text)
    Inline ARM to Thumb Veneer to ir_core_philips 0x00015040   ARM Code       0  ir.o(.text)
    repeat_IRkey_allowed                     0x00015049   Thumb Code    48  ir.o(.text)
    InitRemoteRepeatKey                      0x00015079   Thumb Code    24  ir.o(.text)
    AddRemoteRepeatKey                       0x00015091   Thumb Code    48  ir.o(.text)
    DeleteRemoteRepeatKey                    0x000150c1   Thumb Code   102  ir.o(.text)
    zone2_repeat_IRkey_allowed               0x00015127   Thumb Code    18  ir.o(.text)
    ir_core_philips                          0x00015139   Thumb Code   714  ir.o(.text)
    ir2_core_philips                         0x00015403   Thumb Code   622  ir.o(.text)
    DelayMs                                  0x00015689   Thumb Code    24  timer.o(.text)
    Timer0_Handler                           0x000156a1   Thumb Code   214  timer.o(.text)
    Timer0Init                               0x00015777   Thumb Code    34  timer.o(.text)
    timer0_irq                               0x000157e0   ARM Code     752  timer.o(.text)
    VfdSendNByte                             0x00015b3d   Thumb Code    56  vfddriver.o(.text)
    VfdSendByte                              0x00015b75   Thumb Code    52  vfddriver.o(.text)
    VfdUpdateBuffer                          0x00015ba9   Thumb Code    78  vfddriver.o(.text)
    VfdSetDimerValue                         0x00015bf7   Thumb Code    34  vfddriver.o(.text)
    Mas9116Read                              0x00015c9d   Thumb Code   176  mas9116.o(.text)
    CalcMas9116Volume                        0x00015d4d   Thumb Code    54  mas9116.o(.text)
    Mas9116SetGain                           0x00015d83   Thumb Code   146  mas9116.o(.text)
    Mas9116ReadRC5                           0x00015e15   Thumb Code    96  mas9116.o(.text)
    Mas9116Reset                             0x00015e75   Thumb Code   138  mas9116.o(.text)
    SetZone2Volume                           0x00015f0d   Thumb Code    38  volume.o(.text)
    Set2ChVolume                             0x00015f33   Thumb Code    38  volume.o(.text)
    SetBalanceVolume                         0x00015f59   Thumb Code    40  volume.o(.text)
    Set7Ch1MainVolume                        0x00015f81   Thumb Code   100  volume.o(.text)
    AutoSoundSetVolume                       0x00015fe5   Thumb Code    42  volume.o(.text)
    SoftMute                                 0x0001600f   Thumb Code   152  volume.o(.text)
    VolumeInit                               0x000160a7   Thumb Code   116  volume.o(.text)
    Max335SendByte                           0x00016189   Thumb Code    74  max335.o(.text)
    SetMax335Switch                          0x000161d3   Thumb Code    46  max335.o(.text)
    UpdateMax335                             0x00016201   Thumb Code    46  max335.o(.text)
    DigiSendByte                             0x00016239   Thumb Code    52  channel.o(.text)
    SetTrigerOut                             0x0001626d   Thumb Code    32  channel.o(.text)
    DigitalInSelectChannel                   0x0001628d   Thumb Code    20  channel.o(.text)
    Zone2DigiSelectChannel                   0x000162a1   Thumb Code    20  channel.o(.text)
    CheckAnalogIn                            0x000162b5   Thumb Code    44  channel.o(.text)
    AnalogInOff                              0x000162e1   Thumb Code    44  channel.o(.text)
    Zone2AnalogInOff                         0x0001630d   Thumb Code    44  channel.o(.text)
    AnalogInSelectChannel                    0x00016339   Thumb Code    58  channel.o(.text)
    Zone2SelectChannel                       0x00016373   Thumb Code   232  channel.o(.text)
    AnalogInputTypeSelect                    0x0001645b   Thumb Code   118  channel.o(.text)
    Analog7CH1OutSelectChannel               0x000164d1   Thumb Code    88  channel.o(.text)
    SystemSelectInputChannel                 0x000166b5   Thumb Code    54  channel.o(.text)
    SystemSearchInputChannel                 0x000166eb   Thumb Code    86  channel.o(.text)
    CheckInput                               0x00016741   Thumb Code    36  channel.o(.text)
    Tuner_Req_Radio_Monitor_Command          0x0001676d   Thumb Code   140  tuner.o(.text)
    Tuner_Band_Command                       0x000167f9   Thumb Code    66  tuner.o(.text)
    Tuner_Req_Tune_Up                        0x0001683b   Thumb Code    66  tuner.o(.text)
    Tuner_Req_Tune_Down                      0x0001687d   Thumb Code    66  tuner.o(.text)
    Tuner_Stop_Seek                          0x000168bf   Thumb Code    44  tuner.o(.text)
    Tuner_Seek_Command                       0x000168eb   Thumb Code    66  tuner.o(.text)
    Tuner_HDSEEK_Command                     0x0001692d   Thumb Code    66  tuner.o(.text)
    Tuner_Mute_Command                       0x0001696f   Thumb Code    66  tuner.o(.text)
    Tuner_Volume_Init                        0x000169b1   Thumb Code    50  tuner.o(.text)
    Tuner_Ext_Reset                          0x000169e3   Thumb Code    50  tuner.o(.text)
    Tuner_Req_Freq                           0x00016a15   Thumb Code    44  tuner.o(.text)
    FreqCheckSum                             0x00016a41   Thumb Code    28  tuner.o(.text)
    Tuner_Write_Freq_Command                 0x00016a5d   Thumb Code   104  tuner.o(.text)
    InitTuner                                0x00016ac5   Thumb Code   250  tuner.o(.text)
    HdmiSendByte                             0x00016bf9   Thumb Code    52  hdmi.o(.text)
    HdmiReadByte                             0x00016c2d   Thumb Code    40  hdmi.o(.text)
    HDMI_Port_Select                         0x00016c55   Thumb Code   112  hdmi.o(.text)
    HDMI_Loop                                0x00016cc5   Thumb Code   168  hdmi.o(.text)
    DSD_Loop                                 0x00016d6d   Thumb Code   212  hdmi.o(.text)
    HDMI_Busy                                0x00016e41   Thumb Code    60  hdmi.o(.text)
    HDMI_DSD_Loop                            0x00016e7d   Thumb Code    96  hdmi.o(.text)
    Delay_SPI                                0x00016ff9   Thumb Code    22  dsp_spi.o(.text)
    DspSpiWriteNByte                         0x00017099   Thumb Code   186  dsp_spi.o(.text)
    DspSpiReadNByte                          0x00017153   Thumb Code   118  dsp_spi.o(.text)
    ConvertDbValue                           0x00017279   Thumb Code    74  bassmanager.o(.text)
    DSP_BASS_CONTROL                         0x000172c3   Thumb Code   174  bassmanager.o(.text)
    DSP_BASS_MGR_5XOVER_CONTROL              0x00017371   Thumb Code    94  bassmanager.o(.text)
    DSP_BASS_MGR_HPF_CONTROL                 0x000173cf   Thumb Code    94  bassmanager.o(.text)
    DSP_SET_BASS_CORNER                      0x0001742d   Thumb Code   304  bassmanager.o(.text)
    DSP_BASS_INPUT_LEVEL                     0x0001755d   Thumb Code   186  bassmanager.o(.text)
    DSP_BASS_LFE_OUTPUT_LEVEL                0x00017617   Thumb Code   206  bassmanager.o(.text)
    DSP_BASS_FRONT_SUM_OUTPUT_LEVEL          0x000176e5   Thumb Code   168  bassmanager.o(.text)
    DSP_BASS_BACK_SUM_OUTPUT_LEVEL           0x0001778d   Thumb Code   176  bassmanager.o(.text)
    DSP_BASS_SUM1_INPUT_LEVEL                0x0001783d   Thumb Code   168  bassmanager.o(.text)
    DSP_BASS_SUM2_INPUT_LEVEL                0x000178e5   Thumb Code   160  bassmanager.o(.text)
    DSP_BASS_SUM3_INPUT_LEVLE                0x00017985   Thumb Code   168  bassmanager.o(.text)
    DSP_BASS_SUM4_INPUT_LEVLE                0x00017a2d   Thumb Code   174  bassmanager.o(.text)
    DSP_BASS_SUM5_INPUT_LEVLE                0x00017adb   Thumb Code   190  bassmanager.o(.text)
    DSP_BASS_X_INPUT_LEVEL_FRONT             0x00017b99   Thumb Code   176  bassmanager.o(.text)
    DSP_BASS_X_INPUT_LEVEL_BACK              0x00017c49   Thumb Code   176  bassmanager.o(.text)
    DSP_BASS_INPUT_SUB_LEVEL                 0x00017cf9   Thumb Code    98  bassmanager.o(.text)
    DSP_BASS_FRONT_SUM_OUTPUT_SUB_LEVEL      0x00017d5b   Thumb Code    98  bassmanager.o(.text)
    DSP_BASS_BACK_SUM_OUTPUT_SUB_LEVEL       0x00017dbd   Thumb Code    98  bassmanager.o(.text)
    ConfigSpkMode                            0x00017e1f   Thumb Code   512  bassmanager.o(.text)
    C11SetBass                               0x0001801f   Thumb Code   584  bassmanager.o(.text)
    BassOn                                   0x00018267   Thumb Code    66  bassmanager.o(.text)
    SetBassManagerSpeaker                    0x000182a9   Thumb Code   206  bassmanager.o(.text)
    DSP_MAIN_PPM_CONTROL                     0x00018381   Thumb Code   152  delaymanager.o(.text)
    DSP_Delay_Unit                           0x00018419   Thumb Code   134  delaymanager.o(.text)
    DSP_Delay_Channel_Setting                0x0001849f   Thumb Code   186  delaymanager.o(.text)
    DSP_Delay_Max_Setting                    0x00018559   Thumb Code   182  delaymanager.o(.text)
    DSP_EXT_BUFF_ADDR                        0x0001860f   Thumb Code    94  delaymanager.o(.text)
    DSP_EXT_BUFF_SIZE                        0x0001866d   Thumb Code    94  delaymanager.o(.text)
    DSP_DLYAUXCNTL                           0x000186cb   Thumb Code    94  delaymanager.o(.text)
    DSP_Delay_Firmware_Init                  0x00018729   Thumb Code   104  delaymanager.o(.text)
    DSP_AV_Delay                             0x00018791   Thumb Code    96  delaymanager.o(.text)
    DspReadDelay                             0x000187f1   Thumb Code    58  delaymanager.o(.text)
    DSP_AC3_Control                          0x00018831   Thumb Code   140  dolbymanager.o(.text)
    DSP_AC3_STEREO_MODE_CONTROL              0x000188bd   Thumb Code    96  dolbymanager.o(.text)
    DSP_AC3_COMPRESSION_CONTROL              0x0001891d   Thumb Code    82  dolbymanager.o(.text)
    DSP_AC3_CUT_X                            0x0001896f   Thumb Code    94  dolbymanager.o(.text)
    DSP_AC3_BOOST_Y                          0x000189cd   Thumb Code    94  dolbymanager.o(.text)
    DSP_AC3_DRC_INIT                         0x00018a2b   Thumb Code    24  dolbymanager.o(.text)
    DspReadDolby                             0x00018a43   Thumb Code    58  dolbymanager.o(.text)
    DspReadCrossbar                          0x00018a7d   Thumb Code    58  dolbymanager.o(.text)
    DspReadRegist                            0x00018ab7   Thumb Code    60  dolbymanager.o(.text)
    DSP_PLII_Control                         0x00018af9   Thumb Code   132  dolbyprologicii.o(.text)
    DSP_PLII_DECODE_MODE                     0x00018b7d   Thumb Code   164  dolbyprologicii.o(.text)
    DSP_PLII_CONTROL_REGISTER                0x00018c21   Thumb Code   134  dolbyprologicii.o(.text)
    DSP_PLII_CENTER_WIDTH_CONFIGURATION      0x00018ca7   Thumb Code   174  dolbyprologicii.o(.text)
    DSP_PLII_DIMENSION_CONFIGURATION         0x00018d55   Thumb Code   170  dolbyprologicii.o(.text)
    DSP_PLII_Firmware_Cfg                    0x00018dff   Thumb Code    20  dolbyprologicii.o(.text)
    DSP_PLIIx_Control                        0x00018e19   Thumb Code   132  dolbyprologiciix.o(.text)
    DSP_PLIIx_DECODE_MODE_STEREO             0x00018e9d   Thumb Code   164  dolbyprologiciix.o(.text)
    DSP_PLIIx_CNOTROL_REGISTER               0x00018f41   Thumb Code   134  dolbyprologiciix.o(.text)
    DSP_PLIIx_CENTER_WIDTH_CONFIGURATION     0x00018fc7   Thumb Code   174  dolbyprologiciix.o(.text)
    DSP_PLIIx_DIMENSION_CONFIGURATION        0x00019075   Thumb Code   170  dolbyprologiciix.o(.text)
    DSP_PLIIx_DECODE_MODE_MULTI              0x0001911f   Thumb Code   160  dolbyprologiciix.o(.text)
    DspReadDolbyPLIIX                        0x000191bf   Thumb Code    58  dolbyprologiciix.o(.text)
    DispBuffer                               0x000191fd   Thumb Code    40  dsp_task.o(.text)
    DisplayBuffer                            0x00019225   Thumb Code    50  dsp_task.o(.text)
    ClearDspBuffer                           0x00019257   Thumb Code    22  dsp_task.o(.text)
    AnalyseDspMsg                            0x0001926d   Thumb Code   282  dsp_task.o(.text)
    DspLoop                                  0x00019387   Thumb Code   226  dsp_task.o(.text)
    ReConvert_8_24_Value                     0x0001957d   Thumb Code    28  dspdrv.o(.text)
    ConvertBalanceValue                      0x00019599   Thumb Code    62  dspdrv.o(.text)
    ArrayToDWORD                             0x000195d7   Thumb Code   112  dspdrv.o(.text)
    ArrayToHWORD                             0x00019647   Thumb Code    56  dspdrv.o(.text)
    Set_Prologic2Width                       0x0001967f   Thumb Code    50  dspdrv.o(.text)
    Set_Prologic2Dimension                   0x000196b1   Thumb Code    50  dspdrv.o(.text)
    Set_Prologic2Panorama_On_Or_Off          0x000196e3   Thumb Code    66  dspdrv.o(.text)
    DspProcSpkMode                           0x00019725   Thumb Code    20  dspdrv.o(.text)
    DspProcDelay                             0x00019739   Thumb Code   312  dspdrv.o(.text)
    DspProcCorner                            0x00019871   Thumb Code    98  dspdrv.o(.text)
    DspProcSignal                            0x000198d3   Thumb Code    52  dspdrv.o(.text)
    DspProcIrc                               0x00019907   Thumb Code   206  dspdrv.o(.text)
    SetDh2On                                 0x000199d5   Thumb Code   182  dspdrv.o(.text)
    DspChannelOut5_1                         0x00019a8b   Thumb Code    28  dspdrv.o(.text)
    DspChannelOut7_1                         0x00019aa7   Thumb Code    28  dspdrv.o(.text)
    DspChannelOutSetting                     0x00019ac3   Thumb Code    36  dspdrv.o(.text)
    DspLoadDefaultSetting                    0x00019ae7   Thumb Code   192  dspdrv.o(.text)
    CheckDspMessage                          0x00019ba7   Thumb Code    84  dspdrv.o(.text)
    DspMasterBoot                            0x00019bfb   Thumb Code    70  dspdrv.o(.text)
    DspProcPower                             0x00019c41   Thumb Code   148  dspdrv.o(.text)
    DSPFirmwareWrite                         0x00019cd5   Thumb Code    96  dspdrv.o(.text)
    SetMixerAllStereo                        0x00019d35   Thumb Code   480  dspdrv.o(.text)
    SetMixerAllMono                          0x00019f15   Thumb Code   178  dspdrv.o(.text)
    DspSetCrossbarEffect                     0x00019fc7   Thumb Code    74  dspdrv.o(.text)
    GetNormalFreq                            0x0001a011   Thumb Code     6  dspdrv.o(.text)
    DspDecodePcm                             0x0001a017   Thumb Code   420  dspdrv.o(.text)
    DspDecodeAc3                             0x0001a1bb   Thumb Code  1046  dspdrv.o(.text)
    AC3_Cfg_Change_Deal                      0x0001a5d1   Thumb Code    76  dspdrv.o(.text)
    AnalyseAc3Cfg                            0x0001a61d   Thumb Code    80  dspdrv.o(.text)
    TureHD_Cfg_Change_Deal                   0x0001a66d   Thumb Code    68  dspdrv.o(.text)
    AnalyseTureHDCfg                         0x0001a6b1   Thumb Code    92  dspdrv.o(.text)
    DspDecodeDTS                             0x0001a70d   Thumb Code  1068  dspdrv.o(.text)
    DTS_Cfg_Change_Deal                      0x0001ab39   Thumb Code   162  dspdrv.o(.text)
    AnalyseDtsCfg                            0x0001abdb   Thumb Code   142  dspdrv.o(.text)
    DtsHD_Cfg_Change_Deal                    0x0001ac69   Thumb Code    68  dspdrv.o(.text)
    ReadDsp                                  0x0001acad   Thumb Code   124  dspdrv.o(.text)
    DspReadDTSHDChannel                      0x0001ad29   Thumb Code    60  dspdrv.o(.text)
    AnalyseDtsHDCfg                          0x0001ad65   Thumb Code   464  dspdrv.o(.text)
    AnalyseDtsHRACfg                         0x0001af35   Thumb Code   146  dspdrv.o(.text)
    DSP_DTS_HD_HRA_Read                      0x0001afc7   Thumb Code    58  dspdrv.o(.text)
    lpcm_20_config                           0x0001b001   Thumb Code    98  dspdrv.o(.text)
    ProcAutodetecResponse                    0x0001b063   Thumb Code  1702  dspdrv.o(.text)
    DspProcUnsolicitedMsg                    0x0001b709   Thumb Code    48  dspdrv.o(.text)
    SetLate                                  0x0001b739   Thumb Code   118  dspdrv.o(.text)
    CALC_EQ_FC                               0x0001b891   Thumb Code    30  eq_manager.o(.text)
    CALC_EQ_Q                                0x0001b8af   Thumb Code    30  eq_manager.o(.text)
    CALC_EQ_G                                0x0001b8cd   Thumb Code    68  eq_manager.o(.text)
    DSP_Eq_Control                           0x0001b911   Thumb Code   146  eq_manager.o(.text)
    DSP_Eq_Config                            0x0001b9a3   Thumb Code   136  eq_manager.o(.text)
    DSP_Eq_Channels                          0x0001ba2b   Thumb Code    94  eq_manager.o(.text)
    DSP_Eq_Bands                             0x0001ba89   Thumb Code    82  eq_manager.o(.text)
    DSP_Eq_Flash                             0x0001badb   Thumb Code   142  eq_manager.o(.text)
    DSP_EQ_CH_PREATTENUATION                 0x0001bb69   Thumb Code   222  eq_manager.o(.text)
    DSP_EQ_POSTGAIN                          0x0001bc47   Thumb Code   226  eq_manager.o(.text)
    DSP_EQ_CHANGER                           0x0001bd29   Thumb Code    82  eq_manager.o(.text)
    EqModuleconfig                           0x0001bd7b   Thumb Code   516  eq_manager.o(.text)
    DSP_Power_on_config                      0x0001bf7f   Thumb Code   572  eq_manager.o(.text)
    DSP_EQ_Firmware_Init                     0x0001c1bb   Thumb Code    62  eq_manager.o(.text)
    EqOn                                     0x0001c1f9   Thumb Code    56  eq_manager.o(.text)
    DspReadEq                                0x0001c231   Thumb Code   118  eq_manager.o(.text)
    Convert_8_24_Value                       0x0001c2c9   Thumb Code    28  irc1_manager.o(.text)
    InitMicParameter                         0x0001c2e5   Thumb Code    56  irc1_manager.o(.text)
    DSP_IRC_1_Control                        0x0001c31d   Thumb Code   130  irc1_manager.o(.text)
    DSP_Rx_Channel                           0x0001c39f   Thumb Code    82  irc1_manager.o(.text)
    DSP_Rx_Gain                              0x0001c3f1   Thumb Code    84  irc1_manager.o(.text)
    DSP_IRC1_Tx_Channel                      0x0001c445   Thumb Code    80  irc1_manager.o(.text)
    DSP_IRC1_Test_Duration                   0x0001c495   Thumb Code    82  irc1_manager.o(.text)
    DSP_IRC_1_Test_Signal                    0x0001c4e7   Thumb Code    82  irc1_manager.o(.text)
    DspReadIrc1                              0x0001c539   Thumb Code    58  irc1_manager.o(.text)
    GetSpkDistance                           0x0001c573   Thumb Code    18  irc1_manager.o(.text)
    IsIrc1ValidResult                        0x0001c585   Thumb Code    24  irc1_manager.o(.text)
    Dsp_IRC2_Control                         0x0001c5a9   Thumb Code    82  irc2_manager.o(.text)
    Dsp_IRC2_Speaker_Select                  0x0001c5fb   Thumb Code   124  irc2_manager.o(.text)
    Dsp_IRC2_Max_EQ_Fc                       0x0001c677   Thumb Code    82  irc2_manager.o(.text)
    DspReadIrc2                              0x0001c6c9   Thumb Code    58  irc2_manager.o(.text)
    IsIrc2ValidResult                        0x0001c703   Thumb Code    26  irc2_manager.o(.text)
    OS_OUTPUT_MODE_CONTROL                   0x0001c721   Thumb Code   166  os_manager.o(.text)
    OS_OUTPUT_MODE_CONTROL_FOR_DSPB          0x0001c7c7   Thumb Code   166  os_manager.o(.text)
    OS_OUTPUT_MODE_CONTROL_Debug             0x0001c86d   Thumb Code    82  os_manager.o(.text)
    OS_OUTPUT_MODE_CONTROL_FOR_DSPB_Debug    0x0001c8bf   Thumb Code    82  os_manager.o(.text)
    DspReadOS                                0x0001c911   Thumb Code    58  os_manager.o(.text)
    DSP_SGEN_ENABLE                          0x0001c951   Thumb Code    36  signalgenerator.o(.text)
    DSP_SGEN_CHANNEL_ENABLE                  0x0001c975   Thumb Code   194  signalgenerator.o(.text)
    DSP_CHANNEL_SIGNAL_SELECT                0x0001ca37   Thumb Code   222  signalgenerator.o(.text)
    DspReadSgen                              0x0001cb15   Thumb Code    58  signalgenerator.o(.text)
    DSP_TRUEHD_Control                       0x0001cb55   Thumb Code   128  dolbytruehd.o(.text)
    DSP_TRUEHD_Decode_Mode_Control           0x0001cbd5   Thumb Code   166  dolbytruehd.o(.text)
    DSP_TRUEHD_DRC_Control                   0x0001cc7b   Thumb Code    82  dolbytruehd.o(.text)
    DSP_TRUEHD_Cut_Scalefactor               0x0001cccd   Thumb Code    94  dolbytruehd.o(.text)
    DSP_TRUEHD_Boost_Scalefactor             0x0001cd2b   Thumb Code    94  dolbytruehd.o(.text)
    DSP_TRUEHD_DRC_INIT                      0x0001cd89   Thumb Code    24  dolbytruehd.o(.text)
    DspReadTRUEHD                            0x0001cda1   Thumb Code    58  dolbytruehd.o(.text)
    DSP_BOOT                                 0x0001cde1   Thumb Code   186  dsp_api.o(.text)
    DSP_CFG_OUTPUT_FS                        0x0001ce9b   Thumb Code   194  dsp_api.o(.text)
    DSP_CFG_AUDIO_SRC                        0x0001cf5d   Thumb Code   172  dsp_api.o(.text)
    DSP_CFG_DECODER                          0x0001d009   Thumb Code    78  dsp_api.o(.text)
    DSP_CFG_MATRIX                           0x0001d057   Thumb Code    78  dsp_api.o(.text)
    DSP_CFG_VIRTUALIZER                      0x0001d0a5   Thumb Code    78  dsp_api.o(.text)
    DSP_CFG_PPM                              0x0001d0f3   Thumb Code    82  dsp_api.o(.text)
    DSP_CFG_PPM_Mode                         0x0001d145   Thumb Code    78  dsp_api.o(.text)
    DSP_CFG_PPM_Mode_Pl2x                    0x0001d193   Thumb Code    82  dsp_api.o(.text)
    DSP_CFG_MCLK_FACTOR                      0x0001d1e5   Thumb Code   168  dsp_api.o(.text)
    Change_DSP_Decoder_Code                  0x0001d28d   Thumb Code   142  dsp_api.o(.text)
    Change_DSP_MATRIX_Code                   0x0001d31b   Thumb Code   304  dsp_api.o(.text)
    Change_DSP_VIRTUALIZER_Code              0x0001d44b   Thumb Code   134  dsp_api.o(.text)
    Change_DSP_PPM_Code                      0x0001d4d1   Thumb Code    62  dsp_api.o(.text)
    Change_Input_Audio_Source                0x0001d50f   Thumb Code   780  dsp_api.o(.text)
    DSP_Update_Flash                         0x0001d81b   Thumb Code    36  dsp_api.o(.text)
    DSP_API_Read                             0x0001d83f   Thumb Code    58  dsp_api.o(.text)
    _printf_pre_padding                      0x0001d881   Thumb Code    48  _printf_pad.o(.text)
    _printf_post_padding                     0x0001d8b1   Thumb Code    36  _printf_pad.o(.text)
    _printf_int_dec                          0x0001d8d5   Thumb Code    98  _printf_dec.o(.text)
    vsprintf                                 0x0001d949   Thumb Code    38  vsprintf.o(.text)
    __0sprintf                               0x0001d975   Thumb Code    40  __0sprintf.o(.text)
    Inline Thumb to ARM Veneer to __aeabi_memset 0x0001d9a1   Thumb Code     0  aeabi_memset.o(.text)
    __aeabi_memset                           0x0001d9a4   ARM Code      16  aeabi_memset.o(.text)
    Inline Thumb to ARM Veneer to __aeabi_memcpy 0x0001d9b5   Thumb Code     0  rt_memcpy.o(.text)
    __aeabi_memcpy                           0x0001d9b8   ARM Code       0  rt_memcpy.o(.text)
    __rt_memcpy                              0x0001d9b8   ARM Code     212  rt_memcpy.o(.text)
    _memcpy_lastbytes                        0x0001da6c   ARM Code       0  rt_memcpy.o(.text)
    Inline Thumb to ARM Veneer to __aeabi_memcpy4 0x0001da8d   Thumb Code     0  rt_memcpy_w.o(.text)
    __aeabi_memcpy4                          0x0001da90   ARM Code       0  rt_memcpy_w.o(.text)
    __aeabi_memcpy8                          0x0001da90   ARM Code       0  rt_memcpy_w.o(.text)
    __rt_memcpy_w                            0x0001da90   ARM Code     100  rt_memcpy_w.o(.text)
    _memcpy_lastbytes_aligned                0x0001dadc   ARM Code       0  rt_memcpy_w.o(.text)
    Inline Thumb to ARM Veneer to strncpy    0x0001daf5   Thumb Code     0  strncpy.o(.text)
    strncpy                                  0x0001daf8   ARM Code     108  strncpy.o(.text)
    strlen                                   0x0001db69   Thumb Code    68  strlen.o(.text)
    Inline Thumb to ARM Veneer to __aeabi_idivmod 0x0001dbb1   Thumb Code     0  aeabi_sdiv.o(.text)
    __aeabi_idiv                             0x0001dbb4   ARM Code       0  aeabi_sdiv.o(.text)
    __aeabi_idivmod                          0x0001dbb4   ARM Code     364  aeabi_sdiv.o(.text)
    __use_two_region_memory                  0x0001dd20   ARM Code       4  stkheap2.o(.text)
    __rt_stackheap_init                      0x0001dd24   ARM Code      60  stkheap2.o(.text)
    __rt_heap_extend                         0x0001dd60   ARM Code      24  stkheap2.o(.text)
    Inline Thumb to ARM Veneer to __ARM_switch8 0x0001dd79   Thumb Code     0  switch8.o(.text)
    __ARM_switch8                            0x0001dd7c   ARM Code      24  switch8.o(.text)
    __rt_switch8                             0x0001dd7c   ARM Code       0  switch8.o(.text)
    __ARM_call_via_r0                        0x0001dd95   Thumb Code     2  callvia.o(.text)
    __call_via_r0                            0x0001dd95   Thumb Code     0  callvia.o(.text)
    __ARM_call_via_r1                        0x0001dd97   Thumb Code     2  callvia.o(.text)
    __call_via_r1                            0x0001dd97   Thumb Code     0  callvia.o(.text)
    __ARM_call_via_r2                        0x0001dd99   Thumb Code     2  callvia.o(.text)
    __call_via_r2                            0x0001dd99   Thumb Code     0  callvia.o(.text)
    __ARM_call_via_r3                        0x0001dd9b   Thumb Code     2  callvia.o(.text)
    __call_via_r3                            0x0001dd9b   Thumb Code     0  callvia.o(.text)
    __ARM_call_via_r4                        0x0001dd9d   Thumb Code     2  callvia.o(.text)
    __call_via_r4                            0x0001dd9d   Thumb Code     0  callvia.o(.text)
    __ARM_call_via_r5                        0x0001dd9f   Thumb Code     2  callvia.o(.text)
    __call_via_r5                            0x0001dd9f   Thumb Code     0  callvia.o(.text)
    __ARM_call_via_r6                        0x0001dda1   Thumb Code     2  callvia.o(.text)
    __call_via_r6                            0x0001dda1   Thumb Code     0  callvia.o(.text)
    __ARM_call_via_r7                        0x0001dda3   Thumb Code     2  callvia.o(.text)
    __call_via_r7                            0x0001dda3   Thumb Code     0  callvia.o(.text)
    Inline Thumb to ARM Veneer to pow        0x0001dda5   Thumb Code     0  pow.o(.text)
    pow                                      0x0001dda8   ARM Code    3604  pow.o(.text)
    __softfp_pow                             0x0001ebbc   ARM Code       4  pow.o(.text)
    __rt_entry                               0x0001ebcc   ARM Code      76  kernel.o(.text)
    __rt_exit                                0x0001ec18   ARM Code      20  kernel.o(.text)
    __rt_abort                               0x0001ec2c   ARM Code       8  kernel.o(.text)
    __user_setup_stackheap                   0x0001ec34   ARM Code      96  sys_stackheap_outer.o(.text)
    __aeabi_idiv0                            0x0001ec94   ARM Code       4  aeabi_idiv0.o(.text)
    __rt_stackheap_storage                   0x0001ec98   ARM Code      12  rt_stackheap_storage_intlibspace.o(.text)
    Inline ARM to Thumb Veneer to __set_errno 0x0001eca8   ARM Code       0  _rserrno.o(.text)
    __read_errno                             0x0001ecb1   Thumb Code    18  _rserrno.o(.text)
    __set_errno                              0x0001ecc3   Thumb Code    16  _rserrno.o(.text)
    _printf_truncate_signed                  0x0001ecd3   Thumb Code    22  _printf_truncate.o(.text)
    _printf_truncate_unsigned                0x0001ece9   Thumb Code    22  _printf_truncate.o(.text)
    _printf_str                              0x0001ecff   Thumb Code    94  _printf_str.o(.text)
    _printf_wctomb                           0x0001ed5d   Thumb Code   190  _printf_wctomb.o(.text)
    _printf_int_common                       0x0001ee21   Thumb Code   168  _printf_intcommon.o(.text)
    _printf_longlong_hex                     0x0001eec9   Thumb Code   182  _printf_longlong_hex.o(.text)
    _printf_longlong_oct                     0x0001ef95   Thumb Code   138  _printf_longlong_oct.o(.text)
    _printf_longlong_dec                     0x0001f029   Thumb Code   124  _printf_longlong_dec.o(.text)
    _printf_charcount                        0x0001f0b5   Thumb Code    36  _printf_charcount.o(.text)
    __lib_sel_fp_printf                      0x0001f0d9   Thumb Code     2  _printf_fp_dec.o(.text)
    _fp_display                              0x0001f30f   Thumb Code   806  _printf_fp_dec.o(.text)
    _printf_fp_dec_real                      0x0001f635   Thumb Code   234  _printf_fp_dec.o(.text)
    _printf_char_common                      0x0001f721   Thumb Code    44  _printf_char_common.o(.text)
    _sputc                                   0x0001f755   Thumb Code    10  _sputc.o(.text)
    __aeabi_memclr                           0x0001f760   ARM Code       0  rt_memclr.o(.text)
    __rt_memclr                              0x0001f760   ARM Code      64  rt_memclr.o(.text)
    _memset                                  0x0001f764   ARM Code       0  rt_memclr.o(.text)
    Inline Thumb to ARM Veneer to __rt_udiv10 0x0001f7a1   Thumb Code     0  rtudiv10.o(.text)
    __rt_udiv10                              0x0001f7a4   ARM Code      44  rtudiv10.o(.text)
    __kernel_poly                            0x0001f7d0   ARM Code     248  poly.o(.text)
    sqrt                                     0x0001f8c8   ARM Code     100  sqrt.o(.text)
    __softfp_sqrt                            0x0001f92c   ARM Code       4  sqrt.o(.text)
    _sys_exit                                0x0001f944   ARM Code      20  sys_exit.o(.text)
    __user_libspace                          0x0001f95c   ARM Code       8  libspace.o(.text)
    __user_perproc_libspace                  0x0001f95c   ARM Code       0  libspace.o(.text)
    __user_perthread_libspace                0x0001f95c   ARM Code       0  libspace.o(.text)
    Inline Thumb to ARM Veneer to __aeabi_errno_addr 0x0001f969   Thumb Code     0  rt_errno_addr_intlibspace.o(.text)
    __aeabi_errno_addr                       0x0001f96c   ARM Code      12  rt_errno_addr_intlibspace.o(.text)
    __rt_errno_addr_intlibspace              0x0001f96c   ARM Code       0  rt_errno_addr_intlibspace.o(.text)
    Inline Thumb to ARM Veneer to __rt_locale 0x0001f97d   Thumb Code     0  rt_locale_intlibspace.o(.text)
    __rt_locale                              0x0001f980   ARM Code      12  rt_locale_intlibspace.o(.text)
    Inline Thumb to ARM Veneer to _ll_udiv10 0x0001f991   Thumb Code     0  lludiv10.o(.text)
    _ll_udiv10                               0x0001f994   ARM Code     160  lludiv10.o(.text)
    _btod_etento                             0x0001fa35   Thumb Code   202  bigflt0.o(.text)
    __printf                                 0x0001fb05   Thumb Code   740  __printf.o(.text)
    _printf_outstr_char                      0x0001fded   Thumb Code    32  _printf_outstr_char.o(.text)
    _printf_input_char                       0x0001fe0d   Thumb Code    10  _printf_input_char.o(.text)
    _wcrtomb                                 0x0001fe17   Thumb Code    78  _wcrtomb.o(.text)
    _get_lc_numeric                          0x0001fe65   Thumb Code    40  lc_numeric_c.o(.text)
    exit                                     0x0001fe95   Thumb Code    24  exit.o(.text)
    __aeabi_memclr4                          0x0001feac   ARM Code       0  rt_memclr_w.o(.text)
    __aeabi_memclr8                          0x0001feac   ARM Code       0  rt_memclr_w.o(.text)
    __rt_memclr_w                            0x0001feac   ARM Code      84  rt_memclr_w.o(.text)
    _memset_w                                0x0001feb0   ARM Code       0  rt_memclr_w.o(.text)
    Inline ARM to Thumb Veneer to __rt_lib_init 0x0001ff00   ARM Code       0  lib_init.o(.text)
    __rt_lib_init                            0x0001ff09   Thumb Code   188  lib_init.o(.text)
    __rt_lib_shutdown                        0x0001ffc5   Thumb Code    26  lib_init.o(.text)
    _platform_post_stackheap_init            0x0001ffe0   ARM Code      12  boardinit2.o(.text)
    _platform_post_lib_init                  0x0001ffec   ARM Code      16  boardinit3.o(.text)
    Inline Thumb to ARM Veneer to __mathlib_classify 0x0001fffd   Thumb Code     0  classify.o(.text)
    __mathlib_classify                       0x00020000   ARM Code      56  classify.o(.text)
    Inline Thumb to ARM Veneer to __support_dtoi 0x00020039   Thumb Code     0  dtoi.o(.text)
    __support_dtoi                           0x0002003c   ARM Code      96  dtoi.o(.text)
    __I_use_semihosting                      0x0002009c   ARM Code       0  use_no_semi.o(.text)
    __use_no_semihosting_swi                 0x0002009c   ARM Code       4  use_no_semi.o(.text)
    Inline Thumb to ARM Veneer to __rt_ctype_table 0x000200a1   Thumb Code     0  rt_ctype_table.o(.text)
    __rt_ctype_table                         0x000200a4   ARM Code      24  rt_ctype_table.o(.text)
    Inline Thumb to ARM Veneer to strcmp     0x000200bd   Thumb Code     0  strcmp.o(.text)
    strcmp                                   0x000200c0   ARM Code     156  strcmp.o(.text)
    __ARM_get_argv                           0x00020161   Thumb Code     6  no_argv.o(.text)
    __ARM_fpclassify                         0x00020168   ARM Code      44  fpclassify.o(.text)
    __rt_fp_status_addr                      0x00020198   ARM Code      12  rt_fp_status_addr_intlibspace.o(.text)
    _get_lc_ctype                            0x000201a9   Thumb Code    40  lc_ctype_c.o(.text)
    Inline Thumb to ARM Veneer to __aeabi_uidivmod 0x000201d9   Thumb Code     0  aeabi_sdiv.o(.text_udiv)
    __aeabi_uidiv                            0x000201dc   ARM Code       0  aeabi_sdiv.o(.text_udiv)
    __aeabi_uidivmod                         0x000201dc   ARM Code      28  aeabi_sdiv.o(.text_udiv)
    Inline Thumb to ARM Veneer to _btod_d2e  0x000201f9   Thumb Code     0  btod.o(CL$$btod_d2e)
    _btod_d2e                                0x000201fc   ARM Code      56  btod.o(CL$$btod_d2e)
    _d2e_denorm_low                          0x00020234   ARM Code      84  btod.o(CL$$btod_d2e_denorm_low)
    _d2e_norm_op1                            0x00020288   ARM Code     104  btod.o(CL$$btod_d2e_norm_op1)
    __btod_div_common                        0x000202f0   ARM Code     716  btod.o(CL$$btod_div_common)
    _e2e                                     0x0002063c   ARM Code     220  btod.o(CL$$btod_e2e)
    Inline Thumb to ARM Veneer to _btod_ediv 0x00020719   Thumb Code     0  btod.o(CL$$btod_ediv)
    _btod_ediv                               0x0002071c   ARM Code      52  btod.o(CL$$btod_ediv)
    Inline Thumb to ARM Veneer to _btod_emul 0x00020751   Thumb Code     0  btod.o(CL$$btod_emul)
    _btod_emul                               0x00020754   ARM Code      52  btod.o(CL$$btod_emul)
    __btod_mult_common                       0x00020788   ARM Code     616  btod.o(CL$$btod_mult_common)
    Long ARM to Thumb Veneer to ir2_core_philips 0x000209f0   ARM Code       0  anon$$obj.o(Veneer$$Code)
    Long ARM to Thumb Veneer to RefreshHandle 0x000209fc   ARM Code       0  anon$$obj.o(Veneer$$Code)
    Long ARM to Thumb Veneer to MsgSetVfdShow 0x00020a08   ARM Code       0  anon$$obj.o(Veneer$$Code)
    Long ARM to Thumb Veneer to MsgSetDSPHDMISetting 0x00020a14   ARM Code       0  anon$$obj.o(Veneer$$Code)
    Long ARM to Thumb Veneer to __rt_lib_shutdown 0x00020a20   ARM Code       0  anon$$obj.o(Veneer$$Code)
    Short Thumb to ARM Veneer to __rt_exit   0x00020a2d   Thumb Code     0  anon$$obj.o(Veneer$$Code)
    Long ARM to Thumb Veneer to _printf_fp_dec_real 0x00020a34   ARM Code       0  anon$$obj.o(Veneer$$Code)
    copysign                                 0x00020a40   ARM Code      16  pow.o(i.copysign)
    Inline Thumb to ARM Veneer to __aeabi_d2f 0x00020a51   Thumb Code     0  d2f.o(x$fpl$d2f)
    __aeabi_d2f                              0x00020a54   ARM Code       0  d2f.o(x$fpl$d2f)
    _d2f                                     0x00020a54   ARM Code     168  d2f.o(x$fpl$d2f)
    __fpl_inf_d2f                            0x00020af4   ARM Code       0  d2f.o(x$fpl$d2f)
    __aeabi_dadd                             0x00020b00   ARM Code       0  daddsub_noclz.o(x$fpl$dadd)
    _dadd                                    0x00020b00   ARM Code     452  daddsub_noclz.o(x$fpl$dadd)
    __fpl_inf_dadd                           0x00020c7c   ARM Code       0  daddsub_noclz.o(x$fpl$dadd)
    __fpl_dcheck_NaN2                        0x00020cd4   ARM Code      12  dcheck.o(x$fpl$dcheck)
    __fpl_dcheck_NaN1                        0x00020ce4   ARM Code      12  dcheck1.o(x$fpl$dcheck1)
    __fpl_dcmp_InfNaN                        0x00020cf4   ARM Code     128  dcmpin.o(x$fpl$dcmpinfnan)
    __fpl_inf_dcmp                           0x00020d18   ARM Code       0  dcmpin.o(x$fpl$dcmpinfnan)
    __fpl_fcmp_InfNaN                        0x00020d74   ARM Code     100  fcmpin.o(x$fpl$dcmpinfnan)
    __fpl_inf_fcmp                           0x00020d88   ARM Code       0  fcmpin.o(x$fpl$dcmpinfnan)
    Inline Thumb to ARM Veneer to __aeabi_ddiv 0x00020dd9   Thumb Code     0  ddiv.o(x$fpl$ddiv)
    __aeabi_ddiv                             0x00020ddc   ARM Code       0  ddiv.o(x$fpl$ddiv)
    _ddiv                                    0x00020ddc   ARM Code     464  ddiv.o(x$fpl$ddiv)
    __fpl_inf_ddiv                           0x00020f68   ARM Code       0  ddiv.o(x$fpl$ddiv)
    _ddiv_mantissas                          0x00020fac   ARM Code     608  ddiv.o(x$fpl$ddiv)
    __aeabi_i2d                              0x0002129c   ARM Code       0  dflt_noclz.o(x$fpl$dflt)
    _dflt                                    0x0002129c   ARM Code      88  dflt_noclz.o(x$fpl$dflt)
    __dflt_normalise                         0x000212ac   ARM Code       0  dflt_noclz.o(x$fpl$dflt)
    Inline Thumb to ARM Veneer to __aeabi_ui2d 0x000212f5   Thumb Code     0  dflt_noclz.o(x$fpl$dfltu)
    __aeabi_ui2d                             0x000212f8   ARM Code       0  dflt_noclz.o(x$fpl$dfltu)
    _dfltu                                   0x000212f8   ARM Code      12  dflt_noclz.o(x$fpl$dfltu)
    Inline Thumb to ARM Veneer to __aeabi_cdcmple 0x00021305   Thumb Code     0  dleqf.o(x$fpl$dleqf)
    __aeabi_cdcmple                          0x00021308   ARM Code       0  dleqf.o(x$fpl$dleqf)
    _dcmple                                  0x00021308   ARM Code     132  dleqf.o(x$fpl$dleqf)
    Inline Thumb to ARM Veneer to __aeabi_dmul 0x00021391   Thumb Code     0  dmul.o(x$fpl$dmul)
    __aeabi_dmul                             0x00021394   ARM Code       0  dmul.o(x$fpl$dmul)
    _dmul                                    0x00021394   ARM Code     460  dmul.o(x$fpl$dmul)
    __fpl_inf_dmul                           0x0002152c   ARM Code       0  dmul.o(x$fpl$dmul)
    Inline Thumb to ARM Veneer to __aeabi_cdrcmple 0x00021571   Thumb Code     0  drleqf.o(x$fpl$drleqf)
    __aeabi_cdrcmple                         0x00021574   ARM Code       0  drleqf.o(x$fpl$drleqf)
    _drcmple                                 0x00021574   ARM Code     156  drleqf.o(x$fpl$drleqf)
    __aeabi_drsub                            0x00021614   ARM Code       0  daddsub_noclz.o(x$fpl$drsb)
    _drsb                                    0x00021614   ARM Code      24  daddsub_noclz.o(x$fpl$drsb)
    _dsqrt                                   0x0002162c   ARM Code     384  dsqrt.o(x$fpl$dsqrt)
    __fpl_inf_dsqrt                          0x00021790   ARM Code       0  dsqrt.o(x$fpl$dsqrt)
    Inline Thumb to ARM Veneer to __aeabi_dsub 0x000217b5   Thumb Code     0  daddsub_noclz.o(x$fpl$dsub)
    __aeabi_dsub                             0x000217b8   ARM Code       0  daddsub_noclz.o(x$fpl$dsub)
    _dsub                                    0x000217b8   ARM Code     572  daddsub_noclz.o(x$fpl$dsub)
    __fpl_inf_dsub                           0x000219ac   ARM Code       0  daddsub_noclz.o(x$fpl$dsub)
    __dunder                                 0x00021a00   ARM Code     272  dunder.o(x$fpl$dunder)
    __dunder_d                               0x00021b10   ARM Code       4  dunder.o(x$fpl$dunder)
    Inline Thumb to ARM Veneer to __aeabi_f2d 0x00021b15   Thumb Code     0  f2d.o(x$fpl$f2d)
    __aeabi_f2d                              0x00021b18   ARM Code       0  f2d.o(x$fpl$f2d)
    _f2d                                     0x00021b18   ARM Code      96  f2d.o(x$fpl$f2d)
    __fpl_inf_f2d                            0x00021b6c   ARM Code       0  f2d.o(x$fpl$f2d)
    Inline Thumb to ARM Veneer to __aeabi_fadd 0x00021b7d   Thumb Code     0  faddsub_noclz.o(x$fpl$fadd)
    __aeabi_fadd                             0x00021b80   ARM Code       0  faddsub_noclz.o(x$fpl$fadd)
    _fadd                                    0x00021b80   ARM Code     260  faddsub_noclz.o(x$fpl$fadd)
    __fpl_inf_fadd                           0x00021c5c   ARM Code       0  faddsub_noclz.o(x$fpl$fadd)
    __fpl_fcheck_NaN2                        0x00021c88   ARM Code       8  fcheck.o(x$fpl$fcheck)
    __fpl_fcheck_NaN1                        0x00021c94   ARM Code       8  fcheck1.o(x$fpl$fcheck1)
    Inline Thumb to ARM Veneer to __aeabi_fdiv 0x00021ca1   Thumb Code     0  fdiv.o(x$fpl$fdiv)
    __aeabi_fdiv                             0x00021ca4   ARM Code       0  fdiv.o(x$fpl$fdiv)
    _fdiv                                    0x00021ca4   ARM Code     476  fdiv.o(x$fpl$fdiv)
    __fpl_inf_fdiv                           0x00021e40   ARM Code       0  fdiv.o(x$fpl$fdiv)
    Inline Thumb to ARM Veneer to __aeabi_cfcmpeq 0x00021e89   Thumb Code     0  feqf.o(x$fpl$feqf)
    __aeabi_cfcmpeq                          0x00021e8c   ARM Code       0  feqf.o(x$fpl$feqf)
    _fcmpeq                                  0x00021e8c   ARM Code     116  feqf.o(x$fpl$feqf)
    Inline Thumb to ARM Veneer to __aeabi_f2iz 0x00021f05   Thumb Code     0  ffix.o(x$fpl$ffix)
    __aeabi_f2iz                             0x00021f08   ARM Code       0  ffix.o(x$fpl$ffix)
    _ffix                                    0x00021f08   ARM Code     112  ffix.o(x$fpl$ffix)
    __fpl_inf_ffix                           0x00021f6c   ARM Code       0  ffix.o(x$fpl$ffix)
    Inline Thumb to ARM Veneer to __aeabi_f2uiz 0x00021f7d   Thumb Code     0  ffixu.o(x$fpl$ffixu)
    __aeabi_f2uiz                            0x00021f80   ARM Code       0  ffixu.o(x$fpl$ffixu)
    _ffixu                                   0x00021f80   ARM Code      92  ffixu.o(x$fpl$ffixu)
    __fpl_inf_ffixu                          0x00021fd4   ARM Code       0  ffixu.o(x$fpl$ffixu)
    Inline Thumb to ARM Veneer to __aeabi_i2f 0x00021fe1   Thumb Code     0  fflt_noclz.o(x$fpl$fflt)
    __aeabi_i2f                              0x00021fe4   ARM Code       0  fflt_noclz.o(x$fpl$fflt)
    _fflt                                    0x00021fe4   ARM Code      92  fflt_noclz.o(x$fpl$fflt)
    __fflt_normalise                         0x00021ff0   ARM Code       0  fflt_noclz.o(x$fpl$fflt)
    Inline Thumb to ARM Veneer to __aeabi_ui2f 0x00022041   Thumb Code     0  fflt_noclz.o(x$fpl$ffltu)
    __aeabi_ui2f                             0x00022044   ARM Code       0  fflt_noclz.o(x$fpl$ffltu)
    _ffltu                                   0x00022044   ARM Code       8  fflt_noclz.o(x$fpl$ffltu)
    Inline Thumb to ARM Veneer to __aeabi_cfcmple 0x0002204d   Thumb Code     0  fleqf.o(x$fpl$fleqf)
    __aeabi_cfcmple                          0x00022050   ARM Code       0  fleqf.o(x$fpl$fleqf)
    _fcmple                                  0x00022050   ARM Code     116  fleqf.o(x$fpl$fleqf)
    Inline Thumb to ARM Veneer to __aeabi_fmul 0x000220c9   Thumb Code     0  fmul.o(x$fpl$fmul)
    __aeabi_fmul                             0x000220cc   ARM Code       0  fmul.o(x$fpl$fmul)
    _fmul                                    0x000220cc   ARM Code     260  fmul.o(x$fpl$fmul)
    __fpl_inf_fmul                           0x000221b4   ARM Code       0  fmul.o(x$fpl$fmul)
    __fpl_normalise2                         0x000221d4   ARM Code     148  fnorm2_noclz.o(x$fpl$fnorm2)
    Inline Thumb to ARM Veneer to _fp_init   0x00022269   Thumb Code     0  fpinit.o(x$fpl$fpinit)
    _fp_init                                 0x0002226c   ARM Code      24  fpinit.o(x$fpl$fpinit)
    __fplib_config_pureend_doubles           0x0002227c   ARM Code       0  fpinit.o(x$fpl$fpinit)
    Inline Thumb to ARM Veneer to __aeabi_cfrcmple 0x00022285   Thumb Code     0  frleqf.o(x$fpl$frleqf)
    __aeabi_cfrcmple                         0x00022288   ARM Code       0  frleqf.o(x$fpl$frleqf)
    _frcmple                                 0x00022288   ARM Code     128  frleqf.o(x$fpl$frleqf)
    Inline Thumb to ARM Veneer to __aeabi_fsub 0x0002230d   Thumb Code     0  faddsub_noclz.o(x$fpl$fsub)
    __aeabi_fsub                             0x00022310   ARM Code       0  faddsub_noclz.o(x$fpl$fsub)
    _fsub                                    0x00022310   ARM Code     356  faddsub_noclz.o(x$fpl$fsub)
    __fpl_inf_fsub                           0x0002244c   ARM Code       0  faddsub_noclz.o(x$fpl$fsub)
    __funder                                 0x00022478   ARM Code     140  funder.o(x$fpl$funder)
    __funder_d                               0x00022504   ARM Code       4  funder.o(x$fpl$funder)
    Inline Thumb to ARM Veneer to __ieee_status 0x00022509   Thumb Code     0  istatus.o(x$fpl$ieeestatus)
    __ieee_status                            0x0002250c   ARM Code       8  istatus.o(x$fpl$ieeestatus)
    Inline Thumb to ARM Veneer to _printf_fp_dec 0x00022515   Thumb Code     0  printf1.o(x$fpl$printf1)
    _printf_fp_dec                           0x00022518   ARM Code       4  printf1.o(x$fpl$printf1)
    Inline Thumb to ARM Veneer to _printf_fp_hex 0x0002251d   Thumb Code     0  printf2.o(x$fpl$printf2)
    _printf_fp_hex                           0x00022520   ARM Code       4  printf2.o(x$fpl$printf2)
    __fpl_return_NaN                         0x00022524   ARM Code     116  retnan.o(x$fpl$retnan)
    __ARM_scalbn                             0x00022598   ARM Code       0  scalbn_noclz.o(x$fpl$scalbn)
    scalbln                                  0x00022598   ARM Code       0  scalbn_noclz.o(x$fpl$scalbn)
    scalblnl                                 0x00022598   ARM Code       0  scalbn_noclz.o(x$fpl$scalbn)
    scalbn                                   0x00022598   ARM Code     108  scalbn_noclz.o(x$fpl$scalbn)
    scalbnl                                  0x00022598   ARM Code       0  scalbn_noclz.o(x$fpl$scalbn)
    __fpl_inf_scalbn                         0x00022600   ARM Code       0  scalbn_noclz.o(x$fpl$scalbn)
    __fpl_cmpreturn                          0x00022604   ARM Code      60  trapv.o(x$fpl$trapveneer)
    __I_use_fp                               0x00022640   Number         0  usenofp.o(x$fpl$usenofp)
    zone1_remote_key_table                   0x00022640   Data          64  key_tab.o(.constdata)
    zone2_remote_key_table                   0x00022680   Data          64  key_tab.o(.constdata)
    panel_key_table                          0x000226c0   Data         256  key_task.o(.constdata)
    volume_table                             0x000227c0   Data         212  menu_tbl.o(.constdata)
    balance_table                            0x00022894   Data         244  menu_tbl.o(.constdata)
    AnalogInLevelTable                       0x00022988   Data          62  menu_tbl.o(.constdata)
    MenuPageList                             0x000229c8   Data         324  menu_tbl.o(.constdata)
    cmd_SPU                                  0x00022b0c   Data           8  rs232_protocol.o(.constdata)
    cmd_RSN                                  0x00022b14   Data           8  rs232_protocol.o(.constdata)
    cmd_TAT                                  0x00022b1c   Data           8  rs232_protocol.o(.constdata)
    cmd_TAHDT                                0x00022b24   Data           8  rs232_protocol.o(.constdata)
    cmd_TFT                                  0x00022b2c   Data           8  rs232_protocol.o(.constdata)
    cmd_TFHDT                                0x00022b34   Data           8  rs232_protocol.o(.constdata)
    cmd_TAP                                  0x00022b3c   Data           8  rs232_protocol.o(.constdata)
    cmd_TAHDP                                0x00022b44   Data           8  rs232_protocol.o(.constdata)
    cmd_TFP                                  0x00022b4c   Data           8  rs232_protocol.o(.constdata)
    cmd_TFHDP                                0x00022b54   Data           8  rs232_protocol.o(.constdata)
    cmd_T                                    0x00022b5c   Data           8  rs232_protocol.o(.constdata)
    cmd_TAS                                  0x00022b64   Data           8  rs232_protocol.o(.constdata)
    cmd_TAHDS                                0x00022b6c   Data           8  rs232_protocol.o(.constdata)
    cmd_TAF                                  0x00022b74   Data           8  rs232_protocol.o(.constdata)
    cmd_TAHDF                                0x00022b7c   Data           8  rs232_protocol.o(.constdata)
    cmd_TT_                                  0x00022b84   Data           8  rs232_protocol.o(.constdata)
    cmd_Z1LPS                                0x00022b8c   Data           8  rs232_protocol.o(.constdata)
    cmd_Z1S                                  0x00022b94   Data           8  rs232_protocol.o(.constdata)
    cmd_Z1P                                  0x00022b9c   Data           8  rs232_protocol.o(.constdata)
    cmd_Z1M                                  0x00022ba4   Data           8  rs232_protocol.o(.constdata)
    cmd_Z1E                                  0x00022bac   Data           8  rs232_protocol.o(.constdata)
    cmd_Z1EX                                 0x00022bb4   Data           8  rs232_protocol.o(.constdata)
    cmd_Z1EF                                 0x00022bbc   Data           8  rs232_protocol.o(.constdata)
    cmd_Z1EE                                 0x00022bc4   Data           8  rs232_protocol.o(.constdata)
    cmd_Z1ES                                 0x00022bcc   Data           8  rs232_protocol.o(.constdata)
    cmd_Z1EU                                 0x00022bd4   Data           8  rs232_protocol.o(.constdata)
    cmd_Z1ED                                 0x00022bdc   Data           8  rs232_protocol.o(.constdata)
    cmd_Z1D                                  0x00022be4   Data           8  rs232_protocol.o(.constdata)
    cmd_Z1C                                  0x00022bec   Data           8  rs232_protocol.o(.constdata)
    cmd_Z1A_                                 0x00022bf4   Data           8  rs232_protocol.o(.constdata)
    cmd_Z1_                                  0x00022bfc   Data           8  rs232_protocol.o(.constdata)
    cmd_Z1VM                                 0x00022c04   Data           8  rs232_protocol.o(.constdata)
    cmd_Z1DF_                                0x00022c0c   Data           8  rs232_protocol.o(.constdata)
    cmd_Z1EQL                                0x00022c14   Data           8  rs232_protocol.o(.constdata)
    cmd_Z1EQC                                0x00022c1c   Data           8  rs232_protocol.o(.constdata)
    cmd_Z1EQR                                0x00022c24   Data           8  rs232_protocol.o(.constdata)
    cmd_Z1EQSR                               0x00022c2c   Data           8  rs232_protocol.o(.constdata)
    cmd_Z1EQBSR                              0x00022c34   Data           8  rs232_protocol.o(.constdata)
    cmd_Z1EQBSL                              0x00022c3c   Data           8  rs232_protocol.o(.constdata)
    cmd_Z1EQSL                               0x00022c44   Data           8  rs232_protocol.o(.constdata)
    cmd_Z1EQSW                               0x00022c4c   Data           8  rs232_protocol.o(.constdata)
    cmd_Z1EQ                                 0x00022c54   Data           8  rs232_protocol.o(.constdata)
    cmd_Z2P                                  0x00022c5c   Data           8  rs232_protocol.o(.constdata)
    cmd_Z2S                                  0x00022c64   Data           8  rs232_protocol.o(.constdata)
    cmd_Z2V                                  0x00022c6c   Data           8  rs232_protocol.o(.constdata)
    cmd_Z2M                                  0x00022c74   Data           8  rs232_protocol.o(.constdata)
    cmd_Z2_                                  0x00022c7c   Data           8  rs232_protocol.o(.constdata)
    cmd_Z2VFD_                               0x00022c84   Data           8  rs232_protocol.o(.constdata)
    cmd_SLL                                  0x00022c8c   Data           8  rs232_protocol.o(.constdata)
    cmd_SLC                                  0x00022c94   Data           8  rs232_protocol.o(.constdata)
    cmd_SLR                                  0x00022c9c   Data           8  rs232_protocol.o(.constdata)
    cmd_SLSR                                 0x00022ca4   Data           8  rs232_protocol.o(.constdata)
    cmd_SLSL                                 0x00022cac   Data           8  rs232_protocol.o(.constdata)
    cmd_SLBR                                 0x00022cb4   Data           8  rs232_protocol.o(.constdata)
    cmd_SLBL                                 0x00022cbc   Data           8  rs232_protocol.o(.constdata)
    cmd_SLSW                                 0x00022cc4   Data           8  rs232_protocol.o(.constdata)
    cmd_SPL                                  0x00022ccc   Data           8  rs232_protocol.o(.constdata)
    cmd_SPC                                  0x00022cd4   Data           8  rs232_protocol.o(.constdata)
    cmd_SPR                                  0x00022cdc   Data           8  rs232_protocol.o(.constdata)
    cmd_SPSR                                 0x00022ce4   Data           8  rs232_protocol.o(.constdata)
    cmd_SPSL                                 0x00022cec   Data           8  rs232_protocol.o(.constdata)
    cmd_SPBR                                 0x00022cf4   Data           8  rs232_protocol.o(.constdata)
    cmd_SPBL                                 0x00022cfc   Data           8  rs232_protocol.o(.constdata)
    cmd_SPs                                  0x00022d04   Data           8  rs232_protocol.o(.constdata)
    cmd_SZL                                  0x00022d0c   Data           8  rs232_protocol.o(.constdata)
    cmd_SZR                                  0x00022d14   Data           8  rs232_protocol.o(.constdata)
    cmd_SZSL                                 0x00022d1c   Data           8  rs232_protocol.o(.constdata)
    cmd_SZSR                                 0x00022d24   Data           8  rs232_protocol.o(.constdata)
    cmd_SZSBL                                0x00022d2c   Data           8  rs232_protocol.o(.constdata)
    cmd_SZSBR                                0x00022d34   Data           8  rs232_protocol.o(.constdata)
    cmd_SZC                                  0x00022d3c   Data           8  rs232_protocol.o(.constdata)
    cmd_SZS                                  0x00022d44   Data           8  rs232_protocol.o(.constdata)
    cmd_SZXFL                                0x00022d4c   Data           8  rs232_protocol.o(.constdata)
    cmd_SZXFC                                0x00022d54   Data           8  rs232_protocol.o(.constdata)
    cmd_SZXFR                                0x00022d5c   Data           8  rs232_protocol.o(.constdata)
    cmd_SZXSR                                0x00022d64   Data           8  rs232_protocol.o(.constdata)
    cmd_SZXSL                                0x00022d6c   Data           8  rs232_protocol.o(.constdata)
    cmd_SZXSBR                               0x00022d74   Data           8  rs232_protocol.o(.constdata)
    cmd_SZXSBL                               0x00022d7c   Data           8  rs232_protocol.o(.constdata)
    cmd_SZX                                  0x00022d84   Data           8  rs232_protocol.o(.constdata)
    cmd_SSPL                                 0x00022d8c   Data           8  rs232_protocol.o(.constdata)
    cmd_SSPC                                 0x00022d94   Data           8  rs232_protocol.o(.constdata)
    cmd_SSPR                                 0x00022d9c   Data           8  rs232_protocol.o(.constdata)
    cmd_SSPSR                                0x00022da4   Data           8  rs232_protocol.o(.constdata)
    cmd_SSPSL                                0x00022dac   Data           8  rs232_protocol.o(.constdata)
    cmd_SSPSBR                               0x00022db4   Data           8  rs232_protocol.o(.constdata)
    cmd_SSPSBL                               0x00022dbc   Data           8  rs232_protocol.o(.constdata)
    cmd_SSPSW                                0x00022dc4   Data           8  rs232_protocol.o(.constdata)
    cmd_MSZL                                 0x00022dcc   Data           8  rs232_protocol.o(.constdata)
    cmd_MSZR                                 0x00022dd4   Data           8  rs232_protocol.o(.constdata)
    cmd_MSZSL                                0x00022ddc   Data           8  rs232_protocol.o(.constdata)
    cmd_MSZSR                                0x00022de4   Data           8  rs232_protocol.o(.constdata)
    cmd_MSZSBL                               0x00022dec   Data           8  rs232_protocol.o(.constdata)
    cmd_MSZSBR                               0x00022df4   Data           8  rs232_protocol.o(.constdata)
    cmd_MSZC                                 0x00022dfc   Data           8  rs232_protocol.o(.constdata)
    cmd_MSZS                                 0x00022e04   Data           8  rs232_protocol.o(.constdata)
    cmd_MSPL                                 0x00022e0c   Data           8  rs232_protocol.o(.constdata)
    cmd_MSPC                                 0x00022e14   Data           8  rs232_protocol.o(.constdata)
    cmd_MSPR                                 0x00022e1c   Data           8  rs232_protocol.o(.constdata)
    cmd_MSPSR                                0x00022e24   Data           8  rs232_protocol.o(.constdata)
    cmd_MSPSL                                0x00022e2c   Data           8  rs232_protocol.o(.constdata)
    cmd_MSPBR                                0x00022e34   Data           8  rs232_protocol.o(.constdata)
    cmd_MSPBL                                0x00022e3c   Data           8  rs232_protocol.o(.constdata)
    cmd_MSPs                                 0x00022e44   Data           8  rs232_protocol.o(.constdata)
    cmd_MSLL                                 0x00022e4c   Data           8  rs232_protocol.o(.constdata)
    cmd_MSLC                                 0x00022e54   Data           8  rs232_protocol.o(.constdata)
    cmd_MSLR                                 0x00022e5c   Data           8  rs232_protocol.o(.constdata)
    cmd_MSLSR                                0x00022e64   Data           8  rs232_protocol.o(.constdata)
    cmd_MSLSL                                0x00022e6c   Data           8  rs232_protocol.o(.constdata)
    cmd_MSLBR                                0x00022e74   Data           8  rs232_protocol.o(.constdata)
    cmd_MSLBL                                0x00022e7c   Data           8  rs232_protocol.o(.constdata)
    cmd_MSLSW                                0x00022e84   Data           8  rs232_protocol.o(.constdata)
    cmd_MSZXFL                               0x00022e8c   Data           8  rs232_protocol.o(.constdata)
    cmd_MSZXFC                               0x00022e94   Data           8  rs232_protocol.o(.constdata)
    cmd_MSZXFR                               0x00022e9c   Data           8  rs232_protocol.o(.constdata)
    cmd_MSZXSR                               0x00022ea4   Data           8  rs232_protocol.o(.constdata)
    cmd_MSZXSBR                              0x00022eac   Data           8  rs232_protocol.o(.constdata)
    cmd_MSZXSBL                              0x00022eb4   Data           8  rs232_protocol.o(.constdata)
    cmd_MSZXSL                               0x00022ebc   Data           8  rs232_protocol.o(.constdata)
    cmd_MSZX                                 0x00022ec4   Data           8  rs232_protocol.o(.constdata)
    cmd_MZ1EQL                               0x00022ecc   Data           8  rs232_protocol.o(.constdata)
    cmd_MZ1EQC                               0x00022ed4   Data           8  rs232_protocol.o(.constdata)
    cmd_MZ1EQR                               0x00022edc   Data           8  rs232_protocol.o(.constdata)
    cmd_MZ1EQSR                              0x00022ee4   Data           8  rs232_protocol.o(.constdata)
    cmd_MZ1EQBSR                             0x00022eec   Data           8  rs232_protocol.o(.constdata)
    cmd_MZ1EQBSL                             0x00022ef4   Data           8  rs232_protocol.o(.constdata)
    cmd_MZ1EQSL                              0x00022efc   Data           8  rs232_protocol.o(.constdata)
    cmd_MZ1EQSW                              0x00022f04   Data           8  rs232_protocol.o(.constdata)
    cmd_MSSPL                                0x00022f0c   Data           8  rs232_protocol.o(.constdata)
    cmd_MSSPC                                0x00022f14   Data           8  rs232_protocol.o(.constdata)
    cmd_MSSPR                                0x00022f1c   Data           8  rs232_protocol.o(.constdata)
    cmd_MSSPSR                               0x00022f24   Data           8  rs232_protocol.o(.constdata)
    cmd_MSSPSL                               0x00022f2c   Data           8  rs232_protocol.o(.constdata)
    cmd_MSSPSBR                              0x00022f34   Data           8  rs232_protocol.o(.constdata)
    cmd_MSSPSBL                              0x00022f3c   Data           8  rs232_protocol.o(.constdata)
    cmd_MSSPSW                               0x00022f44   Data           8  rs232_protocol.o(.constdata)
    cmd_Z1EMDIM                              0x00022f4c   Data           8  rs232_protocol.o(.constdata)
    cmd_Z1EMP                                0x00022f54   Data           8  rs232_protocol.o(.constdata)
    cmd_Z1EMC                                0x00022f5c   Data           8  rs232_protocol.o(.constdata)
    cmd_Z1EMDEL                              0x00022f64   Data           8  rs232_protocol.o(.constdata)
    cmd_Z1VFL_                               0x00022f6c   Data           8  rs232_protocol.o(.constdata)
    cmd_Z1VFR_                               0x00022f74   Data           8  rs232_protocol.o(.constdata)
    cmd_Z1VC_                                0x00022f7c   Data           8  rs232_protocol.o(.constdata)
    cmd_Z1VSL_                               0x00022f84   Data           8  rs232_protocol.o(.constdata)
    cmd_Z1VSR_                               0x00022f8c   Data           8  rs232_protocol.o(.constdata)
    cmd_Z1VBL_                               0x00022f94   Data           8  rs232_protocol.o(.constdata)
    cmd_Z1VBR_                               0x00022f9c   Data           8  rs232_protocol.o(.constdata)
    cmd_Z1VS_                                0x00022fa4   Data           8  rs232_protocol.o(.constdata)
    cmd_Z1VFD_                               0x00022fac   Data           8  rs232_protocol.o(.constdata)
    cmd_Z1IN1                                0x00022fb4   Data           8  rs232_protocol.o(.constdata)
    cmd_Z1IN2                                0x00022fbc   Data           8  rs232_protocol.o(.constdata)
    cmd_Z1IN3                                0x00022fc4   Data           8  rs232_protocol.o(.constdata)
    cmd_Z1IN4                                0x00022fcc   Data           8  rs232_protocol.o(.constdata)
    cmd_Z1IN5                                0x00022fd4   Data           8  rs232_protocol.o(.constdata)
    cmd_Z1IN6                                0x00022fdc   Data           8  rs232_protocol.o(.constdata)
    cmd_Z1IN7                                0x00022fe4   Data           8  rs232_protocol.o(.constdata)
    cmd_Z1IN8                                0x00022fec   Data           8  rs232_protocol.o(.constdata)
    cmd_Z1SAL1                               0x00022ff4   Data           8  rs232_protocol.o(.constdata)
    cmd_Z1SAL2                               0x00022ffc   Data           8  rs232_protocol.o(.constdata)
    cmd_Z1SAL3                               0x00023004   Data           8  rs232_protocol.o(.constdata)
    cmd_Z1SAL4                               0x0002300c   Data           8  rs232_protocol.o(.constdata)
    cmd_Z1SAL5                               0x00023014   Data           8  rs232_protocol.o(.constdata)
    cmd_Z1SAL6                               0x0002301c   Data           8  rs232_protocol.o(.constdata)
    cmd_Z1SAL7                               0x00023024   Data           8  rs232_protocol.o(.constdata)
    cmd_Z1SAL8                               0x0002302c   Data           8  rs232_protocol.o(.constdata)
    cmd_Z1ACN1                               0x00023034   Data           8  rs232_protocol.o(.constdata)
    cmd_Z1ACN2                               0x0002303c   Data           8  rs232_protocol.o(.constdata)
    cmd_Z1ACN3                               0x00023044   Data           8  rs232_protocol.o(.constdata)
    cmd_Z1ACN4                               0x0002304c   Data           8  rs232_protocol.o(.constdata)
    cmd_Z1ACN5                               0x00023054   Data           8  rs232_protocol.o(.constdata)
    cmd_Z1ACN6                               0x0002305c   Data           8  rs232_protocol.o(.constdata)
    cmd_Z1ACN7                               0x00023064   Data           8  rs232_protocol.o(.constdata)
    cmd_Z1ACN8                               0x0002306c   Data           8  rs232_protocol.o(.constdata)
    cmd_Z1ACN7_1                             0x00023074   Data           8  rs232_protocol.o(.constdata)
    cmd_Z1ACNR                               0x0002307c   Data           8  rs232_protocol.o(.constdata)
    cmd_ASSP                                 0x00023084   Data           8  rs232_protocol.o(.constdata)
    cmd_ASHDMIAO                             0x0002308c   Data           8  rs232_protocol.o(.constdata)
    cmd_ASAVD                                0x00023094   Data           8  rs232_protocol.o(.constdata)
    cmd_ASFP                                 0x0002309c   Data           8  rs232_protocol.o(.constdata)
    cmd_ASRSN                                0x000230a4   Data           8  rs232_protocol.o(.constdata)
    cmd_ASIRC                                0x000230ac   Data           8  rs232_protocol.o(.constdata)
    cmd_ASIR2C                               0x000230b4   Data           8  rs232_protocol.o(.constdata)
    cmd_ASIRM                                0x000230bc   Data           8  rs232_protocol.o(.constdata)
    cmd_ASIR2M                               0x000230c4   Data           8  rs232_protocol.o(.constdata)
    cmd_ASTO                                 0x000230cc   Data           8  rs232_protocol.o(.constdata)
    cmd_ASAIS                                0x000230d4   Data           8  rs232_protocol.o(.constdata)
    cmd_ASDD                                 0x000230dc   Data           8  rs232_protocol.o(.constdata)
    cmd_ASRD                                 0x000230e4   Data           8  rs232_protocol.o(.constdata)
    CaryLogo                                 0x000230ec   Data          21  setup_func.o(.constdata)
    pZone1Task                               0x00023104   Data           8  task.o(.constdata)
    pSetupTask                               0x0002310c   Data           8  task.o(.constdata)
    pRadioTask                               0x00023114   Data           8  task.o(.constdata)
    pZone2Task                               0x0002311c   Data           8  task.o(.constdata)
    pAutoSoundTask                           0x00023124   Data           8  task.o(.constdata)
    Surround_Processor                       0x0002312c   Data          21  vfd_disp.o(.constdata)
    eq_freq                                  0x00023144   Data         242  auto_sound.o(.constdata)
    IIC_CS8416                               0x00023258   Data          76  cs8416.o(.constdata)
    IIC_EEPROM                               0x000232a4   Data          76  eeprom.o(.constdata)
    IIC_VFD                                  0x000232f0   Data          76  vfddriver.o(.constdata)
    dimer_table                              0x0002333c   Data           4  vfddriver.o(.constdata)
    BalanceChannel                           0x00023340   Data           8  volume.o(.constdata)
    Max335SelTab                             0x00023348   Data           8  max335.o(.constdata)
    IIC_DIGI                                 0x00023350   Data          76  channel.o(.constdata)
    Digital_channel_table                    0x0002339c   Data          18  channel.o(.constdata)
    Zone2_Digital_channel_table              0x000233ae   Data          18  channel.o(.constdata)
    input_select_table                       0x000233c0   Data          20  channel.o(.constdata)
    analog_in_table                          0x000233d4   Data          40  channel.o(.constdata)
    zone2_analog_in_table                    0x000233fc   Data          44  channel.o(.constdata)
    IIC_HDMI                                 0x00023428   Data          76  hdmi.o(.constdata)
    sw_freq_table                            0x00023474   Data          20  eq_manager.o(.constdata)
    freq_table                               0x00023488   Data          20  eq_manager.o(.constdata)
    eq_var_table                             0x0002349c   Data         176  eq_manager.o(.constdata)
    MIC_YOGE_BM38_parameter                  0x0002354c   Data         256  irc1_manager.o(.constdata)
    __mathlib_zero                           0x00023708   Data           8  qnan.o(.constdata)
    __ctype                                  0x000237e1   Data         256  lc_ctype_c.o(.constdata)
    Region$$Table$$Base                      0x00024258   Number         0  anon$$obj.o(Region$$Table)
    Region$$Table$$Limit                     0x00024278   Number         0  anon$$obj.o(Region$$Table)
    Rs232ProtocolHandler                     0x40000000   Data           4  main.o(.data)
    key_enable                               0x40000004   Data           1  key_task.o(.data)
    panel_key_value                          0x40000006   Data           2  key_task.o(.data)
    encoder_flag                             0x40000008   Data           1  key_task.o(.data)
    encoder_key                              0x40000009   Data           1  key_task.o(.data)
    strFl                                    0x40000020   Data           3  menu_tbl.o(.data)
    strCen                                   0x40000023   Data           4  menu_tbl.o(.data)
    strFr                                    0x40000027   Data           3  menu_tbl.o(.data)
    strSr                                    0x4000002a   Data           3  menu_tbl.o(.data)
    strSbr                                   0x4000002d   Data           4  menu_tbl.o(.data)
    strSbl                                   0x40000031   Data           4  menu_tbl.o(.data)
    strSl                                    0x40000035   Data           3  menu_tbl.o(.data)
    strSw                                    0x40000038   Data           3  menu_tbl.o(.data)
    strListenProfile                         0x4000003b   Data          19  menu_tbl.o(.data)
    strInput                                 0x4000004e   Data           7  menu_tbl.o(.data)
    strZone2                                 0x40000055   Data           7  menu_tbl.o(.data)
    strOther                                 0x4000005c   Data          18  menu_tbl.o(.data)
    strOn                                    0x4000006e   Data           3  menu_tbl.o(.data)
    strOff                                   0x40000071   Data           4  menu_tbl.o(.data)
    strBack                                  0x40000075   Data           5  menu_tbl.o(.data)
    strGotoMain                              0x4000007a   Data          15  menu_tbl.o(.data)
    strAssignedInput                         0x40000089   Data          16  menu_tbl.o(.data)
    strChangeInputNames                      0x40000099   Data          19  menu_tbl.o(.data)
    strSetAnalogInLevel                      0x400000ac   Data          20  menu_tbl.o(.data)
    strSetAnalogInConfig                     0x400000c0   Data          21  menu_tbl.o(.data)
    strHDMIinAudio                           0x400000d5   Data          18  menu_tbl.o(.data)
    opCrossOver                              0x400000e8   Data          96  menu_tbl.o(.data)
    opAssignedIput                           0x40000148   Data           8  menu_tbl.o(.data)
    opChangeInputNames                       0x40000150   Data           8  menu_tbl.o(.data)
    opSetAnalogInLevel                       0x40000158   Data           8  menu_tbl.o(.data)
    opSetAnalogInConfig                      0x40000160   Data           8  menu_tbl.o(.data)
    opSetHDMIInAudio                         0x40000168   Data           8  menu_tbl.o(.data)
    opListenProfilePage                      0x40000170   Data           8  menu_tbl.o(.data)
    opMovieSpeaker                           0x40000178   Data           8  menu_tbl.o(.data)
    opMusicSpeaker                           0x40000180   Data           8  menu_tbl.o(.data)
    opSpkConfigPage                          0x40000188   Data           8  menu_tbl.o(.data)
    opSpkDistancePage                        0x40000190   Data           8  menu_tbl.o(.data)
    opSpkBalancePage                         0x40000198   Data           8  menu_tbl.o(.data)
    opSpkCrossoverPage                       0x400001a0   Data           8  menu_tbl.o(.data)
    opSpkEqPage                              0x400001a8   Data           8  menu_tbl.o(.data)
    opSpkPhasePage                           0x400001b0   Data           8  menu_tbl.o(.data)
    opSpkConfigPage_music                    0x400001b8   Data           8  menu_tbl.o(.data)
    opSpkDistancePage_music                  0x400001c0   Data           8  menu_tbl.o(.data)
    opSpkBalancePage_music                   0x400001c8   Data           8  menu_tbl.o(.data)
    opSpkCrossoverPage_music                 0x400001d0   Data           8  menu_tbl.o(.data)
    opSpkEqPage_music                        0x400001d8   Data           8  menu_tbl.o(.data)
    opSpkPhasePage_music                     0x400001e0   Data           8  menu_tbl.o(.data)
    opSpkPanoramaPage_music                  0x400001e8   Data           8  menu_tbl.o(.data)
    opMainPage                               0x400001f0   Data           8  menu_tbl.o(.data)
    opZone2Page                              0x400001f8   Data           8  menu_tbl.o(.data)
    opCrossOverPage                          0x40000200   Data           8  menu_tbl.o(.data)
    opDelayPage                              0x40000208   Data           8  menu_tbl.o(.data)
    opAvSynPage                              0x40000210   Data           8  menu_tbl.o(.data)
    opBalancePage                            0x40000218   Data           8  menu_tbl.o(.data)
    opInputPage                              0x40000220   Data           8  menu_tbl.o(.data)
    opHDMIPage                               0x40000228   Data           8  menu_tbl.o(.data)
    opOtherPage                              0x40000230   Data           8  menu_tbl.o(.data)
    opSignalPage                             0x40000238   Data           8  menu_tbl.o(.data)
    opLogoPage                               0x40000240   Data           8  menu_tbl.o(.data)
    opPasswordPage                           0x40000248   Data           8  menu_tbl.o(.data)
    strMovieSpeaker                          0x40000250   Data          11  menu_tbl.o(.data)
    strMusicSpeaker                          0x4000025b   Data          11  menu_tbl.o(.data)
    strMovieSpeakerSetting                   0x40000266   Data          18  menu_tbl.o(.data)
    strMusicSpeakerSetting                   0x40000278   Data          18  menu_tbl.o(.data)
    ListenProfileItem                        0x4000028c   Data          60  menu_tbl.o(.data)
    strSetSpeakerConfig                      0x400002c8   Data          19  menu_tbl.o(.data)
    strSetDistance                           0x400002db   Data          13  menu_tbl.o(.data)
    strSetBalance                            0x400002e8   Data          12  menu_tbl.o(.data)
    strSetCrossoverPoints                    0x400002f4   Data          21  menu_tbl.o(.data)
    strSetRoomEq                             0x40000309   Data          12  menu_tbl.o(.data)
    strSetSpeakerPhase                       0x40000315   Data          18  menu_tbl.o(.data)
    MovieSpeakerItem                         0x40000328   Data         140  menu_tbl.o(.data)
    strSetSpeakerConfig_music                0x400003b4   Data          19  menu_tbl.o(.data)
    strSetDistance_music                     0x400003c7   Data          13  menu_tbl.o(.data)
    strSetBalance_music                      0x400003d4   Data          12  menu_tbl.o(.data)
    strSetCrossoverPoints_music              0x400003e0   Data          21  menu_tbl.o(.data)
    strSetRoomEq_music                       0x400003f5   Data          12  menu_tbl.o(.data)
    strSetSpeakerPhase_music                 0x40000401   Data          18  menu_tbl.o(.data)
    strSetPanorama_music                     0x40000413   Data          18  menu_tbl.o(.data)
    MusicSpeakerItem                         0x40000428   Data         160  menu_tbl.o(.data)
    SpkConfigOption                          0x400004c8   Data          16  menu_tbl.o(.data)
    SpkConfigItem                            0x400004d8   Data         180  menu_tbl.o(.data)
    SpkConfigItem_Music                      0x4000058c   Data         180  menu_tbl.o(.data)
    SpkDistanceItem                          0x40000640   Data         180  menu_tbl.o(.data)
    SpkDistanceItem_Music                    0x400006f4   Data         180  menu_tbl.o(.data)
    OpTestMode                               0x400007a8   Data          24  menu_tbl.o(.data)
    SpkSetBalanceItem                        0x400007c0   Data         200  menu_tbl.o(.data)
    SpkSetBalanceItem_Music                  0x40000888   Data         200  menu_tbl.o(.data)
    SpkSetCrossoverPointsItem                0x40000950   Data         180  menu_tbl.o(.data)
    SpkSetCrossoverPointsItem_Music          0x40000a04   Data         180  menu_tbl.o(.data)
    SpkSetRoomEqItem                         0x40000ab8   Data        1620  menu_tbl.o(.data)
    SpkSetRoomEqItem_Music                   0x4000110c   Data        1620  menu_tbl.o(.data)
    SpkPhaseOption                           0x40001760   Data          16  menu_tbl.o(.data)
    SpkSetSpeakerPhaseItem                   0x40001770   Data         180  menu_tbl.o(.data)
    SpkSetSpeakerPhaseItem_Music             0x40001824   Data         180  menu_tbl.o(.data)
    strDimension                             0x400018d8   Data          10  menu_tbl.o(.data)
    strPanorama                              0x400018e2   Data           9  menu_tbl.o(.data)
    strWidth                                 0x400018eb   Data           6  menu_tbl.o(.data)
    strDelay                                 0x400018f1   Data           6  menu_tbl.o(.data)
    SpkDimensionOption                       0x400018f8   Data          56  menu_tbl.o(.data)
    SpkPanoramaOption                        0x40001930   Data          16  menu_tbl.o(.data)
    SpkWidthOption                           0x40001940   Data          64  menu_tbl.o(.data)
    SpkDelayOption                           0x40001980   Data         128  menu_tbl.o(.data)
    SpkSetSpeakerPanoramaItem_Music          0x40001a00   Data         100  menu_tbl.o(.data)
    strInput7CH1                             0x40001a64   Data           7  menu_tbl.o(.data)
    strInput1                                0x40001a6b   Data           7  menu_tbl.o(.data)
    strInput2                                0x40001a72   Data           7  menu_tbl.o(.data)
    strInput3                                0x40001a79   Data           7  menu_tbl.o(.data)
    strInput4                                0x40001a80   Data           7  menu_tbl.o(.data)
    strInput5                                0x40001a87   Data           7  menu_tbl.o(.data)
    strInput6                                0x40001a8e   Data           7  menu_tbl.o(.data)
    strInput7                                0x40001a95   Data           7  menu_tbl.o(.data)
    strInput8                                0x40001a9c   Data           7  menu_tbl.o(.data)
    strInputHDM1                             0x40001aa3   Data           7  menu_tbl.o(.data)
    strInputHDM2                             0x40001aaa   Data           7  menu_tbl.o(.data)
    strarcchannel                            0x40001ab1   Data           9  menu_tbl.o(.data)
    strInputTuner                            0x40001aba   Data           6  menu_tbl.o(.data)
    InputItem                                0x40001ac0   Data         120  menu_tbl.o(.data)
    Input1Option                             0x40001b38   Data          16  menu_tbl.o(.data)
    Input2Option                             0x40001b48   Data          24  menu_tbl.o(.data)
    Input3Option                             0x40001b60   Data          24  menu_tbl.o(.data)
    Input4Option                             0x40001b78   Data          24  menu_tbl.o(.data)
    Input5Option                             0x40001b90   Data          24  menu_tbl.o(.data)
    Input6Option                             0x40001ba8   Data          24  menu_tbl.o(.data)
    Input7Option                             0x40001bc0   Data          24  menu_tbl.o(.data)
    Input8Option                             0x40001bd8   Data          24  menu_tbl.o(.data)
    AssignedInputItem                        0x40001bf0   Data         180  menu_tbl.o(.data)
    InputNameItem                            0x40001ca4   Data         260  menu_tbl.o(.data)
    AnalogInLevelItem                        0x40001da8   Data         180  menu_tbl.o(.data)
    AnalogInOption                           0x40001e5c   Data          16  menu_tbl.o(.data)
    AnalogInConfigItem                       0x40001e6c   Data         220  menu_tbl.o(.data)
    strHDMI1                                 0x40001f48   Data           6  menu_tbl.o(.data)
    strHDMI2                                 0x40001f4e   Data           6  menu_tbl.o(.data)
    HDMIInAudioOption                        0x40001f54   Data          16  menu_tbl.o(.data)
    HDMIInAudioItem                          0x40001f64   Data          60  menu_tbl.o(.data)
    opZONE2OUT                               0x40001fa0   Data         128  menu_tbl.o(.data)
    Zone2Item                                0x40002020   Data          60  menu_tbl.o(.data)
    strSetMaxVolume                          0x4000205c   Data          15  menu_tbl.o(.data)
    strLate                                  0x4000206b   Data           5  menu_tbl.o(.data)
    strBright                                0x40002070   Data           7  menu_tbl.o(.data)
    strPassword                              0x40002077   Data           9  menu_tbl.o(.data)
    strHDMIAudioOut                          0x40002080   Data          15  menu_tbl.o(.data)
    strSetZ1MasterVolume                     0x4000208f   Data          17  menu_tbl.o(.data)
    strSetZ2MasterVolume                     0x400020a0   Data          17  menu_tbl.o(.data)
    strSetCDPureAudio                        0x400020b1   Data          14  menu_tbl.o(.data)
    strPasswordMode                          0x400020bf   Data          14  menu_tbl.o(.data)
    strPasswordChange                        0x400020cd   Data           7  menu_tbl.o(.data)
    strAutoInputSeek                         0x400020d4   Data          16  menu_tbl.o(.data)
    strIrControls                            0x400020e4   Data          12  menu_tbl.o(.data)
    strZone2IrControls                       0x400020f0   Data          15  menu_tbl.o(.data)
    strTriggers                              0x400020ff   Data           8  menu_tbl.o(.data)
    strRestoreDefault                        0x40002107   Data          16  menu_tbl.o(.data)
    strAvSyncDelay                           0x40002117   Data          14  menu_tbl.o(.data)
    strEditCustomName                        0x40002125   Data          17  menu_tbl.o(.data)
    opLate                                   0x40002138   Data          24  menu_tbl.o(.data)
    opPassword                               0x40002150   Data          16  menu_tbl.o(.data)
    opHDMIAudioOut                           0x40002160   Data          16  menu_tbl.o(.data)
    opCDPureAudio                            0x40002170   Data          16  menu_tbl.o(.data)
    opBright                                 0x40002180   Data          32  menu_tbl.o(.data)
    opAutoInputSeek                          0x400021a0   Data          16  menu_tbl.o(.data)
    opIrControls                             0x400021b0   Data          24  menu_tbl.o(.data)
    opIrMode                                 0x400021c8   Data          16  menu_tbl.o(.data)
    opTriggers                               0x400021d8   Data          24  menu_tbl.o(.data)
    OtherItem                                0x400021f0   Data         360  menu_tbl.o(.data)
    PasswordItem                             0x40002358   Data          60  menu_tbl.o(.data)
    EditCustomNameItem                       0x40002394   Data          40  menu_tbl.o(.data)
    strExit                                  0x400023bc   Data          16  menu_tbl.o(.data)
    MainPageItem                             0x400023cc   Data         100  menu_tbl.o(.data)
    StrSetupMenu                             0x40002430   Data          11  menu_tbl.o(.data)
    msg_queue_rear                           0x4000243c   Data           2  message.o(.data)
    msg_queue_front                          0x4000243e   Data           2  message.o(.data)
    cur_dis_unit                             0x40002440   Data           1  rs232_protocol.o(.data)
    msgs                                     0x40002444   Data         756  rs232_protocol.o(.data)
    spk_name_fl                              0x4000273c   Data           8  setup_func.o(.data)
    spk_name_c                               0x40002744   Data           8  setup_func.o(.data)
    spk_name_fr                              0x4000274c   Data           8  setup_func.o(.data)
    spk_name_sl                              0x40002754   Data           8  setup_func.o(.data)
    spk_name_sr                              0x4000275c   Data           8  setup_func.o(.data)
    spk_name_sbl                             0x40002764   Data           8  setup_func.o(.data)
    spk_name_sbr                             0x4000276c   Data           8  setup_func.o(.data)
    spk_name_sw                              0x40002774   Data           8  setup_func.o(.data)
    spk_fl                                   0x4000277c   Data          60  setup_func.o(.data)
    spk_fr                                   0x400027b8   Data          60  setup_func.o(.data)
    spk_sl                                   0x400027f4   Data          60  setup_func.o(.data)
    spk_sr                                   0x40002830   Data          60  setup_func.o(.data)
    spk_sbl                                  0x4000286c   Data          60  setup_func.o(.data)
    spk_sbr                                  0x400028a8   Data          60  setup_func.o(.data)
    spk_cen                                  0x400028e4   Data          60  setup_func.o(.data)
    spk_sw                                   0x40002920   Data          60  setup_func.o(.data)
    speaker_table                            0x4000295c   Data          36  setup_func.o(.data)
    balance_mode                             0x40002980   Data           1  setup_func.o(.data)
    pwd_mode                                 0x40002981   Data           1  setup_func.o(.data)
    zone2_ir_mode                            0x40002982   Data           1  setup_func.o(.data)
    rear_ir_mode                             0x40002983   Data           1  setup_func.o(.data)
    SystemTriggerMode                        0x40002984   Data           1  setup_func.o(.data)
    CD_Pure_Audio                            0x40002985   Data           1  setup_func.o(.data)
    HDMI_Audio_Out                           0x40002986   Data           1  setup_func.o(.data)
    InNameChanging                           0x4000298c   Data           1  setup_menu.o(.data)
    FlashPosition                            0x4000298d   Data           1  setup_menu.o(.data)
    InPwdInput                               0x4000298e   Data           1  setup_menu.o(.data)
    PwdCounter                               0x4000298f   Data           1  setup_menu.o(.data)
    PwdInputState                            0x40002990   Data           1  setup_menu.o(.data)
    current_pwd                              0x40002992   Data           2  setup_menu.o(.data)
    new_pwd                                  0x40002994   Data           2  setup_menu.o(.data)
    user_pwd                                 0x40002996   Data           2  setup_menu.o(.data)
    Movie_Music_Speaker_Flag                 0x40002998   Data           1  setup_menu.o(.data)
    bCusrPos                                 0x40002999   Data           1  setup_menu.o(.data)
    bCurOptionIndex                          0x4000299a   Data           1  setup_menu.o(.data)
    disp_mode                                0x4000299e   Data           1  setup_menu.o(.data)
    pMenuCurPage                             0x400029a4   Data           4  setup_menu.o(.data)
    pMenuCurItem                             0x400029a8   Data           4  setup_menu.o(.data)
    tasks                                    0x400029ac   Data          24  task.o(.data)
    current_tid                              0x400029c4   Data           1  task.o(.data)
    need_refresh_vfd                         0x40002a1c   Data           1  vfd_disp.o(.data)
    need_refresh_dimer                       0x40002a1d   Data           1  vfd_disp.o(.data)
    temp_dimer_time                          0x40002a20   Data           2  zone1_task.o(.data)
    Dolby2ch_Flag                            0x40002a22   Data           1  zone1_task.o(.data)
    SrcNameInput1                            0x40002a23   Data          13  zone1_task.o(.data)
    SrcNameInput2                            0x40002a30   Data          13  zone1_task.o(.data)
    SrcNameInput3                            0x40002a3d   Data          13  zone1_task.o(.data)
    SrcNameInput4                            0x40002a4a   Data          13  zone1_task.o(.data)
    SrcNameInput5                            0x40002a57   Data          13  zone1_task.o(.data)
    SrcNameInput6                            0x40002a64   Data          13  zone1_task.o(.data)
    SrcNameInput7                            0x40002a71   Data          13  zone1_task.o(.data)
    SrcNameInput8                            0x40002a7e   Data          13  zone1_task.o(.data)
    SrcNameCh71                              0x40002a8b   Data          13  zone1_task.o(.data)
    SrcNameInputHDMI1                        0x40002a98   Data          13  zone1_task.o(.data)
    SrcNameInputHDMI2                        0x40002aa5   Data          13  zone1_task.o(.data)
    SrcNameInputARC                          0x40002ab2   Data          13  zone1_task.o(.data)
    DefaultName                              0x40002ac0   Data          48  zone1_task.o(.data)
    SrcName                                  0x40002af0   Data          48  zone1_task.o(.data)
    _cur_key                                 0x40002b20   Data           1  zone1_task.o(.data)
    ch_name                                  0x40002b24   Data          12  zone1_task.o(.data)
    HDRadio_FM_Flag                          0x40002b30   Data           1  zone1_task.o(.data)
    HDRadio_HDFM_Flag                        0x40002b31   Data           1  zone1_task.o(.data)
    DSP_HDMI_Setting_Flag                    0x40002b32   Data           1  zone1_task.o(.data)
    Zone1SrcName                             0x40002b38   Data           4  zone1_task.o(.data)
    Stream                                   0x40002b3d   Data           1  zone1_task.o(.data)
    Zone2SrcName                             0x40002b40   Data           4  zone2_task.o(.data)
    auto_sound_testing                       0x40002b44   Data           1  auto_sound.o(.data)
    temp_buffer                              0x40002b45   Data          21  auto_sound.o(.data)
    current_test_spk                         0x40002b5a   Data           1  auto_sound.o(.data)
    bar_counter                              0x40002b5b   Data           1  auto_sound.o(.data)
    NameAutoSoundSetup                       0x40002b5c   Data          21  auto_sound.o(.data)
    NameEnterStart                           0x40002b71   Data          21  auto_sound.o(.data)
    NameEnterNow                             0x40002b86   Data          21  auto_sound.o(.data)
    NameConnectMic                           0x40002b9b   Data          21  auto_sound.o(.data)
    NameSpeakerCheck                         0x40002bb0   Data          21  auto_sound.o(.data)
    NameSetDistance                          0x40002bc5   Data          21  auto_sound.o(.data)
    NameSetBalance                           0x40002bda   Data          21  auto_sound.o(.data)
    NameSetCrossoverPoint                    0x40002bef   Data          21  auto_sound.o(.data)
    NameSetRoomEq                            0x40002c04   Data          21  auto_sound.o(.data)
    NameSetSpeakerPhase                      0x40002c19   Data          21  auto_sound.o(.data)
    irc_setupconfig                          0x40002c30   Data           8  auto_sound.o(.data)
    irc_speakercheck                         0x40002c38   Data           8  auto_sound.o(.data)
    irc_setdistance                          0x40002c40   Data           8  auto_sound.o(.data)
    irc_setbalance                           0x40002c48   Data           8  auto_sound.o(.data)
    irc_setroomeq                            0x40002c50   Data           8  auto_sound.o(.data)
    irc_setcrossoverpoint                    0x40002c58   Data           8  auto_sound.o(.data)
    irc_setspeakerphase                      0x40002c60   Data           8  auto_sound.o(.data)
    current_step                             0x40002c68   Data           1  auto_sound.o(.data)
    IrcTaskTable                             0x40002c6c   Data          32  auto_sound.o(.data)
    bak_id                                   0x40002c98   Data           1  auto_sound.o(.data)
    HD_Radio_Power_Flag                      0x40002c9c   Data           1  radio_task.o(.data)
    Tuner_Text_Disp_Flag                     0x40002c9d   Data           1  radio_task.o(.data)
    Tuner_Reply_Flag                         0x40002c9e   Data           1  radio_task.o(.data)
    Tuner_Signal_Quality                     0x40002c9f   Data           1  radio_task.o(.data)
    Tuner_Freq_H                             0x40002ca0   Data           4  radio_task.o(.data)
    Tuner_Freq_L                             0x40002ca4   Data           4  radio_task.o(.data)
    stereo_mode                              0x40002ca8   Data           1  radio_task.o(.data)
    current_st_mode                          0x40002ca9   Data           1  radio_task.o(.data)
    DEFAULT_AM_FREQ                          0x40002cac   Data           4  radio_task.o(.data)
    MAX_AM_FREQ                              0x40002cb0   Data           4  radio_task.o(.data)
    MIN_AM_FREQ                              0x40002cb4   Data           4  radio_task.o(.data)
    DEFAULT_HDAM_FREQ                        0x40002cb8   Data           4  radio_task.o(.data)
    MAX_HDAM_FREQ                            0x40002cbc   Data           4  radio_task.o(.data)
    MIN_HDAM_FREQ                            0x40002cc0   Data           4  radio_task.o(.data)
    DEFAULT_FM_FREQ                          0x40002cc4   Data           4  radio_task.o(.data)
    MAX_FM_FREQ                              0x40002cc8   Data           4  radio_task.o(.data)
    MIN_FM_FREQ                              0x40002ccc   Data           4  radio_task.o(.data)
    DEFAULT_HDFM_FREQ                        0x40002cd0   Data           4  radio_task.o(.data)
    MAX_HDFM_FREQ                            0x40002cd4   Data           4  radio_task.o(.data)
    MIN_HDFM_FREQ                            0x40002cd8   Data           4  radio_task.o(.data)
    temp_radio_time                          0x40002cdc   Data           2  radio_task.o(.data)
    current_radio_mode                       0x40002cde   Data           1  radio_task.o(.data)
    system_freq                              0x40002ce0   Data           4  radio_task.o(.data)
    fm_freq                                  0x40002ce4   Data           4  radio_task.o(.data)
    am_freq                                  0x40002ce8   Data           4  radio_task.o(.data)
    HDFM_freq                                0x40002cec   Data           4  radio_task.o(.data)
    HDAM_freq                                0x40002cf0   Data           4  radio_task.o(.data)
    system_position                          0x40002cf4   Data           1  radio_task.o(.data)
    am_position                              0x40002cf5   Data           1  radio_task.o(.data)
    fm_position                              0x40002cf6   Data           1  radio_task.o(.data)
    HDFM_position                            0x40002cf7   Data           1  radio_task.o(.data)
    HDAM_position                            0x40002cf8   Data           1  radio_task.o(.data)
    current_radio_status                     0x40002cf9   Data           1  radio_task.o(.data)
    digi_key_value                           0x40002cfa   Data           1  radio_task.o(.data)
    am_preset_base                           0x40002d0a   Data           1  radio_task.o(.data)
    HDFM_preset_base                         0x40002d0b   Data           1  radio_task.o(.data)
    HDAM_preset_base                         0x40002d0c   Data           1  radio_task.o(.data)
    current_save_position                    0x40002d0d   Data           1  radio_task.o(.data)
    last_radio_status                        0x40002d0e   Data           1  radio_task.o(.data)
    rec_reply_count                          0x40002d10   Data           4  radio_task.o(.data)
    tuner_buffer                             0x40002d14   Data          12  uart.o(.data)
    tuner_queue_pointer                      0x40002d20   Data           4  uart.o(.data)
    protocol_buffer                          0x40002d24   Data          12  uart.o(.data)
    protocol_queue_pointer                   0x40002d30   Data           4  uart.o(.data)
    eint3_timer_cnter                        0x40002d3c   Data           1  ioport.o(.data)
    eint2_timer_cnter                        0x40002d3d   Data           1  ioport.o(.data)
    eint1_timer_cnter                        0x40002d3e   Data           1  ioport.o(.data)
    eint0_timer_cnter                        0x40002d3f   Data           1  ioport.o(.data)
    front_enable_zone2_ir                    0x40002d40   Data           1  ioport.o(.data)
    zone1_ir_enable                          0x40002d54   Data           1  ir.o(.data)
    zone2_ir_enable                          0x40002d55   Data           1  ir.o(.data)
    remote_repeat                            0x40002d56   Data           8  ir.o(.data)
    zone1_codeIR                             0x40002d6d   Data           1  ir.o(.data)
    OthersystemIR                            0x40002d6e   Data           1  ir.o(.data)
    zone2_codeIR                             0x40002d6f   Data           1  ir.o(.data)
    OthersystemIR2                           0x40002d70   Data           1  ir.o(.data)
    rs232_timer                              0x40002d74   Data           2  timer.o(.data)
    Tuner_Text_Count                         0x40002d76   Data           1  timer.o(.data)
    Text_Update_Flag                         0x40002d77   Data           1  timer.o(.data)
    HDMI_tick                                0x40002d78   Data           1  timer.o(.data)
    Hdmi_Stream_tick                         0x40002d79   Data           1  timer.o(.data)
    DSD_Stream_tick                          0x40002d7a   Data           1  timer.o(.data)
    DSP_Busy_tick                            0x40002d7b   Data           1  timer.o(.data)
    radio_time_tick                          0x40002d7c   Data           1  timer.o(.data)
    system_timer_flag                        0x40002d7d   Data           1  timer.o(.data)
    pcm20_delay_timer                        0x40002d7e   Data           1  timer.o(.data)
    dsp_time_tick                            0x40002d7f   Data           1  timer.o(.data)
    main_volume                              0x40002d9c   Data           4  volume.o(.data)
    Analog_Input_To_Dsp_Flag                 0x40002daa   Data           1  channel.o(.data)
    Pre_value                                0x40002dab   Data           1  hdmi.o(.data)
    dsp_power_flag                           0x40002dae   Data           1  dsp_task.o(.data)
    current_ac3_stream                       0x40002db2   Data           8  dsp_task.o(.data)
    current_dts_stream                       0x40002dba   Data           6  dsp_task.o(.data)
    PreDspMode                               0x40002dc0   Data           1  dspdrv.o(.data)
    compression_mode                         0x40002dc1   Data           1  dspdrv.o(.data)
    enable_eq                                0x40002dc2   Data           1  dspdrv.o(.data)
    enable_bass                              0x40002dc3   Data           1  dspdrv.o(.data)
    enable_delay                             0x40002dc4   Data           1  dspdrv.o(.data)
    system_spk_mode                          0x40002dc5   Data           8  dspdrv.o(.data)
    CurrentSampleFreq                        0x40002dcd   Data           1  dspdrv.o(.data)
    CurrentIputPort                          0x40002dce   Data           1  dspdrv.o(.data)
    stream_type                              0x40002dcf   Data           1  dspdrv.o(.data)
    dsp_force_change_code                    0x40002dd0   Data           1  dspdrv.o(.data)
    DolbyType                                0x40002dd1   Data           1  dspdrv.o(.data)
    DtsType                                  0x40002dd2   Data           1  dspdrv.o(.data)
    Pre_AC3_Type                             0x40002dd3   Data           1  dspdrv.o(.data)
    Pre_TureHD_Type                          0x40002dd4   Data           1  dspdrv.o(.data)
    Pre_DTS_Type                             0x40002dd5   Data           1  dspdrv.o(.data)
    Pre_DTS_HD_Type                          0x40002dd6   Data           1  dspdrv.o(.data)
    softmute_flag                            0x40002dd7   Data           1  dspdrv.o(.data)
    last_stream                              0x40002dd8   Data           4  dspdrv.o(.data)
    DSDType                                  0x40002ddc   Data           1  dspdrv.o(.data)
    PcmType                                  0x40002ddd   Data           1  dspdrv.o(.data)
    pMsgQueue                                0x40002de0   Data        1800  message.o(.bss)
    recv_buffer                              0x400034e8   Data          20  rs232_protocol.o(.bss)
    AnalogInLevel                            0x400034fc   Data          10  setup_func.o(.bss)
    AnalogInMode                             0x40003506   Data          10  setup_func.o(.bss)
    C11Logo                                  0x40003510   Data          21  zone1_task.o(.bss)
    sys_flag                                 0x40003526   Data          28  zone1_task.o(.bss)
    Tuner_Text_Rec_Buffer                    0x40003542   Data          80  radio_task.o(.bss)
    Tuner_Text_Disp_Buffer                   0x40003592   Data          20  radio_task.o(.bss)
    tuner_array                              0x400035a6   Data         256  uart.o(.bss)
    protocol_array                           0x400036a6   Data         256  uart.o(.bss)
    balance                                  0x400037a8   Data          32  volume.o(.bss)
    dsp_bass_corner                          0x400037c8   Data          12  bassmanager.o(.bss)
    dsp_delay_time                           0x400037d4   Data          16  delaymanager.o(.bss)
    dsp_delay_music_time                     0x400037e4   Data          16  delaymanager.o(.bss)
    dsp_buf                                  0x400037f4   Data         128  dspdrv.o(.bss)
    dsp_eq_table                             0x40003874   Data         320  eq_manager.o(.bss)
    dsp_eq_music_table                       0x400039b4   Data         320  eq_manager.o(.bss)
    __libspace_start                         0x40003af4   Data          96  libspace.o(.bss)


================================================================================

Memory Map of the image

  Image Entry point : 0x0000016c

  Load Region LR_IROM1 (Base: 0x00000000, Size: 0x00027058, Max: 0xffffffff, ABSOLUTE, COMPRESSED[0x000254a8])

    Execution Region ER_IROM1 (Base: 0x00000000, Size: 0x00024278, Max: 0x00040000, ABSOLUTE)

    Base Addr    Size         Type   Attr      Idx    E Section Name        Object

    0x00000000   0x0000016c   Code   RO            3    RESET               lpc2300.o
    0x0000016c   0x00000008   Code   RO         1635  * !!!main             __main.o(c_t__un.l)
    0x00000174   0x00000038   Code   RO         1959    !!!scatter          __scatter.o(c_t__un.l)
    0x000001ac   0x0000005c   Code   RO         1957    !!dczerorl2         __dczerorl2.o(c_t__un.l)
    0x00000208   0x0000002c   Code   RO         1961    !!handler_zi        __scatter_zi.o(c_t__un.l)
    0x00000234   0x00000004   Ven    RO         1862    .emb_text           lib_init.o(c_t__un.l)
    0x00000238   0x00000010   Code   RO         1862    .emb_text           lib_init.o(c_t__un.l)
    0x00000248   0x00000020   Code   RO            4    .text               lpc2300.o
    0x00000268   0x0000010c   Code   RO           11    .text               main.o
    0x00000374   0x000000c8   Code   RO          103    .text               debug.o
    0x0000043c   0x00000008   Ven    RO          133    .text               queue.o
    0x00000444   0x00000164   Code   RO          133    .text               queue.o
    0x000005a8   0x00000084   Code   RO          146    .text               c11_msg_handler.o
    0x0000062c   0x00000420   Code   RO          177    .text               key_task.o
    0x00000a4c   0x0000019c   Code   RO          225    .text               message.o
    0x00000be8   0x00006f44   Code   RO          241    .text               rs232_protocol.o
    0x00007b2c   0x0000198c   Code   RO          302    .text               setup_func.o
    0x000094b8   0x00001920   Code   RO          351    .text               setup_menu.o
    0x0000add8   0x00000078   Code   RO          366    .text               task.o
    0x0000ae50   0x00000008   Ven    RO          382    .text               vfd_disp.o
    0x0000ae58   0x0000026c   Code   RO          382    .text               vfd_disp.o
    0x0000b0c4   0x00000008   Ven    RO          402    .text               zone1_task.o
    0x0000b0cc   0x00002f78   Code   RO          402    .text               zone1_task.o
    0x0000e044   0x0000087c   Code   RO          539    .text               zone2_task.o
    0x0000e8c0   0x00002304   Code   RO          561    .text               auto_sound.o
    0x00010bc4   0x00002210   Code   RO          615    .text               radio_task.o
    0x00012dd4   0x00000164   Code   RO          655    .text               uart.o
    0x00012f38   0x000000ac   Code   RO          656    .text               uart.o
    0x00012fe4   0x00000148   Code   RO          693    .text               cs8416.o
    0x0001312c   0x0000035c   Code   RO          726    .text               dac.o
    0x00013488   0x000000e4   Code   RO          750    .text               eeprom.o
    0x0001356c   0x00000594   Code   RO          768    .text               i2cdrv.o
    0x00013b00   0x00000050   Code   RO          782    .text               ic165.o
    0x00013b50   0x00000280   Code   RO          798    .text               ic4094.o
    0x00013dd0   0x00000ed8   Code   RO          812    .text               ioport.o
    0x00014ca8   0x00000398   Code   RO          813    .text               ioport.o
    0x00015040   0x00000008   Ven    RO          850    .text               ir.o
    0x00015048   0x00000640   Code   RO          850    .text               ir.o
    0x00015688   0x00000158   Code   RO          878    .text               timer.o
    0x000157e0   0x0000035c   Code   RO          879    .text               timer.o
    0x00015b3c   0x0000010c   Code   RO          931    .text               vfddriver.o
    0x00015c48   0x000002c4   Code   RO          953    .text               mas9116.o
    0x00015f0c   0x0000027c   Code   RO          969    .text               volume.o
    0x00016188   0x000000b0   Code   RO          993    .text               max335.o
    0x00016238   0x00000534   Code   RO         1012    .text               channel.o
    0x0001676c   0x0000048c   Code   RO         1031    .text               tuner.o
    0x00016bf8   0x00000400   Code   RO         1058    .text               hdmi.o
    0x00016ff8   0x00000280   Code   RO         1108    .text               dsp_spi.o
    0x00017278   0x00001108   Code   RO         1146    .text               bassmanager.o
    0x00018380   0x000004b0   Code   RO         1164    .text               delaymanager.o
    0x00018830   0x000002c8   Code   RO         1189    .text               dolbymanager.o
    0x00018af8   0x00000320   Code   RO         1205    .text               dolbyprologicii.o
    0x00018e18   0x000003e4   Code   RO         1221    .text               dolbyprologiciix.o
    0x000191fc   0x00000380   Code   RO         1237    .text               dsp_task.o
    0x0001957c   0x00002314   Code   RO         1279    .text               dspdrv.o
    0x0001b890   0x00000a38   Code   RO         1369    .text               eq_manager.o
    0x0001c2c8   0x000002e0   Code   RO         1406    .text               irc1_manager.o
    0x0001c5a8   0x00000178   Code   RO         1428    .text               irc2_manager.o
    0x0001c720   0x00000230   Code   RO         1442    .text               os_manager.o
    0x0001c950   0x00000204   Code   RO         1472    .text               signalgenerator.o
    0x0001cb54   0x0000028c   Code   RO         1546    .text               dolbytruehd.o
    0x0001cde0   0x00000aa0   Code   RO         1562    .text               dsp_api.o
    0x0001d880   0x00000054   Code   RO         1599    .text               _printf_pad.o(c_t__un.l)
    0x0001d8d4   0x00000074   Code   RO         1601    .text               _printf_dec.o(c_t__un.l)
    0x0001d948   0x0000002c   Code   RO         1603    .text               vsprintf.o(c_t__un.l)
    0x0001d974   0x0000002c   Code   RO         1605    .text               __0sprintf.o(c_t__un.l)
    0x0001d9a0   0x00000004   Ven    RO         1607    .text               aeabi_memset.o(c_t__un.l)
    0x0001d9a4   0x00000010   Code   RO         1607    .text               aeabi_memset.o(c_t__un.l)
    0x0001d9b4   0x00000004   Ven    RO         1609    .text               rt_memcpy.o(c_t__un.l)
    0x0001d9b8   0x000000d4   Code   RO         1609    .text               rt_memcpy.o(c_t__un.l)
    0x0001da8c   0x00000004   Ven    RO         1611    .text               rt_memcpy_w.o(c_t__un.l)
    0x0001da90   0x00000064   Code   RO         1611    .text               rt_memcpy_w.o(c_t__un.l)
    0x0001daf4   0x00000004   Ven    RO         1613    .text               strncpy.o(c_t__un.l)
    0x0001daf8   0x00000070   Code   RO         1613    .text               strncpy.o(c_t__un.l)
    0x0001db68   0x00000048   Code   RO         1615    .text               strlen.o(c_t__un.l)
    0x0001dbb0   0x00000004   Ven    RO         1617    .text               aeabi_sdiv.o(c_t__un.l)
    0x0001dbb4   0x0000016c   Code   RO         1617    .text               aeabi_sdiv.o(c_t__un.l)
    0x0001dd20   0x00000058   Code   RO         1633    .text               stkheap2.o(c_t__un.l)
    0x0001dd78   0x00000004   Ven    RO         1693    .text               switch8.o(h_t__un.l)
    0x0001dd7c   0x00000018   Code   RO         1693    .text               switch8.o(h_t__un.l)
    0x0001dd94   0x00000010   Code   RO         1695    .text               callvia.o(h_t__un.l)
    0x0001dda4   0x00000004   Ven    RO         1696    .text               pow.o(m_t_pu.l)
    0x0001dda8   0x00000e24   Code   RO         1696    .text               pow.o(m_t_pu.l)
    0x0001ebcc   0x00000068   Code   RO         1701    .text               kernel.o(c_t__un.l)
    0x0001ec34   0x00000060   Code   RO         1704    .text               sys_stackheap_outer.o(c_t__un.l)
    0x0001ec94   0x00000004   Code   RO         1706    .text               aeabi_idiv0.o(c_t__un.l)
    0x0001ec98   0x00000010   Code   RO         1713    .text               rt_stackheap_storage_intlibspace.o(c_t__un.l)
    0x0001eca8   0x00000008   Ven    RO         1719    .text               _rserrno.o(c_t__un.l)
    0x0001ecb0   0x00000022   Code   RO         1719    .text               _rserrno.o(c_t__un.l)
    0x0001ecd2   0x0000002c   Code   RO         1721    .text               _printf_truncate.o(c_t__un.l)
    0x0001ecfe   0x0000005e   Code   RO         1723    .text               _printf_str.o(c_t__un.l)
    0x0001ed5c   0x000000c4   Code   RO         1725    .text               _printf_wctomb.o(c_t__un.l)
    0x0001ee20   0x000000a8   Code   RO         1728    .text               _printf_intcommon.o(c_t__un.l)
    0x0001eec8   0x000000cc   Code   RO         1730    .text               _printf_longlong_hex.o(c_t__un.l)
    0x0001ef94   0x00000094   Code   RO         1733    .text               _printf_longlong_oct.o(c_t__un.l)
    0x0001f028   0x0000008c   Code   RO         1735    .text               _printf_longlong_dec.o(c_t__un.l)
    0x0001f0b4   0x00000024   Code   RO         1737    .text               _printf_charcount.o(c_t__un.l)
    0x0001f0d8   0x00000646   Code   RO         1739    .text               _printf_fp_dec.o(c_t__un.l)
    0x0001f71e   0x00000002   PAD
    0x0001f720   0x00000034   Code   RO         1741    .text               _printf_char_common.o(c_t__un.l)
    0x0001f754   0x0000000a   Code   RO         1743    .text               _sputc.o(c_t__un.l)
    0x0001f75e   0x00000002   PAD
    0x0001f760   0x00000040   Code   RO         1745    .text               rt_memclr.o(c_t__un.l)
    0x0001f7a0   0x00000004   Ven    RO         1747    .text               rtudiv10.o(c_t__un.l)
    0x0001f7a4   0x0000002c   Code   RO         1747    .text               rtudiv10.o(c_t__un.l)
    0x0001f7d0   0x000000f8   Code   RO         1776    .text               poly.o(m_t_pu.l)
    0x0001f8c8   0x0000007c   Code   RO         1779    .text               sqrt.o(m_t_pu.l)
    0x0001f944   0x00000018   Code   RO         1781    .text               sys_exit.o(c_t__un.l)
    0x0001f95c   0x0000000c   Code   RO         1783    .text               libspace.o(c_t__un.l)
    0x0001f968   0x00000004   Ven    RO         1791    .text               rt_errno_addr_intlibspace.o(c_t__un.l)
    0x0001f96c   0x00000010   Code   RO         1791    .text               rt_errno_addr_intlibspace.o(c_t__un.l)
    0x0001f97c   0x00000004   Ven    RO         1800    .text               rt_locale_intlibspace.o(c_t__un.l)
    0x0001f980   0x00000010   Code   RO         1800    .text               rt_locale_intlibspace.o(c_t__un.l)
    0x0001f990   0x00000004   Ven    RO         1806    .text               lludiv10.o(c_t__un.l)
    0x0001f994   0x000000a0   Code   RO         1806    .text               lludiv10.o(c_t__un.l)
    0x0001fa34   0x000000d0   Code   RO         1808    .text               bigflt0.o(c_t__un.l)
    0x0001fb04   0x000002e8   Code   RO         1833    .text               __printf.o(c_t__un.l)
    0x0001fdec   0x00000020   Code   RO         1839    .text               _printf_outstr_char.o(c_t__un.l)
    0x0001fe0c   0x0000000a   Code   RO         1841    .text               _printf_input_char.o(c_t__un.l)
    0x0001fe16   0x0000004e   Code   RO         1843    .text               _wcrtomb.o(c_t__un.l)
    0x0001fe64   0x00000030   Code   RO         1845    .text               lc_numeric_c.o(c_t__un.l)
    0x0001fe94   0x00000018   Code   RO         1848    .text               exit.o(c_t__un.l)
    0x0001feac   0x00000054   Code   RO         1850    .text               rt_memclr_w.o(c_t__un.l)
    0x0001ff00   0x00000008   Ven    RO         1863    .text               lib_init.o(c_t__un.l)
    0x0001ff08   0x000000d6   Code   RO         1863    .text               lib_init.o(c_t__un.l)
    0x0001ffde   0x00000002   PAD
    0x0001ffe0   0x0000000c   Code   RO         1868    .text               boardinit2.o(c_t__un.l)
    0x0001ffec   0x00000010   Code   RO         1870    .text               boardinit3.o(c_t__un.l)
    0x0001fffc   0x00000004   Ven    RO         1882    .text               classify.o(m_t_pu.l)
    0x00020000   0x00000038   Code   RO         1882    .text               classify.o(m_t_pu.l)
    0x00020038   0x00000004   Ven    RO         1884    .text               dtoi.o(m_t_pu.l)
    0x0002003c   0x00000060   Code   RO         1884    .text               dtoi.o(m_t_pu.l)
    0x0002009c   0x00000004   Code   RO         1886    .text               use_no_semi.o(c_t__un.l)
    0x000200a0   0x00000004   Ven    RO         1888    .text               rt_ctype_table.o(c_t__un.l)
    0x000200a4   0x00000018   Code   RO         1888    .text               rt_ctype_table.o(c_t__un.l)
    0x000200bc   0x00000004   Ven    RO         1896    .text               strcmp.o(c_t__un.l)
    0x000200c0   0x000000a0   Code   RO         1896    .text               strcmp.o(c_t__un.l)
    0x00020160   0x00000006   Code   RO         1906    .text               no_argv.o(c_t__un.l)
    0x00020166   0x00000002   PAD
    0x00020168   0x00000030   Code   RO         1910    .text               fpclassify.o(m_t_pu.l)
    0x00020198   0x00000010   Code   RO         1919    .text               rt_fp_status_addr_intlibspace.o(c_t__un.l)
    0x000201a8   0x00000030   Code   RO         1927    .text               lc_ctype_c.o(c_t__un.l)
    0x000201d8   0x00000004   Ven    RO         1618    .text_udiv          aeabi_sdiv.o(c_t__un.l)
    0x000201dc   0x0000001c   Code   RO         1618    .text_udiv          aeabi_sdiv.o(c_t__un.l)
    0x000201f8   0x00000004   Ven    RO         1811    CL$$btod_d2e        btod.o(c_t__un.l)
    0x000201fc   0x00000038   Code   RO         1811    CL$$btod_d2e        btod.o(c_t__un.l)
    0x00020234   0x00000054   Code   RO         1813    CL$$btod_d2e_denorm_low  btod.o(c_t__un.l)
    0x00020288   0x00000068   Code   RO         1812    CL$$btod_d2e_norm_op1  btod.o(c_t__un.l)
    0x000202f0   0x0000034c   Code   RO         1821    CL$$btod_div_common  btod.o(c_t__un.l)
    0x0002063c   0x000000dc   Code   RO         1818    CL$$btod_e2e        btod.o(c_t__un.l)
    0x00020718   0x00000004   Ven    RO         1815    CL$$btod_ediv       btod.o(c_t__un.l)
    0x0002071c   0x00000034   Code   RO         1815    CL$$btod_ediv       btod.o(c_t__un.l)
    0x00020750   0x00000004   Ven    RO         1814    CL$$btod_emul       btod.o(c_t__un.l)
    0x00020754   0x00000034   Code   RO         1814    CL$$btod_emul       btod.o(c_t__un.l)
    0x00020788   0x00000268   Code   RO         1820    CL$$btod_mult_common  btod.o(c_t__un.l)
    0x000209f0   0x0000000c   Ven    RO         1990    Veneer$$Code        anon$$obj.o
    0x000209fc   0x0000000c   Ven    RO         1993    Veneer$$Code        anon$$obj.o
    0x00020a08   0x0000000c   Ven    RO         1994    Veneer$$Code        anon$$obj.o
    0x00020a14   0x0000000c   Ven    RO         1996    Veneer$$Code        anon$$obj.o
    0x00020a20   0x0000000c   Ven    RO         2001    Veneer$$Code        anon$$obj.o
    0x00020a2c   0x00000008   Ven    RO         2015    Veneer$$Code        anon$$obj.o
    0x00020a34   0x0000000c   Ven    RO         2018    Veneer$$Code        anon$$obj.o
    0x00020a40   0x00000010   Code   RO         1699    i.copysign          pow.o(m_t_pu.l)
    0x00020a50   0x00000004   Ven    RO         1637    x$fpl$d2f           d2f.o(fz_t_p.l)
    0x00020a54   0x000000ac   Code   RO         1637    x$fpl$d2f           d2f.o(fz_t_p.l)
    0x00020b00   0x000001d4   Code   RO         1639    x$fpl$dadd          daddsub_noclz.o(fz_t_p.l)
    0x00020cd4   0x00000010   Code   RO         1750    x$fpl$dcheck        dcheck.o(fz_t_p.l)
    0x00020ce4   0x00000010   Code   RO         1752    x$fpl$dcheck1       dcheck1.o(fz_t_p.l)
    0x00020cf4   0x00000080   Code   RO         1754    x$fpl$dcmpinfnan    dcmpin.o(fz_t_p.l)
    0x00020d74   0x00000064   Code   RO         1762    x$fpl$dcmpinfnan    fcmpin.o(fz_t_p.l)
    0x00020dd8   0x00000004   Ven    RO         1646    x$fpl$ddiv          ddiv.o(fz_t_p.l)
    0x00020ddc   0x000004c0   Code   RO         1646    x$fpl$ddiv          ddiv.o(fz_t_p.l)
    0x0002129c   0x00000058   Code   RO         1650    x$fpl$dflt          dflt_noclz.o(fz_t_p.l)
    0x000212f4   0x00000004   Ven    RO         1649    x$fpl$dfltu         dflt_noclz.o(fz_t_p.l)
    0x000212f8   0x0000000c   Code   RO         1649    x$fpl$dfltu         dflt_noclz.o(fz_t_p.l)
    0x00021304   0x00000004   Ven    RO         1681    x$fpl$dleqf         dleqf.o(fz_t_p.l)
    0x00021308   0x00000088   Code   RO         1681    x$fpl$dleqf         dleqf.o(fz_t_p.l)
    0x00021390   0x00000004   Ven    RO         1653    x$fpl$dmul          dmul.o(fz_t_p.l)
    0x00021394   0x000001dc   Code   RO         1653    x$fpl$dmul          dmul.o(fz_t_p.l)
    0x00021570   0x00000004   Ven    RO         1683    x$fpl$drleqf        drleqf.o(fz_t_p.l)
    0x00021574   0x000000a0   Code   RO         1683    x$fpl$drleqf        drleqf.o(fz_t_p.l)
    0x00021614   0x00000018   Code   RO         1640    x$fpl$drsb          daddsub_noclz.o(fz_t_p.l)
    0x0002162c   0x00000188   Code   RO         1874    x$fpl$dsqrt         dsqrt.o(fz_t_p.l)
    0x000217b4   0x00000004   Ven    RO         1641    x$fpl$dsub          daddsub_noclz.o(fz_t_p.l)
    0x000217b8   0x00000248   Code   RO         1641    x$fpl$dsub          daddsub_noclz.o(fz_t_p.l)
    0x00021a00   0x00000114   Code   RO         1756    x$fpl$dunder        dunder.o(fz_t_p.l)
    0x00021b14   0x00000004   Ven    RO         1655    x$fpl$f2d           f2d.o(fz_t_p.l)
    0x00021b18   0x00000064   Code   RO         1655    x$fpl$f2d           f2d.o(fz_t_p.l)
    0x00021b7c   0x00000004   Ven    RO         1657    x$fpl$fadd          faddsub_noclz.o(fz_t_p.l)
    0x00021b80   0x00000108   Code   RO         1657    x$fpl$fadd          faddsub_noclz.o(fz_t_p.l)
    0x00021c88   0x0000000c   Code   RO         1758    x$fpl$fcheck        fcheck.o(fz_t_p.l)
    0x00021c94   0x0000000c   Code   RO         1760    x$fpl$fcheck1       fcheck1.o(fz_t_p.l)
    0x00021ca0   0x00000004   Ven    RO         1664    x$fpl$fdiv          fdiv.o(fz_t_p.l)
    0x00021ca4   0x000001e4   Code   RO         1664    x$fpl$fdiv          fdiv.o(fz_t_p.l)
    0x00021e88   0x00000004   Ven    RO         1685    x$fpl$feqf          feqf.o(fz_t_p.l)
    0x00021e8c   0x00000078   Code   RO         1685    x$fpl$feqf          feqf.o(fz_t_p.l)
    0x00021f04   0x00000004   Ven    RO         1667    x$fpl$ffix          ffix.o(fz_t_p.l)
    0x00021f08   0x00000074   Code   RO         1667    x$fpl$ffix          ffix.o(fz_t_p.l)
    0x00021f7c   0x00000004   Ven    RO         1671    x$fpl$ffixu         ffixu.o(fz_t_p.l)
    0x00021f80   0x00000060   Code   RO         1671    x$fpl$ffixu         ffixu.o(fz_t_p.l)
    0x00021fe0   0x00000004   Ven    RO         1676    x$fpl$fflt          fflt_noclz.o(fz_t_p.l)
    0x00021fe4   0x0000005c   Code   RO         1676    x$fpl$fflt          fflt_noclz.o(fz_t_p.l)
    0x00022040   0x00000004   Ven    RO         1675    x$fpl$ffltu         fflt_noclz.o(fz_t_p.l)
    0x00022044   0x00000008   Code   RO         1675    x$fpl$ffltu         fflt_noclz.o(fz_t_p.l)
    0x0002204c   0x00000004   Ven    RO         1687    x$fpl$fleqf         fleqf.o(fz_t_p.l)
    0x00022050   0x00000078   Code   RO         1687    x$fpl$fleqf         fleqf.o(fz_t_p.l)
    0x000220c8   0x00000004   Ven    RO         1679    x$fpl$fmul          fmul.o(fz_t_p.l)
    0x000220cc   0x00000108   Code   RO         1679    x$fpl$fmul          fmul.o(fz_t_p.l)
    0x000221d4   0x00000094   Code   RO         1764    x$fpl$fnorm2        fnorm2_noclz.o(fz_t_p.l)
    0x00022268   0x00000004   Ven    RO         1908    x$fpl$fpinit        fpinit.o(fz_t_p.l)
    0x0002226c   0x00000018   Code   RO         1908    x$fpl$fpinit        fpinit.o(fz_t_p.l)
    0x00022284   0x00000004   Ven    RO         1689    x$fpl$frleqf        frleqf.o(fz_t_p.l)
    0x00022288   0x00000084   Code   RO         1689    x$fpl$frleqf        frleqf.o(fz_t_p.l)
    0x0002230c   0x00000004   Ven    RO         1659    x$fpl$fsub          faddsub_noclz.o(fz_t_p.l)
    0x00022310   0x00000168   Code   RO         1659    x$fpl$fsub          faddsub_noclz.o(fz_t_p.l)
    0x00022478   0x00000090   Code   RO         1766    x$fpl$funder        funder.o(fz_t_p.l)
    0x00022508   0x00000004   Ven    RO         1880    x$fpl$ieeestatus    istatus.o(fz_t_p.l)
    0x0002250c   0x00000008   Code   RO         1880    x$fpl$ieeestatus    istatus.o(fz_t_p.l)
    0x00022514   0x00000004   Ven    RO         1691    x$fpl$printf1       printf1.o(fz_t_p.l)
    0x00022518   0x00000004   Code   RO         1691    x$fpl$printf1       printf1.o(fz_t_p.l)
    0x0002251c   0x00000004   Ven    RO         1770    x$fpl$printf2       printf2.o(fz_t_p.l)
    0x00022520   0x00000004   Code   RO         1770    x$fpl$printf2       printf2.o(fz_t_p.l)
    0x00022524   0x00000074   Code   RO         1876    x$fpl$retnan        retnan.o(fz_t_p.l)
    0x00022598   0x0000006c   Code   RO         1768    x$fpl$scalbn        scalbn_noclz.o(fz_t_p.l)
    0x00022604   0x0000003c   Code   RO         1878    x$fpl$trapveneer    trapv.o(fz_t_p.l)
    0x00022640   0x00000000   Code   RO         1749    x$fpl$usenofp       usenofp.o(fz_t_p.l)
    0x00022640   0x00000080   Data   RO          169    .constdata          key_tab.o
    0x000226c0   0x00000100   Data   RO          179    .constdata          key_task.o
    0x000227c0   0x0000034c   Data   RO          206    .constdata          menu_tbl.o
    0x00022b0c   0x000005e0   Data   RO          243    .constdata          rs232_protocol.o
    0x000230ec   0x00000015   Data   RO          304    .constdata          setup_func.o
    0x00023101   0x00000003   PAD
    0x00023104   0x00000028   Data   RO          368    .constdata          task.o
    0x0002312c   0x00000015   Data   RO          384    .constdata          vfd_disp.o
    0x00023141   0x00000003   PAD
    0x00023144   0x00000114   Data   RO          563    .constdata          auto_sound.o
    0x00023258   0x0000004c   Data   RO          695    .constdata          cs8416.o
    0x000232a4   0x0000004c   Data   RO          751    .constdata          eeprom.o
    0x000232f0   0x00000050   Data   RO          932    .constdata          vfddriver.o
    0x00023340   0x00000008   Data   RO          971    .constdata          volume.o
    0x00023348   0x00000008   Data   RO          995    .constdata          max335.o
    0x00023350   0x000000d8   Data   RO         1014    .constdata          channel.o
    0x00023428   0x0000004c   Data   RO         1060    .constdata          hdmi.o
    0x00023474   0x000000d8   Data   RO         1370    .constdata          eq_manager.o
    0x0002354c   0x00000100   Data   RO         1407    .constdata          irc1_manager.o
    0x0002364c   0x00000004   PAD
    0x00023650   0x00000088   Data   RO         1697    .constdata          pow.o(m_t_pu.l)
    0x000236d8   0x00000008   Data   RO         1726    .constdata          _printf_wctomb.o(c_t__un.l)
    0x000236e0   0x00000022   Data   RO         1731    .constdata          _printf_longlong_hex.o(c_t__un.l)
    0x00023702   0x00000006   PAD
    0x00023708   0x00000008   Data   RO         1778    .constdata          qnan.o(m_t_pu.l)
    0x00023710   0x00000094   Data   RO         1809    .constdata          bigflt0.o(c_t__un.l)
    0x000237a4   0x00000011   Data   RO         1834    .constdata          __printf.o(c_t__un.l)
    0x000237b5   0x00000003   PAD
    0x000237b8   0x0000001c   Data   RO         1846    .constdata          lc_numeric_c.o(c_t__un.l)
    0x000237d4   0x0000010d   Data   RO         1928    .constdata          lc_ctype_c.o(c_t__un.l)
    0x000238e1   0x00000577   Data   RO          207    .conststring        menu_tbl.o
    0x00023e58   0x00000340   Data   RO          244    .conststring        rs232_protocol.o
    0x00024198   0x000000a6   Data   RO          404    .conststring        zone1_task.o
    0x0002423e   0x00000017   Data   RO          564    .conststring        auto_sound.o
    0x00024255   0x00000003   PAD
    0x00024258   0x00000020   Data   RO         1956    Region$$Table       anon$$obj.o


    Execution Region RW_IRAM1 (Base: 0x40000000, Size: 0x00004060, Max: 0x0000e800, ABSOLUTE, COMPRESSED[0x00001230])

    Base Addr    Size         Type   Attr      Idx    E Section Name        Object

    0x40000000   0x00000004   Data   RW           12    .data               main.o
    0x40000004   0x0000001c   Data   RW          178    .data               key_task.o
    0x40000020   0x0000241b   Data   RW          205    .data               menu_tbl.o
    0x4000243b   0x00000001   PAD
    0x4000243c   0x00000004   Data   RW          226    .data               message.o
    0x40002440   0x000002fa   Data   RW          242    .data               rs232_protocol.o
    0x4000273a   0x00000002   PAD
    0x4000273c   0x0000024d   Data   RW          303    .data               setup_func.o
    0x40002989   0x00000003   PAD
    0x4000298c   0x00000020   Data   RW          352    .data               setup_menu.o
    0x400029ac   0x00000019   Data   RW          367    .data               task.o
    0x400029c5   0x00000001   PAD
    0x400029c6   0x00000058   Data   RW          383    .data               vfd_disp.o
    0x40002a1e   0x00000002   PAD
    0x40002a20   0x0000011e   Data   RW          403    .data               zone1_task.o
    0x40002b3e   0x00000002   PAD
    0x40002b40   0x00000004   Data   RW          540    .data               zone2_task.o
    0x40002b44   0x00000155   Data   RW          562    .data               auto_sound.o
    0x40002c99   0x00000003   PAD
    0x40002c9c   0x00000078   Data   RW          616    .data               radio_task.o
    0x40002d14   0x00000020   Data   RW          657    .data               uart.o
    0x40002d34   0x00000001   Data   RW          694    .data               cs8416.o
    0x40002d35   0x00000002   Data   RW          727    .data               dac.o
    0x40002d37   0x00000002   Data   RW          769    .data               i2cdrv.o
    0x40002d39   0x00000001   Data   RW          799    .data               ic4094.o
    0x40002d3a   0x00000002   PAD
    0x40002d3c   0x00000018   Data   RW          814    .data               ioport.o
    0x40002d54   0x0000001d   Data   RW          851    .data               ir.o
    0x40002d71   0x00000003   PAD
    0x40002d74   0x00000028   Data   RW          880    .data               timer.o
    0x40002d9c   0x00000005   Data   RW          970    .data               volume.o
    0x40002da1   0x00000008   Data   RW          994    .data               max335.o
    0x40002da9   0x00000002   Data   RW         1013    .data               channel.o
    0x40002dab   0x00000002   Data   RW         1059    .data               hdmi.o
    0x40002dad   0x00000001   PAD
    0x40002dae   0x00000012   Data   RW         1238    .data               dsp_task.o
    0x40002dc0   0x0000001e   Data   RW         1280    .data               dspdrv.o
    0x40002dde   0x00000002   PAD
    0x40002de0   0x00000708   Zero   RW          227    .bss                message.o
    0x400034e8   0x00000014   Zero   RW          245    .bss                rs232_protocol.o
    0x400034fc   0x00000014   Zero   RW          305    .bss                setup_func.o
    0x40003510   0x00000032   Zero   RW          405    .bss                zone1_task.o
    0x40003542   0x00000064   Zero   RW          617    .bss                radio_task.o
    0x400035a6   0x00000200   Zero   RW          658    .bss                uart.o
    0x400037a6   0x00000002   PAD
    0x400037a8   0x00000020   Zero   RW          972    .bss                volume.o
    0x400037c8   0x0000000c   Zero   RW         1147    .bss                bassmanager.o
    0x400037d4   0x00000020   Zero   RW         1165    .bss                delaymanager.o
    0x400037f4   0x00000080   Zero   RW         1281    .bss                dspdrv.o
    0x40003874   0x00000280   Zero   RW         1371    .bss                eq_manager.o
    0x40003af4   0x00000060   Zero   RW         1784    .bss                libspace.o(c_t__un.l)
    0x40003b54   0x00000004   PAD
    0x40003b58   0x00000000   Zero   RW            2    HEAP                lpc2300.o
    0x40003b58   0x00000508   Zero   RW            1    STACK               lpc2300.o


================================================================================

Image component sizes


      Code (inc. data)   RO Data    RW Data    ZI Data      Debug   Object Name

         0          0          0          0          0       7352   audiomanager.o
      8964        678        299        341          0      12820   auto_sound.o
      4360        164          0          0         12      12488   bassmanager.o
       132          0          0          0          0       1812   c11_msg_handler.o
      1332         68        216          2          0       8188   channel.o
       328         34         76          1          0       3728   cs8416.o
       860         42          0          2          0       2284   dac.o
       200         28          0          0          0       5960   debug.o
      1200         38          0          0         32      11276   delaymanager.o
       712          6          0          0          0       2516   dolbymanager.o
       800         34          0          0          0       2180   dolbyprologicii.o
       996         32          0          0          0       2680   dolbyprologiciix.o
       652         14          0          0          0       2048   dolbytruehd.o
      2720        430          0          0          0       5108   dsp_api.o
       640        176          0          0          0       1620   dsp_spi.o
       896        276          0         18          0       9856   dsp_task.o
      8980       1916          0         30        128      22116   dspdrv.o
       228         38         76          0          0       1676   eeprom.o
      2616        186        216          0        640       8968   eq_manager.o
      1024        284         76          2          0       3392   hdmi.o
      1428         32          0          2          0       3972   i2cdrv.o
        80          0          0          0          0        516   ic165.o
       640         68          0          1          0       3684   ic4094.o
      4720        128          0         24          0      13704   ioport.o
      1600         90          0         29          0       4284   ir.o
       736         12        256          0          0       3268   irc1_manager.o
       376          4          0          0          0       1520   irc2_manager.o
         0          0        128          0          0        476   key_tab.o
      1056         46        256         28          0       3608   key_task.o
       396         60          0          0       1288        672   lpc2300.o
       268         60          0          4          0      48232   main.o
       708         14          0          0          0       1820   mas9116.o
       176         10          8          8          0       1416   max335.o
         0          0       2243       9243          0      11696   menu_tbl.o
       412         60          0          4       1800       2000   message.o
       560          6          0          0          0       1972   os_manager.o
       356          0          0          0          0       2280   queue.o
      8720       1358          0        120        100      13520   radio_task.o
     28484       5736       2336        762         20      75204   rs232_protocol.o
      6540        394         21        589         20      23288   setup_func.o
      6432        780          0         32          0      10732   setup_menu.o
       516         36          0          0          0       1632   signalgenerator.o
       120         10         40         25          0       1576   task.o
      1204        180          0         40          0       3200   timer.o
      1164         58          0          0          0       3816   tuner.o
       528         66          0         32        512       3324   uart.o
       620         22         21         88          0       3360   vfd_disp.o
       268         48         80          0          0       1848   vfddriver.o
       636        110          8          5         32       2336   volume.o
     12152       2616        166        286         50      20228   zone1_task.o
      2172        336          0          4          0       3276   zone2_task.o

    ------------------------------------------------------------------------
    120820      16808       6567      11744       4636     400528   Object Totals
       112         24         32          0          0          0   (incl. Generated)
         0          0         13         22          2          0   (incl. Padding)

    ------------------------------------------------------------------------

      Code (inc. data)   RO Data    RW Data    ZI Data      Debug   Library Member Name

        44          4          0          0          0          0   __0sprintf.o
        92          0          0          0          0          0   __dczerorl2.o
         8          0          0          0          0          0   __main.o
       744          4         17          0          0          0   __printf.o
        56          8          0          0          0          0   __scatter.o
        44          0          0          0          0          0   __scatter_zi.o
        52          8          0          0          0          0   _printf_char_common.o
        36          0          0          0          0          0   _printf_charcount.o
       116         18          0          0          0          0   _printf_dec.o
      1606         44          0          0          0          0   _printf_fp_dec.o
        10          0          0          0          0          0   _printf_input_char.o
       168          0          0          0          0          0   _printf_intcommon.o
       140         16          0          0          0          0   _printf_longlong_dec.o
       204         22         34          0          0          0   _printf_longlong_hex.o
       148         10          0          0          0          0   _printf_longlong_oct.o
        32          0          0          0          0          0   _printf_outstr_char.o
        84          0          0          0          0          0   _printf_pad.o
        94          0          0          0          0          0   _printf_str.o
        44          0          0          0          0          0   _printf_truncate.o
       196          6          8          0          0          0   _printf_wctomb.o
        42          0          0          0          0          0   _rserrno.o
        10          0          0          0          0          0   _sputc.o
        78          0          0          0          0          0   _wcrtomb.o
         4          0          0          0          0          0   aeabi_idiv0.o
        20          0          0          0          0          0   aeabi_memset.o
       400          0          0          0          0          0   aeabi_sdiv.o
       208          6        148          0          0          0   bigflt0.o
        12          0          0          0          0          0   boardinit2.o
        16          0          0          0          0          0   boardinit3.o
      2040        128          0          0          0          0   btod.o
        16          0          0          0          0          0   callvia.o
        60          0          0          0          0          0   classify.o
       176          4          0          0          0          0   d2f.o
      1080         28          0          0          0          0   daddsub_noclz.o
        16          4          0          0          0          0   dcheck.o
        16          4          0          0          0          0   dcheck1.o
       128          0          0          0          0          0   dcmpin.o
      1220        144          0          0          0          0   ddiv.o
       104          0          0          0          0          0   dflt_noclz.o
       140          4          0          0          0          0   dleqf.o
       480         16          0          0          0          0   dmul.o
       164          4          0          0          0          0   drleqf.o
       392          8          0          0          0          0   dsqrt.o
       100          0          0          0          0          0   dtoi.o
       276          0          0          0          0          0   dunder.o
        24          0          0          0          0          0   exit.o
       104          4          0          0          0          0   f2d.o
       632          8          0          0          0          0   faddsub_noclz.o
        12          4          0          0          0          0   fcheck.o
        12          4          0          0          0          0   fcheck1.o
       100          0          0          0          0          0   fcmpin.o
       488         76          0          0          0          0   fdiv.o
       124          4          0          0          0          0   feqf.o
       120          4          0          0          0          0   ffix.o
       100          4          0          0          0          0   ffixu.o
       108          0          0          0          0          0   fflt_noclz.o
       124          4          0          0          0          0   fleqf.o
       268          4          0          0          0          0   fmul.o
       148          0          0          0          0          0   fnorm2_noclz.o
        48          4          0          0          0          0   fpclassify.o
        28          0          0          0          0          0   fpinit.o
       136          4          0          0          0          0   frleqf.o
       144          0          0          0          0          0   funder.o
        12          0          0          0          0          0   istatus.o
       104          4          0          0          0          0   kernel.o
        48          8        269          0          0          0   lc_ctype_c.o
        48          8         28          0          0          0   lc_numeric_c.o
       242          4          0          0          0          0   lib_init.o
        12          4          0          0         96          0   libspace.o
       164          0          0          0          0          0   lludiv10.o
         6          0          0          0          0          0   no_argv.o
       248          0          0          0          0          0   poly.o
      3640        236        136          0          0          0   pow.o
         8          0          0          0          0          0   printf1.o
         8          0          0          0          0          0   printf2.o
         0          0          8          0          0          0   qnan.o
       116          0          0          0          0          0   retnan.o
        28          4          0          0          0          0   rt_ctype_table.o
        20          4          0          0          0          0   rt_errno_addr_intlibspace.o
        16          4          0          0          0          0   rt_fp_status_addr_intlibspace.o
        20          4          0          0          0          0   rt_locale_intlibspace.o
        64          0          0          0          0          0   rt_memclr.o
        84          0          0          0          0          0   rt_memclr_w.o
       216          0          0          0          0          0   rt_memcpy.o
       104          0          0          0          0          0   rt_memcpy_w.o
        16          4          0          0          0          0   rt_stackheap_storage_intlibspace.o
        48          0          0          0          0          0   rtudiv10.o
       108          0          0          0          0          0   scalbn_noclz.o
       124         20          0          0          0          0   sqrt.o
        88          0          0          0          0          0   stkheap2.o
       164          4          0          0          0          0   strcmp.o
        72          4          0          0          0          0   strlen.o
       116          4          0          0          0          0   strncpy.o
        28          0          0          0          0          0   switch8.o
        24          8          0          0          0          0   sys_exit.o
        96          0          0          0          0          0   sys_stackheap_outer.o
        60          0          0          0          0          0   trapv.o
         4          0          0          0          0          0   use_no_semi.o
         0          0          0          0          0          0   usenofp.o
        44          6          0          0          0          0   vsprintf.o

    ------------------------------------------------------------------------
     20044        944        657          0        100          0   Library Totals
         8          0          9          0          4          0   (incl. Padding)

    ------------------------------------------------------------------------

      Code (inc. data)   RO Data    RW Data    ZI Data      Debug   Library Name

      8620        348        504          0         96          0   c_t__un.l
      7152        336          0          0          0          0   fz_t_p.l
        44          0          0          0          0          0   h_t__un.l
      4220        260        144          0          0          0   m_t_pu.l

    ------------------------------------------------------------------------
     20044        944        657          0        100          0   Library Totals

    ------------------------------------------------------------------------

================================================================================


      Code (inc. data)   RO Data    RW Data    ZI Data      Debug   

    140864      17752       7224      11744       4736     400528   Grand Totals
    140864      17752       7224       4656       4736     400528   Image Totals (compressed)

================================================================================

    Total RO  Size (Code + RO Data)               148088 ( 144.62kB)
    Total RW  Size (RW Data + ZI Data)             16480 (  16.09kB)
    Total ROM Size (Code + RO Data + RW Data)     152744 ( 149.16kB)

================================================================================

